
FullCode.elf:     file format elf32-avr

Sections:
Idx Name          Size      VMA       LMA       File off  Algn
  0 .text         000021a2  00000000  00000000  00000094  2**1
                  CONTENTS, ALLOC, LOAD, READONLY, CODE
  1 .data         0000008e  00800060  000021a2  00002236  2**0
                  CONTENTS, ALLOC, LOAD, DATA
  2 .bss          00000137  008000ee  008000ee  000022c4  2**0
                  ALLOC
  3 .comment      0000005c  00000000  00000000  000022c4  2**0
                  CONTENTS, READONLY
  4 .note.gnu.avr.deviceinfo 0000003c  00000000  00000000  00002320  2**2
                  CONTENTS, READONLY
  5 .debug_aranges 000001a8  00000000  00000000  0000235c  2**0
                  CONTENTS, READONLY, DEBUGGING
  6 .debug_info   000020b1  00000000  00000000  00002504  2**0
                  CONTENTS, READONLY, DEBUGGING
  7 .debug_abbrev 0000099f  00000000  00000000  000045b5  2**0
                  CONTENTS, READONLY, DEBUGGING
  8 .debug_line   00001138  00000000  00000000  00004f54  2**0
                  CONTENTS, READONLY, DEBUGGING
  9 .debug_frame  0000046c  00000000  00000000  0000608c  2**2
                  CONTENTS, READONLY, DEBUGGING
 10 .debug_str    00000819  00000000  00000000  000064f8  2**0
                  CONTENTS, READONLY, DEBUGGING
 11 .debug_loc    000015de  00000000  00000000  00006d11  2**0
                  CONTENTS, READONLY, DEBUGGING
 12 .debug_ranges 00000190  00000000  00000000  000082ef  2**0
                  CONTENTS, READONLY, DEBUGGING

Disassembly of section .text:

00000000 <__vectors>:
       0:	0c 94 c5 00 	jmp	0x18a	; 0x18a <__ctors_end>
       4:	0c 94 e2 00 	jmp	0x1c4	; 0x1c4 <__bad_interrupt>
       8:	0c 94 e2 00 	jmp	0x1c4	; 0x1c4 <__bad_interrupt>
       c:	0c 94 e2 00 	jmp	0x1c4	; 0x1c4 <__bad_interrupt>
      10:	0c 94 e2 00 	jmp	0x1c4	; 0x1c4 <__bad_interrupt>
      14:	0c 94 e2 00 	jmp	0x1c4	; 0x1c4 <__bad_interrupt>
      18:	0c 94 e2 00 	jmp	0x1c4	; 0x1c4 <__bad_interrupt>
      1c:	0c 94 e2 00 	jmp	0x1c4	; 0x1c4 <__bad_interrupt>
      20:	0c 94 e2 00 	jmp	0x1c4	; 0x1c4 <__bad_interrupt>
      24:	0c 94 e2 00 	jmp	0x1c4	; 0x1c4 <__bad_interrupt>
      28:	0c 94 e2 00 	jmp	0x1c4	; 0x1c4 <__bad_interrupt>
      2c:	0c 94 e2 00 	jmp	0x1c4	; 0x1c4 <__bad_interrupt>
      30:	0c 94 e2 00 	jmp	0x1c4	; 0x1c4 <__bad_interrupt>
      34:	0c 94 b1 02 	jmp	0x562	; 0x562 <__vector_13>
      38:	0c 94 e2 00 	jmp	0x1c4	; 0x1c4 <__bad_interrupt>
      3c:	0c 94 e2 00 	jmp	0x1c4	; 0x1c4 <__bad_interrupt>
      40:	0c 94 e2 00 	jmp	0x1c4	; 0x1c4 <__bad_interrupt>
      44:	0c 94 e2 00 	jmp	0x1c4	; 0x1c4 <__bad_interrupt>
      48:	0c 94 e2 00 	jmp	0x1c4	; 0x1c4 <__bad_interrupt>
      4c:	0c 94 e2 00 	jmp	0x1c4	; 0x1c4 <__bad_interrupt>
      50:	0c 94 e2 00 	jmp	0x1c4	; 0x1c4 <__bad_interrupt>

00000054 <__trampolines_end>:
      54:	4e 41       	sbci	r20, 0x1E	; 30
      56:	4e 49       	Address 0x00000056 is out of bounds.
.word	0xffff	; ????

00000057 <pstr_inity>:
      57:	49 4e 49 54 59                                      INITY

0000005c <pstr_inf>:
      5c:	49 4e 46                                            INF

0000005f <pwr_m10>:
      5f:	cd cc cc 3d 0a d7 23 3c 17 b7 d1 38 77 cc 2b 32     ...=..#<...8w.+2
      6f:	95 95 e6 24 1f b1 4f 0a                             ...$..O.

00000077 <pwr_p10>:
      77:	00 00 20 41 00 00 c8 42 00 40 1c 46 20 bc be 4c     .. A...B.@.F ..L
      87:	ca 1b 0e 5a ae c5 9d 74 00 40 7a 10 f3 5a 00 a0     ...Z...t.@z..Z..
      97:	72 4e 18 09 00 10 a5 d4 e8 00 00 e8 76 48 17 00     rN..........vH..
      a7:	00 e4 0b 54 02 00 00 ca 9a 3b 00 00 00 e1 f5 05     ...T.....;......
      b7:	00 00 80 96 98 00 00 00 40 42 0f 00 00 00 a0 86     ........@B......
      c7:	01 00 00 00 10 27 00 00 00 00 e8 03 00 00 00 00     .....'..........
      d7:	64 00 00 00 00 00 0a 00 00 00 00 00 01 00 00 00     d...............
      e7:	00 00 2c 76 d8 88 dc 67 4f 08 23 df c1 df ae 59     ..,v...gO.#....Y
      f7:	e1 b1 b7 96 e5 e3 e4 53 c6 3a e6 51 99 76 96 e8     .......S.:.Q.v..
     107:	e6 c2 84 26 eb 89 8c 9b 62 ed 40 7c 6f fc ef bc     ...&....b.@|o...
     117:	9c 9f 40 f2 ba a5 6f a5 f4 90 05 5a 2a f7 5c 93     ..@...o....Z*.\.
     127:	6b 6c f9 67 6d c1 1b fc e0 e4 0d 47 fe f5 20 e6     kl.gm......G.. .
     137:	b5 00 d0 ed 90 2e 03 00 94 35 77 05 00 80 84 1e     .........5w.....
     147:	08 00 00 20 4e 0a 00 00 00 c8 0c 33 33 33 33 0f     ... N......3333.
     157:	98 6e 12 83 11 41 ef 8d 21 14 89 3b e6 55 16 cf     .n...A..!..;.U..
     167:	fe e6 db 18 d1 84 4b 38 1b f7 7c 1d 90 1d a4 bb     ......K8..|.....
     177:	e4 24 20 32 84 72 5e 22 81 00 c9 f1 24 ec a1 e5     .$ 2.r^"....$...
     187:	3d 27 00                                            ='.

0000018a <__ctors_end>:
     18a:	11 24       	eor	r1, r1
     18c:	1f be       	out	0x3f, r1	; 63
     18e:	cf e5       	ldi	r28, 0x5F	; 95
     190:	d8 e0       	ldi	r29, 0x08	; 8
     192:	de bf       	out	0x3e, r29	; 62
     194:	cd bf       	out	0x3d, r28	; 61

00000196 <__do_copy_data>:
     196:	10 e0       	ldi	r17, 0x00	; 0
     198:	a0 e6       	ldi	r26, 0x60	; 96
     19a:	b0 e0       	ldi	r27, 0x00	; 0
     19c:	e2 ea       	ldi	r30, 0xA2	; 162
     19e:	f1 e2       	ldi	r31, 0x21	; 33
     1a0:	02 c0       	rjmp	.+4      	; 0x1a6 <__do_copy_data+0x10>
     1a2:	05 90       	lpm	r0, Z+
     1a4:	0d 92       	st	X+, r0
     1a6:	ae 3e       	cpi	r26, 0xEE	; 238
     1a8:	b1 07       	cpc	r27, r17
     1aa:	d9 f7       	brne	.-10     	; 0x1a2 <__do_copy_data+0xc>

000001ac <__do_clear_bss>:
     1ac:	22 e0       	ldi	r18, 0x02	; 2
     1ae:	ae ee       	ldi	r26, 0xEE	; 238
     1b0:	b0 e0       	ldi	r27, 0x00	; 0
     1b2:	01 c0       	rjmp	.+2      	; 0x1b6 <.do_clear_bss_start>

000001b4 <.do_clear_bss_loop>:
     1b4:	1d 92       	st	X+, r1

000001b6 <.do_clear_bss_start>:
     1b6:	a5 32       	cpi	r26, 0x25	; 37
     1b8:	b2 07       	cpc	r27, r18
     1ba:	e1 f7       	brne	.-8      	; 0x1b4 <.do_clear_bss_loop>
     1bc:	0e 94 fc 05 	call	0xbf8	; 0xbf8 <main>
     1c0:	0c 94 cf 10 	jmp	0x219e	; 0x219e <_exit>

000001c4 <__bad_interrupt>:
     1c4:	0c 94 00 00 	jmp	0	; 0x0 <__vectors>

000001c8 <I2C_Init>:
     1c8:	11 b8       	out	0x01, r1	; 1
     1ca:	80 e2       	ldi	r24, 0x20	; 32
     1cc:	80 b9       	out	0x00, r24	; 0
     1ce:	08 95       	ret

000001d0 <I2C_Repeated_Start>:
     1d0:	94 ea       	ldi	r25, 0xA4	; 164
     1d2:	96 bf       	out	0x36, r25	; 54
     1d4:	06 b6       	in	r0, 0x36	; 54
     1d6:	07 fe       	sbrs	r0, 7
     1d8:	fd cf       	rjmp	.-6      	; 0x1d4 <I2C_Repeated_Start+0x4>
     1da:	91 b1       	in	r25, 0x01	; 1
     1dc:	98 7f       	andi	r25, 0xF8	; 248
     1de:	90 31       	cpi	r25, 0x10	; 16
     1e0:	71 f4       	brne	.+28     	; 0x1fe <I2C_Repeated_Start+0x2e>
     1e2:	83 b9       	out	0x03, r24	; 3
     1e4:	84 e8       	ldi	r24, 0x84	; 132
     1e6:	86 bf       	out	0x36, r24	; 54
     1e8:	06 b6       	in	r0, 0x36	; 54
     1ea:	07 fe       	sbrs	r0, 7
     1ec:	fd cf       	rjmp	.-6      	; 0x1e8 <I2C_Repeated_Start+0x18>
     1ee:	81 b1       	in	r24, 0x01	; 1
     1f0:	88 7f       	andi	r24, 0xF8	; 248
     1f2:	80 34       	cpi	r24, 0x40	; 64
     1f4:	31 f0       	breq	.+12     	; 0x202 <I2C_Repeated_Start+0x32>
     1f6:	80 32       	cpi	r24, 0x20	; 32
     1f8:	31 f4       	brne	.+12     	; 0x206 <I2C_Repeated_Start+0x36>
     1fa:	82 e0       	ldi	r24, 0x02	; 2
     1fc:	08 95       	ret
     1fe:	80 e0       	ldi	r24, 0x00	; 0
     200:	08 95       	ret
     202:	81 e0       	ldi	r24, 0x01	; 1
     204:	08 95       	ret
     206:	83 e0       	ldi	r24, 0x03	; 3
     208:	08 95       	ret

0000020a <I2C_Stop>:
     20a:	84 e9       	ldi	r24, 0x94	; 148
     20c:	86 bf       	out	0x36, r24	; 54
     20e:	06 b6       	in	r0, 0x36	; 54
     210:	04 fc       	sbrc	r0, 4
     212:	fd cf       	rjmp	.-6      	; 0x20e <I2C_Stop+0x4>
     214:	08 95       	ret

00000216 <I2C_Start_Wait>:
     216:	cf 93       	push	r28
     218:	c8 2f       	mov	r28, r24
     21a:	84 ea       	ldi	r24, 0xA4	; 164
     21c:	86 bf       	out	0x36, r24	; 54
     21e:	06 b6       	in	r0, 0x36	; 54
     220:	07 fe       	sbrs	r0, 7
     222:	fd cf       	rjmp	.-6      	; 0x21e <I2C_Start_Wait+0x8>
     224:	81 b1       	in	r24, 0x01	; 1
     226:	88 7f       	andi	r24, 0xF8	; 248
     228:	88 30       	cpi	r24, 0x08	; 8
     22a:	b9 f7       	brne	.-18     	; 0x21a <I2C_Start_Wait+0x4>
     22c:	c3 b9       	out	0x03, r28	; 3
     22e:	84 e8       	ldi	r24, 0x84	; 132
     230:	86 bf       	out	0x36, r24	; 54
     232:	06 b6       	in	r0, 0x36	; 54
     234:	07 fe       	sbrs	r0, 7
     236:	fd cf       	rjmp	.-6      	; 0x232 <I2C_Start_Wait+0x1c>
     238:	81 b1       	in	r24, 0x01	; 1
     23a:	88 7f       	andi	r24, 0xF8	; 248
     23c:	88 31       	cpi	r24, 0x18	; 24
     23e:	19 f0       	breq	.+6      	; 0x246 <I2C_Start_Wait+0x30>
     240:	0e 94 05 01 	call	0x20a	; 0x20a <I2C_Stop>
     244:	ea cf       	rjmp	.-44     	; 0x21a <I2C_Start_Wait+0x4>
     246:	cf 91       	pop	r28
     248:	08 95       	ret

0000024a <I2C_Write>:
     24a:	83 b9       	out	0x03, r24	; 3
     24c:	84 e8       	ldi	r24, 0x84	; 132
     24e:	86 bf       	out	0x36, r24	; 54
     250:	06 b6       	in	r0, 0x36	; 54
     252:	07 fe       	sbrs	r0, 7
     254:	fd cf       	rjmp	.-6      	; 0x250 <I2C_Write+0x6>
     256:	81 b1       	in	r24, 0x01	; 1
     258:	88 7f       	andi	r24, 0xF8	; 248
     25a:	88 32       	cpi	r24, 0x28	; 40
     25c:	21 f0       	breq	.+8      	; 0x266 <I2C_Write+0x1c>
     25e:	80 33       	cpi	r24, 0x30	; 48
     260:	21 f4       	brne	.+8      	; 0x26a <I2C_Write+0x20>
     262:	81 e0       	ldi	r24, 0x01	; 1
     264:	08 95       	ret
     266:	80 e0       	ldi	r24, 0x00	; 0
     268:	08 95       	ret
     26a:	82 e0       	ldi	r24, 0x02	; 2
     26c:	08 95       	ret

0000026e <I2C_Read_Ack>:
     26e:	84 ec       	ldi	r24, 0xC4	; 196
     270:	86 bf       	out	0x36, r24	; 54
     272:	06 b6       	in	r0, 0x36	; 54
     274:	07 fe       	sbrs	r0, 7
     276:	fd cf       	rjmp	.-6      	; 0x272 <I2C_Read_Ack+0x4>
     278:	83 b1       	in	r24, 0x03	; 3
     27a:	08 95       	ret

0000027c <I2C_Read_Nack>:
     27c:	84 e8       	ldi	r24, 0x84	; 132
     27e:	86 bf       	out	0x36, r24	; 54
     280:	06 b6       	in	r0, 0x36	; 54
     282:	07 fe       	sbrs	r0, 7
     284:	fd cf       	rjmp	.-6      	; 0x280 <I2C_Read_Nack+0x4>
     286:	83 b1       	in	r24, 0x03	; 3
     288:	08 95       	ret

0000028a <LCD_Command>:
	while (*str!='\0')
	{
		USART_transmit(*str);
		str++;
	}
}
     28a:	88 bb       	out	0x18, r24	; 24
     28c:	85 b3       	in	r24, 0x15	; 21
     28e:	8c 7f       	andi	r24, 0xFC	; 252
     290:	85 bb       	out	0x15, r24	; 21
     292:	85 b3       	in	r24, 0x15	; 21
     294:	84 60       	ori	r24, 0x04	; 4
     296:	85 bb       	out	0x15, r24	; 21
     298:	82 e0       	ldi	r24, 0x02	; 2
     29a:	8a 95       	dec	r24
     29c:	f1 f7       	brne	.-4      	; 0x29a <LCD_Command+0x10>
     29e:	00 c0       	rjmp	.+0      	; 0x2a0 <LCD_Command+0x16>
     2a0:	85 b3       	in	r24, 0x15	; 21
     2a2:	8b 7f       	andi	r24, 0xFB	; 251
     2a4:	85 bb       	out	0x15, r24	; 21
     2a6:	8f e9       	ldi	r24, 0x9F	; 159
     2a8:	9f e0       	ldi	r25, 0x0F	; 15
     2aa:	01 97       	sbiw	r24, 0x01	; 1
     2ac:	f1 f7       	brne	.-4      	; 0x2aa <LCD_Command+0x20>
     2ae:	00 c0       	rjmp	.+0      	; 0x2b0 <LCD_Command+0x26>
     2b0:	00 00       	nop
     2b2:	08 95       	ret

000002b4 <LCD_Char>:
     2b4:	88 bb       	out	0x18, r24	; 24
     2b6:	85 b3       	in	r24, 0x15	; 21
     2b8:	8d 7f       	andi	r24, 0xFD	; 253
     2ba:	85 bb       	out	0x15, r24	; 21
     2bc:	85 b3       	in	r24, 0x15	; 21
     2be:	85 60       	ori	r24, 0x05	; 5
     2c0:	85 bb       	out	0x15, r24	; 21
     2c2:	82 e0       	ldi	r24, 0x02	; 2
     2c4:	8a 95       	dec	r24
     2c6:	f1 f7       	brne	.-4      	; 0x2c4 <LCD_Char+0x10>
     2c8:	00 c0       	rjmp	.+0      	; 0x2ca <LCD_Char+0x16>
     2ca:	85 b3       	in	r24, 0x15	; 21
     2cc:	8b 7f       	andi	r24, 0xFB	; 251
     2ce:	85 bb       	out	0x15, r24	; 21
     2d0:	8f ec       	ldi	r24, 0xCF	; 207
     2d2:	97 e0       	ldi	r25, 0x07	; 7
     2d4:	01 97       	sbiw	r24, 0x01	; 1
     2d6:	f1 f7       	brne	.-4      	; 0x2d4 <LCD_Char+0x20>
     2d8:	00 c0       	rjmp	.+0      	; 0x2da <LCD_Char+0x26>
     2da:	00 00       	nop
     2dc:	08 95       	ret

000002de <LCD_Init>:
     2de:	84 b3       	in	r24, 0x14	; 20
     2e0:	87 60       	ori	r24, 0x07	; 7
     2e2:	84 bb       	out	0x14, r24	; 20
     2e4:	8f ef       	ldi	r24, 0xFF	; 255
     2e6:	87 bb       	out	0x17, r24	; 23
     2e8:	8f e9       	ldi	r24, 0x9F	; 159
     2ea:	9c e8       	ldi	r25, 0x8C	; 140
     2ec:	01 97       	sbiw	r24, 0x01	; 1
     2ee:	f1 f7       	brne	.-4      	; 0x2ec <LCD_Init+0xe>
     2f0:	00 c0       	rjmp	.+0      	; 0x2f2 <LCD_Init+0x14>
     2f2:	00 00       	nop
     2f4:	88 e3       	ldi	r24, 0x38	; 56
     2f6:	0e 94 45 01 	call	0x28a	; 0x28a <LCD_Command>
     2fa:	8c e0       	ldi	r24, 0x0C	; 12
     2fc:	0e 94 45 01 	call	0x28a	; 0x28a <LCD_Command>
     300:	86 e0       	ldi	r24, 0x06	; 6
     302:	0e 94 45 01 	call	0x28a	; 0x28a <LCD_Command>
     306:	81 e0       	ldi	r24, 0x01	; 1
     308:	0e 94 45 01 	call	0x28a	; 0x28a <LCD_Command>
     30c:	80 e8       	ldi	r24, 0x80	; 128
     30e:	0e 94 45 01 	call	0x28a	; 0x28a <LCD_Command>
     312:	08 95       	ret

00000314 <LCD_String>:
     314:	0f 93       	push	r16
     316:	1f 93       	push	r17
     318:	cf 93       	push	r28
     31a:	df 93       	push	r29
     31c:	8c 01       	movw	r16, r24
     31e:	c0 e0       	ldi	r28, 0x00	; 0
     320:	d0 e0       	ldi	r29, 0x00	; 0
     322:	03 c0       	rjmp	.+6      	; 0x32a <LCD_String+0x16>
     324:	0e 94 5a 01 	call	0x2b4	; 0x2b4 <LCD_Char>
     328:	21 96       	adiw	r28, 0x01	; 1
     32a:	f8 01       	movw	r30, r16
     32c:	ec 0f       	add	r30, r28
     32e:	fd 1f       	adc	r31, r29
     330:	80 81       	ld	r24, Z
     332:	81 11       	cpse	r24, r1
     334:	f7 cf       	rjmp	.-18     	; 0x324 <LCD_String+0x10>
     336:	df 91       	pop	r29
     338:	cf 91       	pop	r28
     33a:	1f 91       	pop	r17
     33c:	0f 91       	pop	r16
     33e:	08 95       	ret

00000340 <LCD_String_xy>:
     340:	cf 93       	push	r28
     342:	df 93       	push	r29
     344:	ea 01       	movw	r28, r20
     346:	81 30       	cpi	r24, 0x01	; 1
     348:	31 f4       	brne	.+12     	; 0x356 <LCD_String_xy+0x16>
     34a:	86 2f       	mov	r24, r22
     34c:	8f 70       	andi	r24, 0x0F	; 15
     34e:	80 68       	ori	r24, 0x80	; 128
     350:	0e 94 45 01 	call	0x28a	; 0x28a <LCD_Command>
     354:	07 c0       	rjmp	.+14     	; 0x364 <LCD_String_xy+0x24>
     356:	82 30       	cpi	r24, 0x02	; 2
     358:	29 f4       	brne	.+10     	; 0x364 <LCD_String_xy+0x24>
     35a:	86 2f       	mov	r24, r22
     35c:	8f 70       	andi	r24, 0x0F	; 15
     35e:	80 6c       	ori	r24, 0xC0	; 192
     360:	0e 94 45 01 	call	0x28a	; 0x28a <LCD_Command>
     364:	ce 01       	movw	r24, r28
     366:	0e 94 8a 01 	call	0x314	; 0x314 <LCD_String>
     36a:	df 91       	pop	r29
     36c:	cf 91       	pop	r28
     36e:	08 95       	ret

00000370 <LCD_Clear>:
     370:	81 e0       	ldi	r24, 0x01	; 1
     372:	0e 94 45 01 	call	0x28a	; 0x28a <LCD_Command>
     376:	08 95       	ret

00000378 <ADC_Init>:
     378:	8f ef       	ldi	r24, 0xFF	; 255
     37a:	87 bb       	out	0x17, r24	; 23
     37c:	1a ba       	out	0x1a, r1	; 26
     37e:	87 e8       	ldi	r24, 0x87	; 135
     380:	86 b9       	out	0x06, r24	; 6
     382:	80 ec       	ldi	r24, 0xC0	; 192
     384:	87 b9       	out	0x07, r24	; 7
     386:	08 95       	ret

00000388 <ADC_Read>:
     388:	86 b1       	in	r24, 0x06	; 6
     38a:	80 64       	ori	r24, 0x40	; 64
     38c:	86 b9       	out	0x06, r24	; 6
     38e:	34 9b       	sbis	0x06, 4	; 6
     390:	fe cf       	rjmp	.-4      	; 0x38e <ADC_Read+0x6>
     392:	8a e1       	ldi	r24, 0x1A	; 26
     394:	8a 95       	dec	r24
     396:	f1 f7       	brne	.-4      	; 0x394 <ADC_Read+0xc>
     398:	00 c0       	rjmp	.+0      	; 0x39a <ADC_Read+0x12>
     39a:	24 b1       	in	r18, 0x04	; 4
     39c:	85 b1       	in	r24, 0x05	; 5
     39e:	90 e0       	ldi	r25, 0x00	; 0
     3a0:	98 2f       	mov	r25, r24
     3a2:	88 27       	eor	r24, r24
     3a4:	82 0f       	add	r24, r18
     3a6:	91 1d       	adc	r25, r1
     3a8:	08 95       	ret

000003aa <convert_time_to_UTC>:
     3aa:	cf 93       	push	r28
     3ac:	df 93       	push	r29
     3ae:	88 eb       	ldi	r24, 0xB8	; 184
     3b0:	91 e0       	ldi	r25, 0x01	; 1
     3b2:	0e 94 af 09 	call	0x135e	; 0x135e <atol>
     3b6:	20 e1       	ldi	r18, 0x10	; 16
     3b8:	37 e2       	ldi	r19, 0x27	; 39
     3ba:	40 e0       	ldi	r20, 0x00	; 0
     3bc:	50 e0       	ldi	r21, 0x00	; 0
     3be:	0e 94 69 09 	call	0x12d2	; 0x12d2 <__udivmodsi4>
     3c2:	c2 2f       	mov	r28, r18
     3c4:	d3 2f       	mov	r29, r19
     3c6:	24 e6       	ldi	r18, 0x64	; 100
     3c8:	30 e0       	ldi	r19, 0x00	; 0
     3ca:	40 e0       	ldi	r20, 0x00	; 0
     3cc:	50 e0       	ldi	r21, 0x00	; 0
     3ce:	0e 94 69 09 	call	0x12d2	; 0x12d2 <__udivmodsi4>
     3d2:	7f 93       	push	r23
     3d4:	6f 93       	push	r22
     3d6:	3f 93       	push	r19
     3d8:	2f 93       	push	r18
     3da:	df 93       	push	r29
     3dc:	cf 93       	push	r28
     3de:	8a e6       	ldi	r24, 0x6A	; 106
     3e0:	90 e0       	ldi	r25, 0x00	; 0
     3e2:	9f 93       	push	r25
     3e4:	8f 93       	push	r24
     3e6:	88 eb       	ldi	r24, 0xB8	; 184
     3e8:	91 e0       	ldi	r25, 0x01	; 1
     3ea:	9f 93       	push	r25
     3ec:	8f 93       	push	r24
     3ee:	0e 94 17 0a 	call	0x142e	; 0x142e <sprintf>
     3f2:	8d b7       	in	r24, 0x3d	; 61
     3f4:	9e b7       	in	r25, 0x3e	; 62
     3f6:	0a 96       	adiw	r24, 0x0a	; 10
     3f8:	0f b6       	in	r0, 0x3f	; 63
     3fa:	f8 94       	cli
     3fc:	9e bf       	out	0x3e, r25	; 62
     3fe:	0f be       	out	0x3f, r0	; 63
     400:	8d bf       	out	0x3d, r24	; 61
     402:	df 91       	pop	r29
     404:	cf 91       	pop	r28
     406:	08 95       	ret

00000408 <get_gpstime>:
     408:	f8 94       	cli
     40a:	80 e0       	ldi	r24, 0x00	; 0
     40c:	20 e0       	ldi	r18, 0x00	; 0
     40e:	07 c0       	rjmp	.+14     	; 0x41e <get_gpstime+0x16>
     410:	e2 2f       	mov	r30, r18
     412:	f0 e0       	ldi	r31, 0x00	; 0
     414:	e8 54       	subi	r30, 0x48	; 72
     416:	fe 4f       	sbci	r31, 0xFE	; 254
     418:	90 83       	st	Z, r25
     41a:	2f 5f       	subi	r18, 0xFF	; 255
     41c:	8f 5f       	subi	r24, 0xFF	; 255
     41e:	e8 2f       	mov	r30, r24
     420:	f0 e0       	ldi	r31, 0x00	; 0
     422:	ed 50       	subi	r30, 0x0D	; 13
     424:	ff 4f       	sbci	r31, 0xFF	; 255
     426:	90 81       	ld	r25, Z
     428:	9c 32       	cpi	r25, 0x2C	; 44
     42a:	91 f7       	brne	.-28     	; 0x410 <get_gpstime+0x8>
     42c:	0e 94 d5 01 	call	0x3aa	; 0x3aa <convert_time_to_UTC>
     430:	78 94       	sei
     432:	08 95       	ret

00000434 <convert_to_degrees>:
     434:	8f 92       	push	r8
     436:	9f 92       	push	r9
     438:	af 92       	push	r10
     43a:	bf 92       	push	r11
     43c:	cf 92       	push	r12
     43e:	df 92       	push	r13
     440:	ef 92       	push	r14
     442:	ff 92       	push	r15
     444:	0f 93       	push	r16
     446:	1f 93       	push	r17
     448:	0e 94 ab 09 	call	0x1356	; 0x1356 <atof>
     44c:	20 e0       	ldi	r18, 0x00	; 0
     44e:	30 e0       	ldi	r19, 0x00	; 0
     450:	48 ec       	ldi	r20, 0xC8	; 200
     452:	52 e4       	ldi	r21, 0x42	; 66
     454:	0e 94 9d 07 	call	0xf3a	; 0xf3a <__divsf3>
     458:	6b 01       	movw	r12, r22
     45a:	7c 01       	movw	r14, r24
     45c:	0e 94 0f 08 	call	0x101e	; 0x101e <__fixsfsi>
     460:	07 2e       	mov	r0, r23
     462:	00 0c       	add	r0, r0
     464:	88 0b       	sbc	r24, r24
     466:	99 0b       	sbc	r25, r25
     468:	0e 94 47 08 	call	0x108e	; 0x108e <__floatsisf>
     46c:	4b 01       	movw	r8, r22
     46e:	5c 01       	movw	r10, r24
     470:	9b 01       	movw	r18, r22
     472:	ac 01       	movw	r20, r24
     474:	c7 01       	movw	r24, r14
     476:	b6 01       	movw	r22, r12
     478:	0e 94 2b 07 	call	0xe56	; 0xe56 <__subsf3>
     47c:	2a e9       	ldi	r18, 0x9A	; 154
     47e:	39 e9       	ldi	r19, 0x99	; 153
     480:	49 e1       	ldi	r20, 0x19	; 25
     482:	5f e3       	ldi	r21, 0x3F	; 63
     484:	0e 94 9d 07 	call	0xf3a	; 0xf3a <__divsf3>
     488:	9b 01       	movw	r18, r22
     48a:	ac 01       	movw	r20, r24
     48c:	c5 01       	movw	r24, r10
     48e:	b4 01       	movw	r22, r8
     490:	0e 94 2c 07 	call	0xe58	; 0xe58 <__addsf3>
     494:	05 e9       	ldi	r16, 0x95	; 149
     496:	11 e0       	ldi	r17, 0x01	; 1
     498:	24 e0       	ldi	r18, 0x04	; 4
     49a:	46 e0       	ldi	r20, 0x06	; 6
     49c:	0e 94 8b 09 	call	0x1316	; 0x1316 <dtostrf>
     4a0:	1f 91       	pop	r17
     4a2:	0f 91       	pop	r16
     4a4:	ff 90       	pop	r15
     4a6:	ef 90       	pop	r14
     4a8:	df 90       	pop	r13
     4aa:	cf 90       	pop	r12
     4ac:	bf 90       	pop	r11
     4ae:	af 90       	pop	r10
     4b0:	9f 90       	pop	r9
     4b2:	8f 90       	pop	r8
     4b4:	08 95       	ret

000004b6 <get_latitude>:
     4b6:	f8 94       	cli
     4b8:	8f 5f       	subi	r24, 0xFF	; 255
     4ba:	90 e0       	ldi	r25, 0x00	; 0
     4bc:	07 c0       	rjmp	.+14     	; 0x4cc <get_latitude+0x16>
     4be:	e9 2f       	mov	r30, r25
     4c0:	f0 e0       	ldi	r31, 0x00	; 0
     4c2:	eb 51       	subi	r30, 0x1B	; 27
     4c4:	fe 4f       	sbci	r31, 0xFE	; 254
     4c6:	20 83       	st	Z, r18
     4c8:	9f 5f       	subi	r25, 0xFF	; 255
     4ca:	8f 5f       	subi	r24, 0xFF	; 255
     4cc:	e8 2f       	mov	r30, r24
     4ce:	f0 e0       	ldi	r31, 0x00	; 0
     4d0:	ed 50       	subi	r30, 0x0D	; 13
     4d2:	ff 4f       	sbci	r31, 0xFF	; 255
     4d4:	20 81       	ld	r18, Z
     4d6:	2c 32       	cpi	r18, 0x2C	; 44
     4d8:	91 f7       	brne	.-28     	; 0x4be <get_latitude+0x8>
     4da:	31 e0       	ldi	r19, 0x01	; 1
     4dc:	39 0f       	add	r19, r25
     4de:	e9 2f       	mov	r30, r25
     4e0:	f0 e0       	ldi	r31, 0x00	; 0
     4e2:	8f 5f       	subi	r24, 0xFF	; 255
     4e4:	eb 51       	subi	r30, 0x1B	; 27
     4e6:	fe 4f       	sbci	r31, 0xFE	; 254
     4e8:	20 83       	st	Z, r18
     4ea:	23 2f       	mov	r18, r19
     4ec:	30 e0       	ldi	r19, 0x00	; 0
     4ee:	e8 2f       	mov	r30, r24
     4f0:	f0 e0       	ldi	r31, 0x00	; 0
     4f2:	ed 50       	subi	r30, 0x0D	; 13
     4f4:	ff 4f       	sbci	r31, 0xFF	; 255
     4f6:	80 81       	ld	r24, Z
     4f8:	f9 01       	movw	r30, r18
     4fa:	eb 51       	subi	r30, 0x1B	; 27
     4fc:	fe 4f       	sbci	r31, 0xFE	; 254
     4fe:	80 83       	st	Z, r24
     500:	85 ee       	ldi	r24, 0xE5	; 229
     502:	91 e0       	ldi	r25, 0x01	; 1
     504:	0e 94 1a 02 	call	0x434	; 0x434 <convert_to_degrees>
     508:	78 94       	sei
     50a:	08 95       	ret

0000050c <get_longitude>:
     50c:	f8 94       	cli
     50e:	8f 5f       	subi	r24, 0xFF	; 255
     510:	90 e0       	ldi	r25, 0x00	; 0
     512:	07 c0       	rjmp	.+14     	; 0x522 <get_longitude+0x16>
     514:	e9 2f       	mov	r30, r25
     516:	f0 e0       	ldi	r31, 0x00	; 0
     518:	e7 55       	subi	r30, 0x57	; 87
     51a:	fe 4f       	sbci	r31, 0xFE	; 254
     51c:	20 83       	st	Z, r18
     51e:	9f 5f       	subi	r25, 0xFF	; 255
     520:	8f 5f       	subi	r24, 0xFF	; 255
     522:	e8 2f       	mov	r30, r24
     524:	f0 e0       	ldi	r31, 0x00	; 0
     526:	ed 50       	subi	r30, 0x0D	; 13
     528:	ff 4f       	sbci	r31, 0xFF	; 255
     52a:	20 81       	ld	r18, Z
     52c:	2c 32       	cpi	r18, 0x2C	; 44
     52e:	91 f7       	brne	.-28     	; 0x514 <get_longitude+0x8>
     530:	31 e0       	ldi	r19, 0x01	; 1
     532:	39 0f       	add	r19, r25
     534:	e9 2f       	mov	r30, r25
     536:	f0 e0       	ldi	r31, 0x00	; 0
     538:	8f 5f       	subi	r24, 0xFF	; 255
     53a:	e7 55       	subi	r30, 0x57	; 87
     53c:	fe 4f       	sbci	r31, 0xFE	; 254
     53e:	20 83       	st	Z, r18
     540:	23 2f       	mov	r18, r19
     542:	30 e0       	ldi	r19, 0x00	; 0
     544:	e8 2f       	mov	r30, r24
     546:	f0 e0       	ldi	r31, 0x00	; 0
     548:	ed 50       	subi	r30, 0x0D	; 13
     54a:	ff 4f       	sbci	r31, 0xFF	; 255
     54c:	80 81       	ld	r24, Z
     54e:	f9 01       	movw	r30, r18
     550:	e7 55       	subi	r30, 0x57	; 87
     552:	fe 4f       	sbci	r31, 0xFE	; 254
     554:	80 83       	st	Z, r24
     556:	89 ea       	ldi	r24, 0xA9	; 169
     558:	91 e0       	ldi	r25, 0x01	; 1
     55a:	0e 94 1a 02 	call	0x434	; 0x434 <convert_to_degrees>
     55e:	78 94       	sei
     560:	08 95       	ret

00000562 <__vector_13>:
     562:	1f 92       	push	r1
     564:	0f 92       	push	r0
     566:	0f b6       	in	r0, 0x3f	; 63
     568:	0f 92       	push	r0
     56a:	11 24       	eor	r1, r1
     56c:	2f 93       	push	r18
     56e:	3f 93       	push	r19
     570:	4f 93       	push	r20
     572:	5f 93       	push	r21
     574:	8f 93       	push	r24
     576:	9f 93       	push	r25
     578:	ef 93       	push	r30
     57a:	ff 93       	push	r31
     57c:	9f b7       	in	r25, 0x3f	; 63
     57e:	f8 94       	cli
     580:	8c b1       	in	r24, 0x0c	; 12
     582:	84 32       	cpi	r24, 0x24	; 36
     584:	59 f4       	brne	.+22     	; 0x59c <__vector_13+0x3a>
     586:	10 92 d2 01 	sts	0x01D2, r1	; 0x8001d2 <GGA_Index+0x1>
     58a:	10 92 d1 01 	sts	0x01D1, r1	; 0x8001d1 <GGA_Index>
     58e:	10 92 d0 01 	sts	0x01D0, r1	; 0x8001d0 <CommaCounter+0x1>
     592:	10 92 cf 01 	sts	0x01CF, r1	; 0x8001cf <CommaCounter>
     596:	10 92 ee 00 	sts	0x00EE, r1	; 0x8000ee <__data_end>
     59a:	45 c0       	rjmp	.+138    	; 0x626 <__vector_13+0xc4>
     59c:	20 91 ee 00 	lds	r18, 0x00EE	; 0x8000ee <__data_end>
     5a0:	22 23       	and	r18, r18
     5a2:	29 f1       	breq	.+74     	; 0x5ee <__vector_13+0x8c>
     5a4:	8c 32       	cpi	r24, 0x2C	; 44
     5a6:	99 f4       	brne	.+38     	; 0x5ce <__vector_13+0x6c>
     5a8:	20 91 cf 01 	lds	r18, 0x01CF	; 0x8001cf <CommaCounter>
     5ac:	30 91 d0 01 	lds	r19, 0x01D0	; 0x8001d0 <CommaCounter+0x1>
     5b0:	a9 01       	movw	r20, r18
     5b2:	4f 5f       	subi	r20, 0xFF	; 255
     5b4:	5f 4f       	sbci	r21, 0xFF	; 255
     5b6:	50 93 d0 01 	sts	0x01D0, r21	; 0x8001d0 <CommaCounter+0x1>
     5ba:	40 93 cf 01 	sts	0x01CF, r20	; 0x8001cf <CommaCounter>
     5be:	40 91 d1 01 	lds	r20, 0x01D1	; 0x8001d1 <GGA_Index>
     5c2:	50 91 d2 01 	lds	r21, 0x01D2	; 0x8001d2 <GGA_Index+0x1>
     5c6:	f9 01       	movw	r30, r18
     5c8:	e9 5f       	subi	r30, 0xF9	; 249
     5ca:	fd 4f       	sbci	r31, 0xFD	; 253
     5cc:	40 83       	st	Z, r20
     5ce:	20 91 d1 01 	lds	r18, 0x01D1	; 0x8001d1 <GGA_Index>
     5d2:	30 91 d2 01 	lds	r19, 0x01D2	; 0x8001d2 <GGA_Index+0x1>
     5d6:	a9 01       	movw	r20, r18
     5d8:	4f 5f       	subi	r20, 0xFF	; 255
     5da:	5f 4f       	sbci	r21, 0xFF	; 255
     5dc:	50 93 d2 01 	sts	0x01D2, r21	; 0x8001d2 <GGA_Index+0x1>
     5e0:	40 93 d1 01 	sts	0x01D1, r20	; 0x8001d1 <GGA_Index>
     5e4:	f9 01       	movw	r30, r18
     5e6:	ed 50       	subi	r30, 0x0D	; 13
     5e8:	ff 4f       	sbci	r31, 0xFF	; 255
     5ea:	80 83       	st	Z, r24
     5ec:	1c c0       	rjmp	.+56     	; 0x626 <__vector_13+0xc4>
     5ee:	20 91 e2 01 	lds	r18, 0x01E2	; 0x8001e2 <GGA_CODE>
     5f2:	27 34       	cpi	r18, 0x47	; 71
     5f4:	89 f4       	brne	.+34     	; 0x618 <__vector_13+0xb6>
     5f6:	20 91 e3 01 	lds	r18, 0x01E3	; 0x8001e3 <GGA_CODE+0x1>
     5fa:	27 34       	cpi	r18, 0x47	; 71
     5fc:	69 f4       	brne	.+26     	; 0x618 <__vector_13+0xb6>
     5fe:	20 91 e4 01 	lds	r18, 0x01E4	; 0x8001e4 <GGA_CODE+0x2>
     602:	21 34       	cpi	r18, 0x41	; 65
     604:	49 f4       	brne	.+18     	; 0x618 <__vector_13+0xb6>
     606:	81 e0       	ldi	r24, 0x01	; 1
     608:	80 93 ee 00 	sts	0x00EE, r24	; 0x8000ee <__data_end>
     60c:	e2 ee       	ldi	r30, 0xE2	; 226
     60e:	f1 e0       	ldi	r31, 0x01	; 1
     610:	10 82       	st	Z, r1
     612:	11 82       	std	Z+1, r1	; 0x01
     614:	12 82       	std	Z+2, r1	; 0x02
     616:	07 c0       	rjmp	.+14     	; 0x626 <__vector_13+0xc4>
     618:	e2 ee       	ldi	r30, 0xE2	; 226
     61a:	f1 e0       	ldi	r31, 0x01	; 1
     61c:	21 81       	ldd	r18, Z+1	; 0x01
     61e:	20 83       	st	Z, r18
     620:	22 81       	ldd	r18, Z+2	; 0x02
     622:	21 83       	std	Z+1, r18	; 0x01
     624:	82 83       	std	Z+2, r24	; 0x02
     626:	9f bf       	out	0x3f, r25	; 63
     628:	ff 91       	pop	r31
     62a:	ef 91       	pop	r30
     62c:	9f 91       	pop	r25
     62e:	8f 91       	pop	r24
     630:	5f 91       	pop	r21
     632:	4f 91       	pop	r20
     634:	3f 91       	pop	r19
     636:	2f 91       	pop	r18
     638:	0f 90       	pop	r0
     63a:	0f be       	out	0x3f, r0	; 63
     63c:	0f 90       	pop	r0
     63e:	1f 90       	pop	r1
     640:	18 95       	reti

00000642 <MPU6050_Init>:
     642:	2f e7       	ldi	r18, 0x7F	; 127
     644:	89 ea       	ldi	r24, 0xA9	; 169
     646:	93 e0       	ldi	r25, 0x03	; 3
     648:	21 50       	subi	r18, 0x01	; 1
     64a:	80 40       	sbci	r24, 0x00	; 0
     64c:	90 40       	sbci	r25, 0x00	; 0
     64e:	e1 f7       	brne	.-8      	; 0x648 <MPU6050_Init+0x6>
     650:	00 c0       	rjmp	.+0      	; 0x652 <MPU6050_Init+0x10>
     652:	00 00       	nop
     654:	80 ed       	ldi	r24, 0xD0	; 208
     656:	0e 94 0b 01 	call	0x216	; 0x216 <I2C_Start_Wait>
     65a:	89 e1       	ldi	r24, 0x19	; 25
     65c:	0e 94 25 01 	call	0x24a	; 0x24a <I2C_Write>
     660:	87 e0       	ldi	r24, 0x07	; 7
     662:	0e 94 25 01 	call	0x24a	; 0x24a <I2C_Write>
     666:	0e 94 05 01 	call	0x20a	; 0x20a <I2C_Stop>
     66a:	80 ed       	ldi	r24, 0xD0	; 208
     66c:	0e 94 0b 01 	call	0x216	; 0x216 <I2C_Start_Wait>
     670:	8b e6       	ldi	r24, 0x6B	; 107
     672:	0e 94 25 01 	call	0x24a	; 0x24a <I2C_Write>
     676:	81 e0       	ldi	r24, 0x01	; 1
     678:	0e 94 25 01 	call	0x24a	; 0x24a <I2C_Write>
     67c:	0e 94 05 01 	call	0x20a	; 0x20a <I2C_Stop>
     680:	80 ed       	ldi	r24, 0xD0	; 208
     682:	0e 94 0b 01 	call	0x216	; 0x216 <I2C_Start_Wait>
     686:	8a e1       	ldi	r24, 0x1A	; 26
     688:	0e 94 25 01 	call	0x24a	; 0x24a <I2C_Write>
     68c:	80 e0       	ldi	r24, 0x00	; 0
     68e:	0e 94 25 01 	call	0x24a	; 0x24a <I2C_Write>
     692:	0e 94 05 01 	call	0x20a	; 0x20a <I2C_Stop>
     696:	80 ed       	ldi	r24, 0xD0	; 208
     698:	0e 94 0b 01 	call	0x216	; 0x216 <I2C_Start_Wait>
     69c:	8b e1       	ldi	r24, 0x1B	; 27
     69e:	0e 94 25 01 	call	0x24a	; 0x24a <I2C_Write>
     6a2:	88 e1       	ldi	r24, 0x18	; 24
     6a4:	0e 94 25 01 	call	0x24a	; 0x24a <I2C_Write>
     6a8:	0e 94 05 01 	call	0x20a	; 0x20a <I2C_Stop>
     6ac:	80 ed       	ldi	r24, 0xD0	; 208
     6ae:	0e 94 0b 01 	call	0x216	; 0x216 <I2C_Start_Wait>
     6b2:	88 e3       	ldi	r24, 0x38	; 56
     6b4:	0e 94 25 01 	call	0x24a	; 0x24a <I2C_Write>
     6b8:	81 e0       	ldi	r24, 0x01	; 1
     6ba:	0e 94 25 01 	call	0x24a	; 0x24a <I2C_Write>
     6be:	0e 94 05 01 	call	0x20a	; 0x20a <I2C_Stop>
     6c2:	08 95       	ret

000006c4 <MPU_Start_Loc>:
     6c4:	80 ed       	ldi	r24, 0xD0	; 208
     6c6:	0e 94 0b 01 	call	0x216	; 0x216 <I2C_Start_Wait>
     6ca:	8b e3       	ldi	r24, 0x3B	; 59
     6cc:	0e 94 25 01 	call	0x24a	; 0x24a <I2C_Write>
     6d0:	81 ed       	ldi	r24, 0xD1	; 209
     6d2:	0e 94 e8 00 	call	0x1d0	; 0x1d0 <I2C_Repeated_Start>
     6d6:	08 95       	ret

000006d8 <Read_RawValue>:
     6d8:	cf 93       	push	r28
     6da:	df 93       	push	r29
     6dc:	0e 94 62 03 	call	0x6c4	; 0x6c4 <MPU_Start_Loc>
     6e0:	0e 94 37 01 	call	0x26e	; 0x26e <I2C_Read_Ack>
     6e4:	c8 2f       	mov	r28, r24
     6e6:	d0 e0       	ldi	r29, 0x00	; 0
     6e8:	dc 2f       	mov	r29, r28
     6ea:	cc 27       	eor	r28, r28
     6ec:	0e 94 37 01 	call	0x26e	; 0x26e <I2C_Read_Ack>
     6f0:	be 01       	movw	r22, r28
     6f2:	68 2b       	or	r22, r24
     6f4:	07 2e       	mov	r0, r23
     6f6:	00 0c       	add	r0, r0
     6f8:	88 0b       	sbc	r24, r24
     6fa:	99 0b       	sbc	r25, r25
     6fc:	0e 94 47 08 	call	0x108e	; 0x108e <__floatsisf>
     700:	60 93 cb 01 	sts	0x01CB, r22	; 0x8001cb <Acc_x>
     704:	70 93 cc 01 	sts	0x01CC, r23	; 0x8001cc <Acc_x+0x1>
     708:	80 93 cd 01 	sts	0x01CD, r24	; 0x8001cd <Acc_x+0x2>
     70c:	90 93 ce 01 	sts	0x01CE, r25	; 0x8001ce <Acc_x+0x3>
     710:	0e 94 37 01 	call	0x26e	; 0x26e <I2C_Read_Ack>
     714:	c8 2f       	mov	r28, r24
     716:	d0 e0       	ldi	r29, 0x00	; 0
     718:	dc 2f       	mov	r29, r28
     71a:	cc 27       	eor	r28, r28
     71c:	0e 94 37 01 	call	0x26e	; 0x26e <I2C_Read_Ack>
     720:	be 01       	movw	r22, r28
     722:	68 2b       	or	r22, r24
     724:	07 2e       	mov	r0, r23
     726:	00 0c       	add	r0, r0
     728:	88 0b       	sbc	r24, r24
     72a:	99 0b       	sbc	r25, r25
     72c:	0e 94 47 08 	call	0x108e	; 0x108e <__floatsisf>
     730:	60 93 91 01 	sts	0x0191, r22	; 0x800191 <Acc_y>
     734:	70 93 92 01 	sts	0x0192, r23	; 0x800192 <Acc_y+0x1>
     738:	80 93 93 01 	sts	0x0193, r24	; 0x800193 <Acc_y+0x2>
     73c:	90 93 94 01 	sts	0x0194, r25	; 0x800194 <Acc_y+0x3>
     740:	0e 94 37 01 	call	0x26e	; 0x26e <I2C_Read_Ack>
     744:	c8 2f       	mov	r28, r24
     746:	d0 e0       	ldi	r29, 0x00	; 0
     748:	dc 2f       	mov	r29, r28
     74a:	cc 27       	eor	r28, r28
     74c:	0e 94 37 01 	call	0x26e	; 0x26e <I2C_Read_Ack>
     750:	be 01       	movw	r22, r28
     752:	68 2b       	or	r22, r24
     754:	07 2e       	mov	r0, r23
     756:	00 0c       	add	r0, r0
     758:	88 0b       	sbc	r24, r24
     75a:	99 0b       	sbc	r25, r25
     75c:	0e 94 47 08 	call	0x108e	; 0x108e <__floatsisf>
     760:	60 93 ef 00 	sts	0x00EF, r22	; 0x8000ef <Acc_z>
     764:	70 93 f0 00 	sts	0x00F0, r23	; 0x8000f0 <Acc_z+0x1>
     768:	80 93 f1 00 	sts	0x00F1, r24	; 0x8000f1 <Acc_z+0x2>
     76c:	90 93 f2 00 	sts	0x00F2, r25	; 0x8000f2 <Acc_z+0x3>
     770:	0e 94 37 01 	call	0x26e	; 0x26e <I2C_Read_Ack>
     774:	c8 2f       	mov	r28, r24
     776:	d0 e0       	ldi	r29, 0x00	; 0
     778:	dc 2f       	mov	r29, r28
     77a:	cc 27       	eor	r28, r28
     77c:	0e 94 37 01 	call	0x26e	; 0x26e <I2C_Read_Ack>
     780:	be 01       	movw	r22, r28
     782:	68 2b       	or	r22, r24
     784:	07 2e       	mov	r0, r23
     786:	00 0c       	add	r0, r0
     788:	88 0b       	sbc	r24, r24
     78a:	99 0b       	sbc	r25, r25
     78c:	0e 94 47 08 	call	0x108e	; 0x108e <__floatsisf>
     790:	60 93 8d 01 	sts	0x018D, r22	; 0x80018d <Temperature>
     794:	70 93 8e 01 	sts	0x018E, r23	; 0x80018e <Temperature+0x1>
     798:	80 93 8f 01 	sts	0x018F, r24	; 0x80018f <Temperature+0x2>
     79c:	90 93 90 01 	sts	0x0190, r25	; 0x800190 <Temperature+0x3>
     7a0:	0e 94 37 01 	call	0x26e	; 0x26e <I2C_Read_Ack>
     7a4:	c8 2f       	mov	r28, r24
     7a6:	d0 e0       	ldi	r29, 0x00	; 0
     7a8:	dc 2f       	mov	r29, r28
     7aa:	cc 27       	eor	r28, r28
     7ac:	0e 94 37 01 	call	0x26e	; 0x26e <I2C_Read_Ack>
     7b0:	be 01       	movw	r22, r28
     7b2:	68 2b       	or	r22, r24
     7b4:	07 2e       	mov	r0, r23
     7b6:	00 0c       	add	r0, r0
     7b8:	88 0b       	sbc	r24, r24
     7ba:	99 0b       	sbc	r25, r25
     7bc:	0e 94 47 08 	call	0x108e	; 0x108e <__floatsisf>
     7c0:	60 93 89 01 	sts	0x0189, r22	; 0x800189 <Gyro_x>
     7c4:	70 93 8a 01 	sts	0x018A, r23	; 0x80018a <Gyro_x+0x1>
     7c8:	80 93 8b 01 	sts	0x018B, r24	; 0x80018b <Gyro_x+0x2>
     7cc:	90 93 8c 01 	sts	0x018C, r25	; 0x80018c <Gyro_x+0x3>
     7d0:	0e 94 37 01 	call	0x26e	; 0x26e <I2C_Read_Ack>
     7d4:	c8 2f       	mov	r28, r24
     7d6:	d0 e0       	ldi	r29, 0x00	; 0
     7d8:	dc 2f       	mov	r29, r28
     7da:	cc 27       	eor	r28, r28
     7dc:	0e 94 37 01 	call	0x26e	; 0x26e <I2C_Read_Ack>
     7e0:	be 01       	movw	r22, r28
     7e2:	68 2b       	or	r22, r24
     7e4:	07 2e       	mov	r0, r23
     7e6:	00 0c       	add	r0, r0
     7e8:	88 0b       	sbc	r24, r24
     7ea:	99 0b       	sbc	r25, r25
     7ec:	0e 94 47 08 	call	0x108e	; 0x108e <__floatsisf>
     7f0:	60 93 03 02 	sts	0x0203, r22	; 0x800203 <Gyro_y>
     7f4:	70 93 04 02 	sts	0x0204, r23	; 0x800204 <Gyro_y+0x1>
     7f8:	80 93 05 02 	sts	0x0205, r24	; 0x800205 <Gyro_y+0x2>
     7fc:	90 93 06 02 	sts	0x0206, r25	; 0x800206 <Gyro_y+0x3>
     800:	0e 94 37 01 	call	0x26e	; 0x26e <I2C_Read_Ack>
     804:	c8 2f       	mov	r28, r24
     806:	d0 e0       	ldi	r29, 0x00	; 0
     808:	dc 2f       	mov	r29, r28
     80a:	cc 27       	eor	r28, r28
     80c:	0e 94 3e 01 	call	0x27c	; 0x27c <I2C_Read_Nack>
     810:	be 01       	movw	r22, r28
     812:	68 2b       	or	r22, r24
     814:	07 2e       	mov	r0, r23
     816:	00 0c       	add	r0, r0
     818:	88 0b       	sbc	r24, r24
     81a:	99 0b       	sbc	r25, r25
     81c:	0e 94 47 08 	call	0x108e	; 0x108e <__floatsisf>
     820:	60 93 c7 01 	sts	0x01C7, r22	; 0x8001c7 <Gyro_z>
     824:	70 93 c8 01 	sts	0x01C8, r23	; 0x8001c8 <Gyro_z+0x1>
     828:	80 93 c9 01 	sts	0x01C9, r24	; 0x8001c9 <Gyro_z+0x2>
     82c:	90 93 ca 01 	sts	0x01CA, r25	; 0x8001ca <Gyro_z+0x3>
     830:	0e 94 05 01 	call	0x20a	; 0x20a <I2C_Stop>
     834:	df 91       	pop	r29
     836:	cf 91       	pop	r28
     838:	08 95       	ret

0000083a <isDriverSleepingGyro>:
     83a:	4f 92       	push	r4
     83c:	5f 92       	push	r5
     83e:	6f 92       	push	r6
     840:	7f 92       	push	r7
     842:	8f 92       	push	r8
     844:	9f 92       	push	r9
     846:	af 92       	push	r10
     848:	bf 92       	push	r11
     84a:	cf 92       	push	r12
     84c:	df 92       	push	r13
     84e:	ef 92       	push	r14
     850:	ff 92       	push	r15
     852:	0f 93       	push	r16
     854:	1f 93       	push	r17
     856:	4b 01       	movw	r8, r22
     858:	5c 01       	movw	r10, r24
     85a:	29 01       	movw	r4, r18
     85c:	3a 01       	movw	r6, r20
     85e:	67 01       	movw	r12, r14
     860:	78 01       	movw	r14, r16
     862:	20 e0       	ldi	r18, 0x00	; 0
     864:	30 e0       	ldi	r19, 0x00	; 0
     866:	40 e0       	ldi	r20, 0x00	; 0
     868:	50 ec       	ldi	r21, 0xC0	; 192
     86a:	c7 01       	movw	r24, r14
     86c:	b6 01       	movw	r22, r12
     86e:	0e 94 f7 08 	call	0x11ee	; 0x11ee <__gesf2>
     872:	18 16       	cp	r1, r24
     874:	ac f5       	brge	.+106    	; 0x8e0 <__stack+0x81>
     876:	20 e0       	ldi	r18, 0x00	; 0
     878:	30 e0       	ldi	r19, 0x00	; 0
     87a:	40 e0       	ldi	r20, 0x00	; 0
     87c:	50 e4       	ldi	r21, 0x40	; 64
     87e:	c7 01       	movw	r24, r14
     880:	b6 01       	movw	r22, r12
     882:	0e 94 98 07 	call	0xf30	; 0xf30 <__cmpsf2>
     886:	88 23       	and	r24, r24
     888:	74 f5       	brge	.+92     	; 0x8e6 <__stack+0x87>
     88a:	20 e0       	ldi	r18, 0x00	; 0
     88c:	30 e0       	ldi	r19, 0x00	; 0
     88e:	40 e4       	ldi	r20, 0x40	; 64
     890:	50 ec       	ldi	r21, 0xC0	; 192
     892:	c5 01       	movw	r24, r10
     894:	b4 01       	movw	r22, r8
     896:	0e 94 f7 08 	call	0x11ee	; 0x11ee <__gesf2>
     89a:	18 16       	cp	r1, r24
     89c:	3c f5       	brge	.+78     	; 0x8ec <__stack+0x8d>
     89e:	20 e0       	ldi	r18, 0x00	; 0
     8a0:	30 e0       	ldi	r19, 0x00	; 0
     8a2:	40 e4       	ldi	r20, 0x40	; 64
     8a4:	50 e4       	ldi	r21, 0x40	; 64
     8a6:	c5 01       	movw	r24, r10
     8a8:	b4 01       	movw	r22, r8
     8aa:	0e 94 98 07 	call	0xf30	; 0xf30 <__cmpsf2>
     8ae:	88 23       	and	r24, r24
     8b0:	04 f5       	brge	.+64     	; 0x8f2 <__stack+0x93>
     8b2:	20 e0       	ldi	r18, 0x00	; 0
     8b4:	30 e0       	ldi	r19, 0x00	; 0
     8b6:	40 e0       	ldi	r20, 0x00	; 0
     8b8:	51 e4       	ldi	r21, 0x41	; 65
     8ba:	c3 01       	movw	r24, r6
     8bc:	b2 01       	movw	r22, r4
     8be:	0e 94 f7 08 	call	0x11ee	; 0x11ee <__gesf2>
     8c2:	88 23       	and	r24, r24
     8c4:	cc f0       	brlt	.+50     	; 0x8f8 <__stack+0x99>
     8c6:	20 e0       	ldi	r18, 0x00	; 0
     8c8:	30 e0       	ldi	r19, 0x00	; 0
     8ca:	40 e1       	ldi	r20, 0x10	; 16
     8cc:	51 e4       	ldi	r21, 0x41	; 65
     8ce:	c3 01       	movw	r24, r6
     8d0:	b2 01       	movw	r22, r4
     8d2:	0e 94 98 07 	call	0xf30	; 0xf30 <__cmpsf2>
     8d6:	18 16       	cp	r1, r24
     8d8:	94 f4       	brge	.+36     	; 0x8fe <__stack+0x9f>
     8da:	81 e0       	ldi	r24, 0x01	; 1
     8dc:	90 e0       	ldi	r25, 0x00	; 0
     8de:	11 c0       	rjmp	.+34     	; 0x902 <__stack+0xa3>
     8e0:	81 e0       	ldi	r24, 0x01	; 1
     8e2:	90 e0       	ldi	r25, 0x00	; 0
     8e4:	0e c0       	rjmp	.+28     	; 0x902 <__stack+0xa3>
     8e6:	81 e0       	ldi	r24, 0x01	; 1
     8e8:	90 e0       	ldi	r25, 0x00	; 0
     8ea:	0b c0       	rjmp	.+22     	; 0x902 <__stack+0xa3>
     8ec:	81 e0       	ldi	r24, 0x01	; 1
     8ee:	90 e0       	ldi	r25, 0x00	; 0
     8f0:	08 c0       	rjmp	.+16     	; 0x902 <__stack+0xa3>
     8f2:	81 e0       	ldi	r24, 0x01	; 1
     8f4:	90 e0       	ldi	r25, 0x00	; 0
     8f6:	05 c0       	rjmp	.+10     	; 0x902 <__stack+0xa3>
     8f8:	81 e0       	ldi	r24, 0x01	; 1
     8fa:	90 e0       	ldi	r25, 0x00	; 0
     8fc:	02 c0       	rjmp	.+4      	; 0x902 <__stack+0xa3>
     8fe:	80 e0       	ldi	r24, 0x00	; 0
     900:	90 e0       	ldi	r25, 0x00	; 0
     902:	1f 91       	pop	r17
     904:	0f 91       	pop	r16
     906:	ff 90       	pop	r15
     908:	ef 90       	pop	r14
     90a:	df 90       	pop	r13
     90c:	cf 90       	pop	r12
     90e:	bf 90       	pop	r11
     910:	af 90       	pop	r10
     912:	9f 90       	pop	r9
     914:	8f 90       	pop	r8
     916:	7f 90       	pop	r7
     918:	6f 90       	pop	r6
     91a:	5f 90       	pop	r5
     91c:	4f 90       	pop	r4
     91e:	08 95       	ret

00000920 <PWM_init>:
     920:	89 e6       	ldi	r24, 0x69	; 105
     922:	83 bf       	out	0x33, r24	; 51
     924:	87 b3       	in	r24, 0x17	; 23
     926:	88 60       	ori	r24, 0x08	; 8
     928:	87 bb       	out	0x17, r24	; 23
     92a:	08 95       	ret

0000092c <USART_initialize>:
     92c:	8a b1       	in	r24, 0x0a	; 10
     92e:	88 61       	ori	r24, 0x18	; 24
     930:	8a b9       	out	0x0a, r24	; 10
     932:	80 b5       	in	r24, 0x20	; 32
     934:	86 68       	ori	r24, 0x86	; 134
     936:	80 bd       	out	0x20, r24	; 32
     938:	83 e3       	ldi	r24, 0x33	; 51
     93a:	89 b9       	out	0x09, r24	; 9
     93c:	10 bc       	out	0x20, r1	; 32
     93e:	08 95       	ret

00000940 <USART_transmit>:
     940:	5d 9b       	sbis	0x0b, 5	; 11
     942:	fe cf       	rjmp	.-4      	; 0x940 <USART_transmit>
     944:	8c b9       	out	0x0c, r24	; 12
     946:	08 95       	ret

00000948 <sendMessage>:

void sendMessage(char *msg, char *longtitude, char *latitude)
{
     948:	ef 92       	push	r14
     94a:	ff 92       	push	r15
     94c:	0f 93       	push	r16
     94e:	1f 93       	push	r17
     950:	cf 93       	push	r28
     952:	df 93       	push	r29
     954:	cd b7       	in	r28, 0x3d	; 61
     956:	de b7       	in	r29, 0x3e	; 62
     958:	a3 97       	sbiw	r28, 0x23	; 35
     95a:	0f b6       	in	r0, 0x3f	; 63
     95c:	f8 94       	cli
     95e:	de bf       	out	0x3e, r29	; 62
     960:	0f be       	out	0x3f, r0	; 63
     962:	cd bf       	out	0x3d, r28	; 61
     964:	7c 01       	movw	r14, r24
	PORTD=0x04; // change mux selector line to GSM Module's TXD
     966:	84 e0       	ldi	r24, 0x04	; 4
     968:	82 bb       	out	0x12, r24	; 18
	unsigned char cmd_1[4]="AT";
     96a:	81 e4       	ldi	r24, 0x41	; 65
     96c:	94 e5       	ldi	r25, 0x54	; 84
     96e:	9a 83       	std	Y+2, r25	; 0x02
     970:	89 83       	std	Y+1, r24	; 0x01
     972:	1c 82       	std	Y+4, r1	; 0x04
     974:	1b 82       	std	Y+3, r1	; 0x03
	unsigned char cmd_2[10]="AT+CMGF=1";
     976:	8a e0       	ldi	r24, 0x0A	; 10
     978:	e4 e9       	ldi	r30, 0x94	; 148
     97a:	f0 e0       	ldi	r31, 0x00	; 0
     97c:	de 01       	movw	r26, r28
     97e:	15 96       	adiw	r26, 0x05	; 5
     980:	01 90       	ld	r0, Z+
     982:	0d 92       	st	X+, r0
     984:	8a 95       	dec	r24
     986:	e1 f7       	brne	.-8      	; 0x980 <sendMessage+0x38>
	unsigned char cmd_3[10]="AT+CMGS=";
     988:	89 e0       	ldi	r24, 0x09	; 9
     98a:	e0 e6       	ldi	r30, 0x60	; 96
     98c:	f0 e0       	ldi	r31, 0x00	; 0
     98e:	de 01       	movw	r26, r28
     990:	1f 96       	adiw	r26, 0x0f	; 15
     992:	01 90       	ld	r0, Z+
     994:	0d 92       	st	X+, r0
     996:	8a 95       	dec	r24
     998:	e1 f7       	brne	.-8      	; 0x992 <sendMessage+0x4a>
     99a:	18 8e       	std	Y+24, r1	; 0x18
	 char *cmd_4 = msg;
	unsigned char num[11] = "0771234567";
     99c:	8b e0       	ldi	r24, 0x0B	; 11
     99e:	ee e9       	ldi	r30, 0x9E	; 158
     9a0:	f0 e0       	ldi	r31, 0x00	; 0
     9a2:	de 01       	movw	r26, r28
     9a4:	59 96       	adiw	r26, 0x19	; 25
     9a6:	01 90       	ld	r0, Z+
     9a8:	0d 92       	st	X+, r0
     9aa:	8a 95       	dec	r24
     9ac:	e1 f7       	brne	.-8      	; 0x9a6 <sendMessage+0x5e>
	LCD_Clear();
     9ae:	0e 94 b8 01 	call	0x370	; 0x370 <LCD_Clear>
	LCD_String_xy(1,0,"Message:");
     9b2:	43 e7       	ldi	r20, 0x73	; 115
     9b4:	50 e0       	ldi	r21, 0x00	; 0
     9b6:	60 e0       	ldi	r22, 0x00	; 0
     9b8:	81 e0       	ldi	r24, 0x01	; 1
     9ba:	0e 94 a0 01 	call	0x340	; 0x340 <LCD_String_xy>
	LCD_String_xy(2,3,"Forwarding");
     9be:	4c e7       	ldi	r20, 0x7C	; 124
     9c0:	50 e0       	ldi	r21, 0x00	; 0
     9c2:	63 e0       	ldi	r22, 0x03	; 3
     9c4:	82 e0       	ldi	r24, 0x02	; 2
     9c6:	0e 94 a0 01 	call	0x340	; 0x340 <LCD_String_xy>
	#else
		//round up by default
		__ticks_dc = (uint32_t)(ceil(fabs(__tmp)));
	#endif

	__builtin_avr_delay_cycles(__ticks_dc);
     9ca:	2f ef       	ldi	r18, 0xFF	; 255
     9cc:	80 e7       	ldi	r24, 0x70	; 112
     9ce:	92 e0       	ldi	r25, 0x02	; 2
     9d0:	21 50       	subi	r18, 0x01	; 1
     9d2:	80 40       	sbci	r24, 0x00	; 0
     9d4:	90 40       	sbci	r25, 0x00	; 0
     9d6:	e1 f7       	brne	.-8      	; 0x9d0 <sendMessage+0x88>
     9d8:	00 c0       	rjmp	.+0      	; 0x9da <sendMessage+0x92>
     9da:	00 00       	nop
	
	_delay_ms(100);
	
	for (int i=0;cmd_1[i]!='\0';i++) /*checking communication*/
     9dc:	00 e0       	ldi	r16, 0x00	; 0
     9de:	10 e0       	ldi	r17, 0x00	; 0
     9e0:	0d c0       	rjmp	.+26     	; 0x9fc <sendMessage+0xb4>
	{
		USART_transmit(cmd_1[i]);
     9e2:	0e 94 a0 04 	call	0x940	; 0x940 <USART_transmit>
     9e6:	2f ef       	ldi	r18, 0xFF	; 255
     9e8:	80 e7       	ldi	r24, 0x70	; 112
     9ea:	92 e0       	ldi	r25, 0x02	; 2
     9ec:	21 50       	subi	r18, 0x01	; 1
     9ee:	80 40       	sbci	r24, 0x00	; 0
     9f0:	90 40       	sbci	r25, 0x00	; 0
     9f2:	e1 f7       	brne	.-8      	; 0x9ec <sendMessage+0xa4>
     9f4:	00 c0       	rjmp	.+0      	; 0x9f6 <sendMessage+0xae>
     9f6:	00 00       	nop
	LCD_String_xy(1,0,"Message:");
	LCD_String_xy(2,3,"Forwarding");
	
	_delay_ms(100);
	
	for (int i=0;cmd_1[i]!='\0';i++) /*checking communication*/
     9f8:	0f 5f       	subi	r16, 0xFF	; 255
     9fa:	1f 4f       	sbci	r17, 0xFF	; 255
     9fc:	e1 e0       	ldi	r30, 0x01	; 1
     9fe:	f0 e0       	ldi	r31, 0x00	; 0
     a00:	ec 0f       	add	r30, r28
     a02:	fd 1f       	adc	r31, r29
     a04:	e0 0f       	add	r30, r16
     a06:	f1 1f       	adc	r31, r17
     a08:	80 81       	ld	r24, Z
     a0a:	81 11       	cpse	r24, r1
     a0c:	ea cf       	rjmp	.-44     	; 0x9e2 <sendMessage+0x9a>
	{
		USART_transmit(cmd_1[i]);
		_delay_ms(100);
	}
	USART_transmit('\r'); /*carriage return ---> begining from the first line without going to next line*/
     a0e:	8d e0       	ldi	r24, 0x0D	; 13
     a10:	0e 94 a0 04 	call	0x940	; 0x940 <USART_transmit>
     a14:	2f ef       	ldi	r18, 0xFF	; 255
     a16:	81 ee       	ldi	r24, 0xE1	; 225
     a18:	94 e0       	ldi	r25, 0x04	; 4
     a1a:	21 50       	subi	r18, 0x01	; 1
     a1c:	80 40       	sbci	r24, 0x00	; 0
     a1e:	90 40       	sbci	r25, 0x00	; 0
     a20:	e1 f7       	brne	.-8      	; 0xa1a <sendMessage+0xd2>
     a22:	00 c0       	rjmp	.+0      	; 0xa24 <sendMessage+0xdc>
     a24:	00 00       	nop
	_delay_ms(200);
	
	for (int i=0;cmd_2[i]!='\0';i++) /* set the operating mode to SMS text mode*/
     a26:	00 e0       	ldi	r16, 0x00	; 0
     a28:	10 e0       	ldi	r17, 0x00	; 0
     a2a:	0d c0       	rjmp	.+26     	; 0xa46 <sendMessage+0xfe>
	{
		USART_transmit(cmd_2[i]);
     a2c:	0e 94 a0 04 	call	0x940	; 0x940 <USART_transmit>
     a30:	2f ef       	ldi	r18, 0xFF	; 255
     a32:	80 e7       	ldi	r24, 0x70	; 112
     a34:	92 e0       	ldi	r25, 0x02	; 2
     a36:	21 50       	subi	r18, 0x01	; 1
     a38:	80 40       	sbci	r24, 0x00	; 0
     a3a:	90 40       	sbci	r25, 0x00	; 0
     a3c:	e1 f7       	brne	.-8      	; 0xa36 <sendMessage+0xee>
     a3e:	00 c0       	rjmp	.+0      	; 0xa40 <sendMessage+0xf8>
     a40:	00 00       	nop
		_delay_ms(100);
	}
	USART_transmit('\r'); /*carriage return ---> begining from the first line without going to next line*/
	_delay_ms(200);
	
	for (int i=0;cmd_2[i]!='\0';i++) /* set the operating mode to SMS text mode*/
     a42:	0f 5f       	subi	r16, 0xFF	; 255
     a44:	1f 4f       	sbci	r17, 0xFF	; 255
     a46:	e5 e0       	ldi	r30, 0x05	; 5
     a48:	f0 e0       	ldi	r31, 0x00	; 0
     a4a:	ec 0f       	add	r30, r28
     a4c:	fd 1f       	adc	r31, r29
     a4e:	e0 0f       	add	r30, r16
     a50:	f1 1f       	adc	r31, r17
     a52:	80 81       	ld	r24, Z
     a54:	81 11       	cpse	r24, r1
     a56:	ea cf       	rjmp	.-44     	; 0xa2c <sendMessage+0xe4>
	{
		USART_transmit(cmd_2[i]);
		_delay_ms(100);
	}
	USART_transmit('\r');
     a58:	8d e0       	ldi	r24, 0x0D	; 13
     a5a:	0e 94 a0 04 	call	0x940	; 0x940 <USART_transmit>
     a5e:	2f ef       	ldi	r18, 0xFF	; 255
     a60:	81 ee       	ldi	r24, 0xE1	; 225
     a62:	94 e0       	ldi	r25, 0x04	; 4
     a64:	21 50       	subi	r18, 0x01	; 1
     a66:	80 40       	sbci	r24, 0x00	; 0
     a68:	90 40       	sbci	r25, 0x00	; 0
     a6a:	e1 f7       	brne	.-8      	; 0xa64 <sendMessage+0x11c>
     a6c:	00 c0       	rjmp	.+0      	; 0xa6e <sendMessage+0x126>
     a6e:	00 00       	nop
	_delay_ms(200);
	
	for (int i=0;cmd_3[i]!='\0';i++) /* send SMS*/
     a70:	00 e0       	ldi	r16, 0x00	; 0
     a72:	10 e0       	ldi	r17, 0x00	; 0
     a74:	0d c0       	rjmp	.+26     	; 0xa90 <sendMessage+0x148>
	{
		USART_transmit(cmd_3[i]);
     a76:	0e 94 a0 04 	call	0x940	; 0x940 <USART_transmit>
     a7a:	2f ef       	ldi	r18, 0xFF	; 255
     a7c:	80 e7       	ldi	r24, 0x70	; 112
     a7e:	92 e0       	ldi	r25, 0x02	; 2
     a80:	21 50       	subi	r18, 0x01	; 1
     a82:	80 40       	sbci	r24, 0x00	; 0
     a84:	90 40       	sbci	r25, 0x00	; 0
     a86:	e1 f7       	brne	.-8      	; 0xa80 <sendMessage+0x138>
     a88:	00 c0       	rjmp	.+0      	; 0xa8a <sendMessage+0x142>
     a8a:	00 00       	nop
		_delay_ms(100);
	}
	USART_transmit('\r');
	_delay_ms(200);
	
	for (int i=0;cmd_3[i]!='\0';i++) /* send SMS*/
     a8c:	0f 5f       	subi	r16, 0xFF	; 255
     a8e:	1f 4f       	sbci	r17, 0xFF	; 255
     a90:	ef e0       	ldi	r30, 0x0F	; 15
     a92:	f0 e0       	ldi	r31, 0x00	; 0
     a94:	ec 0f       	add	r30, r28
     a96:	fd 1f       	adc	r31, r29
     a98:	e0 0f       	add	r30, r16
     a9a:	f1 1f       	adc	r31, r17
     a9c:	80 81       	ld	r24, Z
     a9e:	81 11       	cpse	r24, r1
     aa0:	ea cf       	rjmp	.-44     	; 0xa76 <sendMessage+0x12e>
	{
		USART_transmit(cmd_3[i]);
		_delay_ms(100);
	}
	UDR='"';
     aa2:	82 e2       	ldi	r24, 0x22	; 34
     aa4:	8c b9       	out	0x0c, r24	; 12
     aa6:	2f ef       	ldi	r18, 0xFF	; 255
     aa8:	80 e7       	ldi	r24, 0x70	; 112
     aaa:	92 e0       	ldi	r25, 0x02	; 2
     aac:	21 50       	subi	r18, 0x01	; 1
     aae:	80 40       	sbci	r24, 0x00	; 0
     ab0:	90 40       	sbci	r25, 0x00	; 0
     ab2:	e1 f7       	brne	.-8      	; 0xaac <sendMessage+0x164>
     ab4:	00 c0       	rjmp	.+0      	; 0xab6 <sendMessage+0x16e>
     ab6:	00 00       	nop
	_delay_ms(100);
	for (int i=0;num[i]!='\0';i++) /* SMS to be sent */
     ab8:	00 e0       	ldi	r16, 0x00	; 0
     aba:	10 e0       	ldi	r17, 0x00	; 0
     abc:	0d c0       	rjmp	.+26     	; 0xad8 <sendMessage+0x190>
	{
		USART_transmit(num[i]);
     abe:	0e 94 a0 04 	call	0x940	; 0x940 <USART_transmit>
     ac2:	2f ef       	ldi	r18, 0xFF	; 255
     ac4:	80 e7       	ldi	r24, 0x70	; 112
     ac6:	92 e0       	ldi	r25, 0x02	; 2
     ac8:	21 50       	subi	r18, 0x01	; 1
     aca:	80 40       	sbci	r24, 0x00	; 0
     acc:	90 40       	sbci	r25, 0x00	; 0
     ace:	e1 f7       	brne	.-8      	; 0xac8 <sendMessage+0x180>
     ad0:	00 c0       	rjmp	.+0      	; 0xad2 <sendMessage+0x18a>
     ad2:	00 00       	nop
		USART_transmit(cmd_3[i]);
		_delay_ms(100);
	}
	UDR='"';
	_delay_ms(100);
	for (int i=0;num[i]!='\0';i++) /* SMS to be sent */
     ad4:	0f 5f       	subi	r16, 0xFF	; 255
     ad6:	1f 4f       	sbci	r17, 0xFF	; 255
     ad8:	e9 e1       	ldi	r30, 0x19	; 25
     ada:	f0 e0       	ldi	r31, 0x00	; 0
     adc:	ec 0f       	add	r30, r28
     ade:	fd 1f       	adc	r31, r29
     ae0:	e0 0f       	add	r30, r16
     ae2:	f1 1f       	adc	r31, r17
     ae4:	80 81       	ld	r24, Z
     ae6:	81 11       	cpse	r24, r1
     ae8:	ea cf       	rjmp	.-44     	; 0xabe <sendMessage+0x176>
	{
		USART_transmit(num[i]);
		_delay_ms(100);
	}
	UDR='"';
     aea:	82 e2       	ldi	r24, 0x22	; 34
     aec:	8c b9       	out	0x0c, r24	; 12
     aee:	2f ef       	ldi	r18, 0xFF	; 255
     af0:	80 e7       	ldi	r24, 0x70	; 112
     af2:	92 e0       	ldi	r25, 0x02	; 2
     af4:	21 50       	subi	r18, 0x01	; 1
     af6:	80 40       	sbci	r24, 0x00	; 0
     af8:	90 40       	sbci	r25, 0x00	; 0
     afa:	e1 f7       	brne	.-8      	; 0xaf4 <sendMessage+0x1ac>
     afc:	00 c0       	rjmp	.+0      	; 0xafe <sendMessage+0x1b6>
     afe:	00 00       	nop
	_delay_ms(100);
	UDR='\r';
     b00:	8d e0       	ldi	r24, 0x0D	; 13
     b02:	8c b9       	out	0x0c, r24	; 12
     b04:	2f ef       	ldi	r18, 0xFF	; 255
     b06:	81 ee       	ldi	r24, 0xE1	; 225
     b08:	94 e0       	ldi	r25, 0x04	; 4
     b0a:	21 50       	subi	r18, 0x01	; 1
     b0c:	80 40       	sbci	r24, 0x00	; 0
     b0e:	90 40       	sbci	r25, 0x00	; 0
     b10:	e1 f7       	brne	.-8      	; 0xb0a <sendMessage+0x1c2>
     b12:	00 c0       	rjmp	.+0      	; 0xb14 <sendMessage+0x1cc>
     b14:	00 00       	nop
	_delay_ms(200);

	for (int i=0;cmd_4[i]!='\0';i++) /* sample mobile number */
     b16:	00 e0       	ldi	r16, 0x00	; 0
     b18:	10 e0       	ldi	r17, 0x00	; 0
     b1a:	0d c0       	rjmp	.+26     	; 0xb36 <sendMessage+0x1ee>
	{
		USART_transmit(cmd_4[i]);
     b1c:	0e 94 a0 04 	call	0x940	; 0x940 <USART_transmit>
     b20:	2f ef       	ldi	r18, 0xFF	; 255
     b22:	80 e7       	ldi	r24, 0x70	; 112
     b24:	92 e0       	ldi	r25, 0x02	; 2
     b26:	21 50       	subi	r18, 0x01	; 1
     b28:	80 40       	sbci	r24, 0x00	; 0
     b2a:	90 40       	sbci	r25, 0x00	; 0
     b2c:	e1 f7       	brne	.-8      	; 0xb26 <sendMessage+0x1de>
     b2e:	00 c0       	rjmp	.+0      	; 0xb30 <sendMessage+0x1e8>
     b30:	00 00       	nop
	UDR='"';
	_delay_ms(100);
	UDR='\r';
	_delay_ms(200);

	for (int i=0;cmd_4[i]!='\0';i++) /* sample mobile number */
     b32:	0f 5f       	subi	r16, 0xFF	; 255
     b34:	1f 4f       	sbci	r17, 0xFF	; 255
     b36:	f7 01       	movw	r30, r14
     b38:	e0 0f       	add	r30, r16
     b3a:	f1 1f       	adc	r31, r17
     b3c:	80 81       	ld	r24, Z
     b3e:	81 11       	cpse	r24, r1
     b40:	ed cf       	rjmp	.-38     	; 0xb1c <sendMessage+0x1d4>
     b42:	2f ef       	ldi	r18, 0xFF	; 255
     b44:	81 ee       	ldi	r24, 0xE1	; 225
     b46:	94 e0       	ldi	r25, 0x04	; 4
     b48:	21 50       	subi	r18, 0x01	; 1
     b4a:	80 40       	sbci	r24, 0x00	; 0
     b4c:	90 40       	sbci	r25, 0x00	; 0
     b4e:	e1 f7       	brne	.-8      	; 0xb48 <sendMessage+0x200>
     b50:	00 c0       	rjmp	.+0      	; 0xb52 <sendMessage+0x20a>
     b52:	00 00       	nop
	{
		USART_transmit(cmd_4[i]);
		_delay_ms(100);
	}
	_delay_ms(200);
	LCD_Clear();
     b54:	0e 94 b8 01 	call	0x370	; 0x370 <LCD_Clear>
	LCD_String_xy(1,0,"Message sent");
     b58:	47 e8       	ldi	r20, 0x87	; 135
     b5a:	50 e0       	ldi	r21, 0x00	; 0
     b5c:	60 e0       	ldi	r22, 0x00	; 0
     b5e:	81 e0       	ldi	r24, 0x01	; 1
     b60:	0e 94 a0 01 	call	0x340	; 0x340 <LCD_String_xy>
     b64:	2f ef       	ldi	r18, 0xFF	; 255
     b66:	8d e3       	ldi	r24, 0x3D	; 61
     b68:	99 e4       	ldi	r25, 0x49	; 73
     b6a:	21 50       	subi	r18, 0x01	; 1
     b6c:	80 40       	sbci	r24, 0x00	; 0
     b6e:	90 40       	sbci	r25, 0x00	; 0
     b70:	e1 f7       	brne	.-8      	; 0xb6a <sendMessage+0x222>
     b72:	00 c0       	rjmp	.+0      	; 0xb74 <sendMessage+0x22c>
     b74:	00 00       	nop
	_delay_ms(3000);
	LCD_Clear();
     b76:	0e 94 b8 01 	call	0x370	; 0x370 <LCD_Clear>
	PORTD=0x00; // change mux back to GSM
     b7a:	12 ba       	out	0x12, r1	; 18
     b7c:	a3 96       	adiw	r28, 0x23	; 35
     b7e:	0f b6       	in	r0, 0x3f	; 63
     b80:	f8 94       	cli
     b82:	de bf       	out	0x3e, r29	; 62
     b84:	0f be       	out	0x3f, r0	; 63
     b86:	cd bf       	out	0x3d, r28	; 61
     b88:	df 91       	pop	r29
     b8a:	cf 91       	pop	r28
     b8c:	1f 91       	pop	r17
     b8e:	0f 91       	pop	r16
     b90:	ff 90       	pop	r15
     b92:	ef 90       	pop	r14
     b94:	08 95       	ret

00000b96 <ringAlarm>:
		}
	}//while end
}//main end

void ringAlarm(){
	portHigh(PORTD,buzzer);//buzzer
     b96:	82 b3       	in	r24, 0x12	; 18
     b98:	80 68       	ori	r24, 0x80	; 128
     b9a:	82 bb       	out	0x12, r24	; 18
     b9c:	08 95       	ret

00000b9e <stopAlarm>:
}
void stopAlarm(){
	portLow(PORTD,buzzer);
     b9e:	82 b3       	in	r24, 0x12	; 18
     ba0:	8f 77       	andi	r24, 0x7F	; 127
     ba2:	82 bb       	out	0x12, r24	; 18
     ba4:	08 95       	ret

00000ba6 <onHazardLight>:
}
void onHazardLight(){
	portHigh(PORTD,led);
     ba6:	82 b3       	in	r24, 0x12	; 18
     ba8:	80 64       	ori	r24, 0x40	; 64
     baa:	82 bb       	out	0x12, r24	; 18
     bac:	08 95       	ret

00000bae <offHazardLight>:
}
void offHazardLight(){
	portLow(PORTD,led);
     bae:	82 b3       	in	r24, 0x12	; 18
     bb0:	8f 7b       	andi	r24, 0xBF	; 191
     bb2:	82 bb       	out	0x12, r24	; 18
     bb4:	08 95       	ret

00000bb6 <playRadio>:
}
void playRadio(){
	portHigh(PORTD,musicSystem);
     bb6:	82 b3       	in	r24, 0x12	; 18
     bb8:	80 62       	ori	r24, 0x20	; 32
     bba:	82 bb       	out	0x12, r24	; 18
     bbc:	08 95       	ret

00000bbe <getAllValuesGps>:
}
void getAllValuesGps(){
     bbe:	cf 93       	push	r28
     bc0:	df 93       	push	r29
		get_gpstime();                         // Extract Time in UTC- In this function the get the GPS time string type and convert as an integer and print that time
     bc2:	0e 94 04 02 	call	0x408	; 0x408 <get_gpstime>
		get_latitude(GGA_Pointers[0]);         // Extract Latitude- convert raw latitude value into degree format and pass that value as string
     bc6:	c7 e0       	ldi	r28, 0x07	; 7
     bc8:	d2 e0       	ldi	r29, 0x02	; 2
     bca:	88 81       	ld	r24, Y
     bcc:	90 e0       	ldi	r25, 0x00	; 0
     bce:	0e 94 5b 02 	call	0x4b6	; 0x4b6 <get_latitude>
		//degrees_buffer latitude
		strcpy(latitude,degrees_buffer);
     bd2:	65 e9       	ldi	r22, 0x95	; 149
     bd4:	71 e0       	ldi	r23, 0x01	; 1
     bd6:	83 ed       	ldi	r24, 0xD3	; 211
     bd8:	91 e0       	ldi	r25, 0x01	; 1
     bda:	0e 94 d6 09 	call	0x13ac	; 0x13ac <strcpy>
		get_longitude(GGA_Pointers[2]);        /* Extract Longitude */
     bde:	8a 81       	ldd	r24, Y+2	; 0x02
     be0:	90 e0       	ldi	r25, 0x00	; 0
     be2:	0e 94 86 02 	call	0x50c	; 0x50c <get_longitude>
		//degrees_buffer longtitude
		strcpy(longtitude,degrees_buffer);
     be6:	65 e9       	ldi	r22, 0x95	; 149
     be8:	71 e0       	ldi	r23, 0x01	; 1
     bea:	84 ef       	ldi	r24, 0xF4	; 244
     bec:	91 e0       	ldi	r25, 0x01	; 1
     bee:	0e 94 d6 09 	call	0x13ac	; 0x13ac <strcpy>
		//get_altitude(GGA_Pointers[7]);         /* Extract Altitude in meters*/ 
}
     bf2:	df 91       	pop	r29
     bf4:	cf 91       	pop	r28
     bf6:	08 95       	ret

00000bf8 <main>:
void PWM_init();
void offHazardLight();
void getAllValuesGps();
char longtitude[15];
char latitude[15];
int main(void){
     bf8:	cf 93       	push	r28
     bfa:	df 93       	push	r29
     bfc:	00 d0       	rcall	.+0      	; 0xbfe <main+0x6>
     bfe:	00 d0       	rcall	.+0      	; 0xc00 <main+0x8>
     c00:	1f 92       	push	r1
     c02:	cd b7       	in	r28, 0x3d	; 61
     c04:	de b7       	in	r29, 0x3e	; 62
	start:
	GGA_Index=0;
     c06:	10 92 d2 01 	sts	0x01D2, r1	; 0x8001d2 <GGA_Index+0x1>
     c0a:	10 92 d1 01 	sts	0x01D1, r1	; 0x8001d1 <GGA_Index>
	setOutput(DDRD,led);
     c0e:	81 b3       	in	r24, 0x11	; 17
     c10:	80 64       	ori	r24, 0x40	; 64
     c12:	81 bb       	out	0x11, r24	; 17
	setOutput(DDRD,buzzer);
     c14:	81 b3       	in	r24, 0x11	; 17
     c16:	80 68       	ori	r24, 0x80	; 128
     c18:	81 bb       	out	0x11, r24	; 17
	setOutput(DDRD,musicSystem);
     c1a:	81 b3       	in	r24, 0x11	; 17
     c1c:	80 62       	ori	r24, 0x20	; 32
     c1e:	81 bb       	out	0x11, r24	; 17
	LCD_Init();
     c20:	0e 94 6f 01 	call	0x2de	; 0x2de <LCD_Init>
     c24:	2f ef       	ldi	r18, 0xFF	; 255
     c26:	3d e3       	ldi	r19, 0x3D	; 61
     c28:	49 e4       	ldi	r20, 0x49	; 73
     c2a:	21 50       	subi	r18, 0x01	; 1
     c2c:	30 40       	sbci	r19, 0x00	; 0
     c2e:	40 40       	sbci	r20, 0x00	; 0
     c30:	e1 f7       	brne	.-8      	; 0xc2a <main+0x32>
     c32:	00 c0       	rjmp	.+0      	; 0xc34 <main+0x3c>
     c34:	00 00       	nop
	_delay_ms(3000);/* wait for GPS receiver to initialize */
	USART_initialize(9600); /* GSM */
     c36:	60 e8       	ldi	r22, 0x80	; 128
     c38:	75 e2       	ldi	r23, 0x25	; 37
     c3a:	80 e0       	ldi	r24, 0x00	; 0
     c3c:	90 e0       	ldi	r25, 0x00	; 0
     c3e:	0e 94 96 04 	call	0x92c	; 0x92c <USART_initialize>
	USART_Init(9600);/* GPS */
     c42:	60 e8       	ldi	r22, 0x80	; 128
     c44:	75 e2       	ldi	r23, 0x25	; 37
     c46:	80 e0       	ldi	r24, 0x00	; 0
     c48:	90 e0       	ldi	r25, 0x00	; 0
     c4a:	0e 94 21 07 	call	0xe42	; 0xe42 <USART_Init>
	ADC_Init();
     c4e:	0e 94 bc 01 	call	0x378	; 0x378 <ADC_Init>
	sei();
     c52:	78 94       	sei
	I2C_Init();
     c54:	0e 94 e4 00 	call	0x1c8	; 0x1c8 <I2C_Init>
	PWM_init();
     c58:	0e 94 90 04 	call	0x920	; 0x920 <PWM_init>
	MPU6050_Init();
     c5c:	0e 94 21 03 	call	0x642	; 0x642 <MPU6050_Init>
	LCD_Clear();
     c60:	0e 94 b8 01 	call	0x370	; 0x370 <LCD_Clear>
	float Xa,Ya,Za;
	while (1){
		//flame detection
		if(pinRead(PINC,flame)==0x10){
     c64:	9c 9b       	sbis	0x13, 4	; 19
     c66:	20 c0       	rjmp	.+64     	; 0xca8 <main+0xb0>
			ringAlarm();onHazardLight();
     c68:	0e 94 cb 05 	call	0xb96	; 0xb96 <ringAlarm>
     c6c:	0e 94 d3 05 	call	0xba6	; 0xba6 <onHazardLight>
     c70:	8f ef       	ldi	r24, 0xFF	; 255
     c72:	99 e6       	ldi	r25, 0x69	; 105
     c74:	28 e1       	ldi	r18, 0x18	; 24
     c76:	81 50       	subi	r24, 0x01	; 1
     c78:	90 40       	sbci	r25, 0x00	; 0
     c7a:	20 40       	sbci	r18, 0x00	; 0
     c7c:	e1 f7       	brne	.-8      	; 0xc76 <main+0x7e>
     c7e:	00 c0       	rjmp	.+0      	; 0xc80 <main+0x88>
     c80:	00 00       	nop
			_delay_ms(1000);
			stopAlarm();offHazardLight();
     c82:	0e 94 cf 05 	call	0xb9e	; 0xb9e <stopAlarm>
     c86:	0e 94 d7 05 	call	0xbae	; 0xbae <offHazardLight>
			LCD_String("Flame Detected !");
     c8a:	89 ea       	ldi	r24, 0xA9	; 169
     c8c:	90 e0       	ldi	r25, 0x00	; 0
     c8e:	0e 94 8a 01 	call	0x314	; 0x314 <LCD_String>
			getAllValuesGps();
     c92:	0e 94 df 05 	call	0xbbe	; 0xbbe <getAllValuesGps>
			//LCD_String(Altitude_Buffer);
			//LCD_String(degrees_buffer);
			sendMessage("Flame Detected",longtitude,latitude);
     c96:	43 ed       	ldi	r20, 0xD3	; 211
     c98:	51 e0       	ldi	r21, 0x01	; 1
     c9a:	64 ef       	ldi	r22, 0xF4	; 244
     c9c:	71 e0       	ldi	r23, 0x01	; 1
     c9e:	8a eb       	ldi	r24, 0xBA	; 186
     ca0:	90 e0       	ldi	r25, 0x00	; 0
     ca2:	0e 94 a4 04 	call	0x948	; 0x948 <sendMessage>
     ca6:	de cf       	rjmp	.-68     	; 0xc64 <main+0x6c>
		}//if end
		else{
			//set wheel speed vehicle
			int val=ADC_Read(0);
     ca8:	80 e0       	ldi	r24, 0x00	; 0
     caa:	0e 94 c4 01 	call	0x388	; 0x388 <ADC_Read>
			float speed=(val/1024.0)*255.0;
     cae:	bc 01       	movw	r22, r24
     cb0:	99 0f       	add	r25, r25
     cb2:	88 0b       	sbc	r24, r24
     cb4:	99 0b       	sbc	r25, r25
     cb6:	0e 94 47 08 	call	0x108e	; 0x108e <__floatsisf>
     cba:	20 e0       	ldi	r18, 0x00	; 0
     cbc:	30 e0       	ldi	r19, 0x00	; 0
     cbe:	40 e8       	ldi	r20, 0x80	; 128
     cc0:	5a e3       	ldi	r21, 0x3A	; 58
     cc2:	0e 94 fc 08 	call	0x11f8	; 0x11f8 <__mulsf3>
     cc6:	20 e0       	ldi	r18, 0x00	; 0
     cc8:	30 e0       	ldi	r19, 0x00	; 0
     cca:	4f e7       	ldi	r20, 0x7F	; 127
     ccc:	53 e4       	ldi	r21, 0x43	; 67
     cce:	0e 94 fc 08 	call	0x11f8	; 0x11f8 <__mulsf3>
			OCR0=(int)speed;
     cd2:	0e 94 0f 08 	call	0x101e	; 0x101e <__fixsfsi>
     cd6:	86 2f       	mov	r24, r22
     cd8:	97 2f       	mov	r25, r23
     cda:	6c 01       	movw	r12, r24
     cdc:	6c bf       	out	0x3c, r22	; 60
			//get pressure
			int value = ADC_Read(1);
     cde:	81 e0       	ldi	r24, 0x01	; 1
     ce0:	0e 94 c4 01 	call	0x388	; 0x388 <ADC_Read>
			if (value > 107){// if value gt 107 vehicle is moving
     ce4:	8c 36       	cpi	r24, 0x6C	; 108
     ce6:	91 05       	cpc	r25, r1
     ce8:	0c f4       	brge	.+2      	; 0xcec <main+0xf4>
     cea:	bc cf       	rjmp	.-136    	; 0xc64 <main+0x6c>
				//get gyroscope values;
				Read_RawValue();
     cec:	0e 94 6c 03 	call	0x6d8	; 0x6d8 <Read_RawValue>
				Xa = (Acc_x/16384.0)*9.8066;
     cf0:	20 e0       	ldi	r18, 0x00	; 0
     cf2:	30 e0       	ldi	r19, 0x00	; 0
     cf4:	40 e8       	ldi	r20, 0x80	; 128
     cf6:	58 e3       	ldi	r21, 0x38	; 56
     cf8:	60 91 cb 01 	lds	r22, 0x01CB	; 0x8001cb <Acc_x>
     cfc:	70 91 cc 01 	lds	r23, 0x01CC	; 0x8001cc <Acc_x+0x1>
     d00:	80 91 cd 01 	lds	r24, 0x01CD	; 0x8001cd <Acc_x+0x2>
     d04:	90 91 ce 01 	lds	r25, 0x01CE	; 0x8001ce <Acc_x+0x3>
     d08:	0e 94 fc 08 	call	0x11f8	; 0x11f8 <__mulsf3>
     d0c:	25 ed       	ldi	r18, 0xD5	; 213
     d0e:	37 ee       	ldi	r19, 0xE7	; 231
     d10:	4c e1       	ldi	r20, 0x1C	; 28
     d12:	51 e4       	ldi	r21, 0x41	; 65
     d14:	0e 94 fc 08 	call	0x11f8	; 0x11f8 <__mulsf3>
     d18:	4b 01       	movw	r8, r22
     d1a:	5c 01       	movw	r10, r24
				Ya = (Acc_y/16384.0)*9.8066;
     d1c:	20 e0       	ldi	r18, 0x00	; 0
     d1e:	30 e0       	ldi	r19, 0x00	; 0
     d20:	40 e8       	ldi	r20, 0x80	; 128
     d22:	58 e3       	ldi	r21, 0x38	; 56
     d24:	60 91 91 01 	lds	r22, 0x0191	; 0x800191 <Acc_y>
     d28:	70 91 92 01 	lds	r23, 0x0192	; 0x800192 <Acc_y+0x1>
     d2c:	80 91 93 01 	lds	r24, 0x0193	; 0x800193 <Acc_y+0x2>
     d30:	90 91 94 01 	lds	r25, 0x0194	; 0x800194 <Acc_y+0x3>
     d34:	0e 94 fc 08 	call	0x11f8	; 0x11f8 <__mulsf3>
     d38:	25 ed       	ldi	r18, 0xD5	; 213
     d3a:	37 ee       	ldi	r19, 0xE7	; 231
     d3c:	4c e1       	ldi	r20, 0x1C	; 28
     d3e:	51 e4       	ldi	r21, 0x41	; 65
     d40:	0e 94 fc 08 	call	0x11f8	; 0x11f8 <__mulsf3>
     d44:	2b 01       	movw	r4, r22
     d46:	3c 01       	movw	r6, r24
				Za = (Acc_z/16384.0)*9.8066;
     d48:	20 e0       	ldi	r18, 0x00	; 0
     d4a:	30 e0       	ldi	r19, 0x00	; 0
     d4c:	40 e8       	ldi	r20, 0x80	; 128
     d4e:	58 e3       	ldi	r21, 0x38	; 56
     d50:	60 91 ef 00 	lds	r22, 0x00EF	; 0x8000ef <Acc_z>
     d54:	70 91 f0 00 	lds	r23, 0x00F0	; 0x8000f0 <Acc_z+0x1>
     d58:	80 91 f1 00 	lds	r24, 0x00F1	; 0x8000f1 <Acc_z+0x2>
     d5c:	90 91 f2 00 	lds	r25, 0x00F2	; 0x8000f2 <Acc_z+0x3>
     d60:	0e 94 fc 08 	call	0x11f8	; 0x11f8 <__mulsf3>
     d64:	25 ed       	ldi	r18, 0xD5	; 213
     d66:	37 ee       	ldi	r19, 0xE7	; 231
     d68:	4c e1       	ldi	r20, 0x1C	; 28
     d6a:	51 e4       	ldi	r21, 0x41	; 65
     d6c:	0e 94 fc 08 	call	0x11f8	; 0x11f8 <__mulsf3>
				if(pinRead(PINC,alcohol)==0x20){//alcohol detection
     d70:	9d 9b       	sbis	0x13, 5	; 19
     d72:	11 c0       	rjmp	.+34     	; 0xd96 <main+0x19e>
					LCD_Clear();
     d74:	0e 94 b8 01 	call	0x370	; 0x370 <LCD_Clear>
					LCD_String("Alcohol Detected"); 
     d78:	89 ec       	ldi	r24, 0xC9	; 201
     d7a:	90 e0       	ldi	r25, 0x00	; 0
     d7c:	0e 94 8a 01 	call	0x314	; 0x314 <LCD_String>
					getAllValuesGps();
     d80:	0e 94 df 05 	call	0xbbe	; 0xbbe <getAllValuesGps>
					//LCD_String(Altitude_Buffer);
					//LCD_String(degrees_buffer);
					sendMessage("Alcohol Detected",longtitude,latitude);
     d84:	43 ed       	ldi	r20, 0xD3	; 211
     d86:	51 e0       	ldi	r21, 0x01	; 1
     d88:	64 ef       	ldi	r22, 0xF4	; 244
     d8a:	71 e0       	ldi	r23, 0x01	; 1
     d8c:	89 ec       	ldi	r24, 0xC9	; 201
     d8e:	90 e0       	ldi	r25, 0x00	; 0
     d90:	0e 94 a4 04 	call	0x948	; 0x948 <sendMessage>
     d94:	67 cf       	rjmp	.-306    	; 0xc64 <main+0x6c>
				}//if end
				else if(1 && isDriverSleepingGyro(Xa,Ya,Za)){//alcohol not detected  //1 ==> IR Detection                     
     d96:	7b 01       	movw	r14, r22
     d98:	8c 01       	movw	r16, r24
     d9a:	a3 01       	movw	r20, r6
     d9c:	92 01       	movw	r18, r4
     d9e:	c5 01       	movw	r24, r10
     da0:	b4 01       	movw	r22, r8
     da2:	0e 94 1d 04 	call	0x83a	; 0x83a <isDriverSleepingGyro>
     da6:	89 2b       	or	r24, r25
     da8:	09 f4       	brne	.+2      	; 0xdac <main+0x1b4>
     daa:	5c cf       	rjmp	.-328    	; 0xc64 <main+0x6c>
						ringAlarm();onHazardLight();
     dac:	0e 94 cb 05 	call	0xb96	; 0xb96 <ringAlarm>
     db0:	0e 94 d3 05 	call	0xba6	; 0xba6 <onHazardLight>
						for(int i=1;i<=5;i++){
     db4:	81 e0       	ldi	r24, 0x01	; 1
     db6:	90 e0       	ldi	r25, 0x00	; 0
     db8:	11 c0       	rjmp	.+34     	; 0xddc <main+0x1e4>
							if(pinRead(PINC,3)==0x08){//if button not pressed
     dba:	9b 9b       	sbis	0x13, 3	; 19
     dbc:	05 c0       	rjmp	.+10     	; 0xdc8 <main+0x1d0>
								stopAlarm();offHazardLight();
     dbe:	0e 94 cf 05 	call	0xb9e	; 0xb9e <stopAlarm>
     dc2:	0e 94 d7 05 	call	0xbae	; 0xbae <offHazardLight>
								goto start;
     dc6:	1f cf       	rjmp	.-450    	; 0xc06 <main+0xe>
     dc8:	3f ef       	ldi	r19, 0xFF	; 255
     dca:	49 e6       	ldi	r20, 0x69	; 105
     dcc:	28 e1       	ldi	r18, 0x18	; 24
     dce:	31 50       	subi	r19, 0x01	; 1
     dd0:	40 40       	sbci	r20, 0x00	; 0
     dd2:	20 40       	sbci	r18, 0x00	; 0
     dd4:	e1 f7       	brne	.-8      	; 0xdce <main+0x1d6>
     dd6:	00 c0       	rjmp	.+0      	; 0xdd8 <main+0x1e0>
     dd8:	00 00       	nop
					//LCD_String(degrees_buffer);
					sendMessage("Alcohol Detected",longtitude,latitude);
				}//if end
				else if(1 && isDriverSleepingGyro(Xa,Ya,Za)){//alcohol not detected  //1 ==> IR Detection                     
						ringAlarm();onHazardLight();
						for(int i=1;i<=5;i++){
     dda:	01 96       	adiw	r24, 0x01	; 1
     ddc:	86 30       	cpi	r24, 0x06	; 6
     dde:	91 05       	cpc	r25, r1
     de0:	64 f3       	brlt	.-40     	; 0xdba <main+0x1c2>
								stopAlarm();offHazardLight();
								goto start;
							}//button if end
							_delay_ms(1000);
						}//for loop end
						LCD_String("Sleeping");
     de2:	84 ee       	ldi	r24, 0xE4	; 228
     de4:	90 e0       	ldi	r25, 0x00	; 0
     de6:	0e 94 8a 01 	call	0x314	; 0x314 <LCD_String>
						getAllValuesGps();
     dea:	0e 94 df 05 	call	0xbbe	; 0xbbe <getAllValuesGps>
						//LCD_String(Altitude_Buffer);
						//LCD_String(degrees_buffer);
						sendMessage("Driver is Sleeping",longtitude,latitude);
     dee:	43 ed       	ldi	r20, 0xD3	; 211
     df0:	51 e0       	ldi	r21, 0x01	; 1
     df2:	64 ef       	ldi	r22, 0xF4	; 244
     df4:	71 e0       	ldi	r23, 0x01	; 1
     df6:	8a ed       	ldi	r24, 0xDA	; 218
     df8:	90 e0       	ldi	r25, 0x00	; 0
     dfa:	0e 94 a4 04 	call	0x948	; 0x948 <sendMessage>
						playRadio();
     dfe:	0e 94 db 05 	call	0xbb6	; 0xbb6 <playRadio>
						//reduce speed of the vehicle
						for(int i=(int)speed;i>=20;i--){
     e02:	1a c0       	rjmp	.+52     	; 0xe38 <main+0x240>
    } else if (__radix < 2 || __radix > 36) {
	*__s = 0;
	return __s;
    } else {
	extern char *__itoa_ncheck (int, char *, unsigned char);
	return __itoa_ncheck (__val, __s, __radix);
     e04:	4a e0       	ldi	r20, 0x0A	; 10
     e06:	be 01       	movw	r22, r28
     e08:	6f 5f       	subi	r22, 0xFF	; 255
     e0a:	7f 4f       	sbci	r23, 0xFF	; 255
     e0c:	c6 01       	movw	r24, r12
     e0e:	0e 94 dd 09 	call	0x13ba	; 0x13ba <__itoa_ncheck>
							char c[5];
							itoa(i,c,10);
							LCD_String(c);
     e12:	ce 01       	movw	r24, r28
     e14:	01 96       	adiw	r24, 0x01	; 1
     e16:	0e 94 8a 01 	call	0x314	; 0x314 <LCD_String>
							OCR0=i;
     e1a:	cc be       	out	0x3c, r12	; 60
     e1c:	3f ef       	ldi	r19, 0xFF	; 255
     e1e:	40 e7       	ldi	r20, 0x70	; 112
     e20:	82 e0       	ldi	r24, 0x02	; 2
     e22:	31 50       	subi	r19, 0x01	; 1
     e24:	40 40       	sbci	r20, 0x00	; 0
     e26:	80 40       	sbci	r24, 0x00	; 0
     e28:	e1 f7       	brne	.-8      	; 0xe22 <main+0x22a>
     e2a:	00 c0       	rjmp	.+0      	; 0xe2c <main+0x234>
     e2c:	00 00       	nop
							_delay_ms(100);
							LCD_Clear();
     e2e:	0e 94 b8 01 	call	0x370	; 0x370 <LCD_Clear>
						//LCD_String(Altitude_Buffer);
						//LCD_String(degrees_buffer);
						sendMessage("Driver is Sleeping",longtitude,latitude);
						playRadio();
						//reduce speed of the vehicle
						for(int i=(int)speed;i>=20;i--){
     e32:	91 e0       	ldi	r25, 0x01	; 1
     e34:	c9 1a       	sub	r12, r25
     e36:	d1 08       	sbc	r13, r1
     e38:	24 e1       	ldi	r18, 0x14	; 20
     e3a:	c2 16       	cp	r12, r18
     e3c:	d1 04       	cpc	r13, r1
     e3e:	14 f7       	brge	.-60     	; 0xe04 <main+0x20c>
     e40:	ff cf       	rjmp	.-2      	; 0xe40 <main+0x248>

00000e42 <USART_Init>:
     e42:	8a b1       	in	r24, 0x0a	; 10
     e44:	88 69       	ori	r24, 0x98	; 152
     e46:	8a b9       	out	0x0a, r24	; 10
     e48:	80 b5       	in	r24, 0x20	; 32
     e4a:	86 68       	ori	r24, 0x86	; 134
     e4c:	80 bd       	out	0x20, r24	; 32
     e4e:	83 e3       	ldi	r24, 0x33	; 51
     e50:	89 b9       	out	0x09, r24	; 9
     e52:	10 bc       	out	0x20, r1	; 32
     e54:	08 95       	ret

00000e56 <__subsf3>:
     e56:	50 58       	subi	r21, 0x80	; 128

00000e58 <__addsf3>:
     e58:	bb 27       	eor	r27, r27
     e5a:	aa 27       	eor	r26, r26
     e5c:	0e 94 43 07 	call	0xe86	; 0xe86 <__addsf3x>
     e60:	0c 94 bd 08 	jmp	0x117a	; 0x117a <__fp_round>
     e64:	0e 94 af 08 	call	0x115e	; 0x115e <__fp_pscA>
     e68:	38 f0       	brcs	.+14     	; 0xe78 <__addsf3+0x20>
     e6a:	0e 94 b6 08 	call	0x116c	; 0x116c <__fp_pscB>
     e6e:	20 f0       	brcs	.+8      	; 0xe78 <__addsf3+0x20>
     e70:	39 f4       	brne	.+14     	; 0xe80 <__addsf3+0x28>
     e72:	9f 3f       	cpi	r25, 0xFF	; 255
     e74:	19 f4       	brne	.+6      	; 0xe7c <__addsf3+0x24>
     e76:	26 f4       	brtc	.+8      	; 0xe80 <__addsf3+0x28>
     e78:	0c 94 ac 08 	jmp	0x1158	; 0x1158 <__fp_nan>
     e7c:	0e f4       	brtc	.+2      	; 0xe80 <__addsf3+0x28>
     e7e:	e0 95       	com	r30
     e80:	e7 fb       	bst	r30, 7
     e82:	0c 94 a6 08 	jmp	0x114c	; 0x114c <__fp_inf>

00000e86 <__addsf3x>:
     e86:	e9 2f       	mov	r30, r25
     e88:	0e 94 ce 08 	call	0x119c	; 0x119c <__fp_split3>
     e8c:	58 f3       	brcs	.-42     	; 0xe64 <__addsf3+0xc>
     e8e:	ba 17       	cp	r27, r26
     e90:	62 07       	cpc	r22, r18
     e92:	73 07       	cpc	r23, r19
     e94:	84 07       	cpc	r24, r20
     e96:	95 07       	cpc	r25, r21
     e98:	20 f0       	brcs	.+8      	; 0xea2 <__addsf3x+0x1c>
     e9a:	79 f4       	brne	.+30     	; 0xeba <__addsf3x+0x34>
     e9c:	a6 f5       	brtc	.+104    	; 0xf06 <__addsf3x+0x80>
     e9e:	0c 94 f0 08 	jmp	0x11e0	; 0x11e0 <__fp_zero>
     ea2:	0e f4       	brtc	.+2      	; 0xea6 <__addsf3x+0x20>
     ea4:	e0 95       	com	r30
     ea6:	0b 2e       	mov	r0, r27
     ea8:	ba 2f       	mov	r27, r26
     eaa:	a0 2d       	mov	r26, r0
     eac:	0b 01       	movw	r0, r22
     eae:	b9 01       	movw	r22, r18
     eb0:	90 01       	movw	r18, r0
     eb2:	0c 01       	movw	r0, r24
     eb4:	ca 01       	movw	r24, r20
     eb6:	a0 01       	movw	r20, r0
     eb8:	11 24       	eor	r1, r1
     eba:	ff 27       	eor	r31, r31
     ebc:	59 1b       	sub	r21, r25
     ebe:	99 f0       	breq	.+38     	; 0xee6 <__addsf3x+0x60>
     ec0:	59 3f       	cpi	r21, 0xF9	; 249
     ec2:	50 f4       	brcc	.+20     	; 0xed8 <__addsf3x+0x52>
     ec4:	50 3e       	cpi	r21, 0xE0	; 224
     ec6:	68 f1       	brcs	.+90     	; 0xf22 <__addsf3x+0x9c>
     ec8:	1a 16       	cp	r1, r26
     eca:	f0 40       	sbci	r31, 0x00	; 0
     ecc:	a2 2f       	mov	r26, r18
     ece:	23 2f       	mov	r18, r19
     ed0:	34 2f       	mov	r19, r20
     ed2:	44 27       	eor	r20, r20
     ed4:	58 5f       	subi	r21, 0xF8	; 248
     ed6:	f3 cf       	rjmp	.-26     	; 0xebe <__addsf3x+0x38>
     ed8:	46 95       	lsr	r20
     eda:	37 95       	ror	r19
     edc:	27 95       	ror	r18
     ede:	a7 95       	ror	r26
     ee0:	f0 40       	sbci	r31, 0x00	; 0
     ee2:	53 95       	inc	r21
     ee4:	c9 f7       	brne	.-14     	; 0xed8 <__addsf3x+0x52>
     ee6:	7e f4       	brtc	.+30     	; 0xf06 <__addsf3x+0x80>
     ee8:	1f 16       	cp	r1, r31
     eea:	ba 0b       	sbc	r27, r26
     eec:	62 0b       	sbc	r22, r18
     eee:	73 0b       	sbc	r23, r19
     ef0:	84 0b       	sbc	r24, r20
     ef2:	ba f0       	brmi	.+46     	; 0xf22 <__addsf3x+0x9c>
     ef4:	91 50       	subi	r25, 0x01	; 1
     ef6:	a1 f0       	breq	.+40     	; 0xf20 <__addsf3x+0x9a>
     ef8:	ff 0f       	add	r31, r31
     efa:	bb 1f       	adc	r27, r27
     efc:	66 1f       	adc	r22, r22
     efe:	77 1f       	adc	r23, r23
     f00:	88 1f       	adc	r24, r24
     f02:	c2 f7       	brpl	.-16     	; 0xef4 <__addsf3x+0x6e>
     f04:	0e c0       	rjmp	.+28     	; 0xf22 <__addsf3x+0x9c>
     f06:	ba 0f       	add	r27, r26
     f08:	62 1f       	adc	r22, r18
     f0a:	73 1f       	adc	r23, r19
     f0c:	84 1f       	adc	r24, r20
     f0e:	48 f4       	brcc	.+18     	; 0xf22 <__addsf3x+0x9c>
     f10:	87 95       	ror	r24
     f12:	77 95       	ror	r23
     f14:	67 95       	ror	r22
     f16:	b7 95       	ror	r27
     f18:	f7 95       	ror	r31
     f1a:	9e 3f       	cpi	r25, 0xFE	; 254
     f1c:	08 f0       	brcs	.+2      	; 0xf20 <__addsf3x+0x9a>
     f1e:	b0 cf       	rjmp	.-160    	; 0xe80 <__addsf3+0x28>
     f20:	93 95       	inc	r25
     f22:	88 0f       	add	r24, r24
     f24:	08 f0       	brcs	.+2      	; 0xf28 <__addsf3x+0xa2>
     f26:	99 27       	eor	r25, r25
     f28:	ee 0f       	add	r30, r30
     f2a:	97 95       	ror	r25
     f2c:	87 95       	ror	r24
     f2e:	08 95       	ret

00000f30 <__cmpsf2>:
     f30:	0e 94 82 08 	call	0x1104	; 0x1104 <__fp_cmp>
     f34:	08 f4       	brcc	.+2      	; 0xf38 <__cmpsf2+0x8>
     f36:	81 e0       	ldi	r24, 0x01	; 1
     f38:	08 95       	ret

00000f3a <__divsf3>:
     f3a:	0e 94 b1 07 	call	0xf62	; 0xf62 <__divsf3x>
     f3e:	0c 94 bd 08 	jmp	0x117a	; 0x117a <__fp_round>
     f42:	0e 94 b6 08 	call	0x116c	; 0x116c <__fp_pscB>
     f46:	58 f0       	brcs	.+22     	; 0xf5e <__divsf3+0x24>
     f48:	0e 94 af 08 	call	0x115e	; 0x115e <__fp_pscA>
     f4c:	40 f0       	brcs	.+16     	; 0xf5e <__divsf3+0x24>
     f4e:	29 f4       	brne	.+10     	; 0xf5a <__divsf3+0x20>
     f50:	5f 3f       	cpi	r21, 0xFF	; 255
     f52:	29 f0       	breq	.+10     	; 0xf5e <__divsf3+0x24>
     f54:	0c 94 a6 08 	jmp	0x114c	; 0x114c <__fp_inf>
     f58:	51 11       	cpse	r21, r1
     f5a:	0c 94 f1 08 	jmp	0x11e2	; 0x11e2 <__fp_szero>
     f5e:	0c 94 ac 08 	jmp	0x1158	; 0x1158 <__fp_nan>

00000f62 <__divsf3x>:
     f62:	0e 94 ce 08 	call	0x119c	; 0x119c <__fp_split3>
     f66:	68 f3       	brcs	.-38     	; 0xf42 <__divsf3+0x8>

00000f68 <__divsf3_pse>:
     f68:	99 23       	and	r25, r25
     f6a:	b1 f3       	breq	.-20     	; 0xf58 <__divsf3+0x1e>
     f6c:	55 23       	and	r21, r21
     f6e:	91 f3       	breq	.-28     	; 0xf54 <__divsf3+0x1a>
     f70:	95 1b       	sub	r25, r21
     f72:	55 0b       	sbc	r21, r21
     f74:	bb 27       	eor	r27, r27
     f76:	aa 27       	eor	r26, r26
     f78:	62 17       	cp	r22, r18
     f7a:	73 07       	cpc	r23, r19
     f7c:	84 07       	cpc	r24, r20
     f7e:	38 f0       	brcs	.+14     	; 0xf8e <__divsf3_pse+0x26>
     f80:	9f 5f       	subi	r25, 0xFF	; 255
     f82:	5f 4f       	sbci	r21, 0xFF	; 255
     f84:	22 0f       	add	r18, r18
     f86:	33 1f       	adc	r19, r19
     f88:	44 1f       	adc	r20, r20
     f8a:	aa 1f       	adc	r26, r26
     f8c:	a9 f3       	breq	.-22     	; 0xf78 <__divsf3_pse+0x10>
     f8e:	35 d0       	rcall	.+106    	; 0xffa <__divsf3_pse+0x92>
     f90:	0e 2e       	mov	r0, r30
     f92:	3a f0       	brmi	.+14     	; 0xfa2 <__divsf3_pse+0x3a>
     f94:	e0 e8       	ldi	r30, 0x80	; 128
     f96:	32 d0       	rcall	.+100    	; 0xffc <__divsf3_pse+0x94>
     f98:	91 50       	subi	r25, 0x01	; 1
     f9a:	50 40       	sbci	r21, 0x00	; 0
     f9c:	e6 95       	lsr	r30
     f9e:	00 1c       	adc	r0, r0
     fa0:	ca f7       	brpl	.-14     	; 0xf94 <__divsf3_pse+0x2c>
     fa2:	2b d0       	rcall	.+86     	; 0xffa <__divsf3_pse+0x92>
     fa4:	fe 2f       	mov	r31, r30
     fa6:	29 d0       	rcall	.+82     	; 0xffa <__divsf3_pse+0x92>
     fa8:	66 0f       	add	r22, r22
     faa:	77 1f       	adc	r23, r23
     fac:	88 1f       	adc	r24, r24
     fae:	bb 1f       	adc	r27, r27
     fb0:	26 17       	cp	r18, r22
     fb2:	37 07       	cpc	r19, r23
     fb4:	48 07       	cpc	r20, r24
     fb6:	ab 07       	cpc	r26, r27
     fb8:	b0 e8       	ldi	r27, 0x80	; 128
     fba:	09 f0       	breq	.+2      	; 0xfbe <__divsf3_pse+0x56>
     fbc:	bb 0b       	sbc	r27, r27
     fbe:	80 2d       	mov	r24, r0
     fc0:	bf 01       	movw	r22, r30
     fc2:	ff 27       	eor	r31, r31
     fc4:	93 58       	subi	r25, 0x83	; 131
     fc6:	5f 4f       	sbci	r21, 0xFF	; 255
     fc8:	3a f0       	brmi	.+14     	; 0xfd8 <__divsf3_pse+0x70>
     fca:	9e 3f       	cpi	r25, 0xFE	; 254
     fcc:	51 05       	cpc	r21, r1
     fce:	78 f0       	brcs	.+30     	; 0xfee <__divsf3_pse+0x86>
     fd0:	0c 94 a6 08 	jmp	0x114c	; 0x114c <__fp_inf>
     fd4:	0c 94 f1 08 	jmp	0x11e2	; 0x11e2 <__fp_szero>
     fd8:	5f 3f       	cpi	r21, 0xFF	; 255
     fda:	e4 f3       	brlt	.-8      	; 0xfd4 <__divsf3_pse+0x6c>
     fdc:	98 3e       	cpi	r25, 0xE8	; 232
     fde:	d4 f3       	brlt	.-12     	; 0xfd4 <__divsf3_pse+0x6c>
     fe0:	86 95       	lsr	r24
     fe2:	77 95       	ror	r23
     fe4:	67 95       	ror	r22
     fe6:	b7 95       	ror	r27
     fe8:	f7 95       	ror	r31
     fea:	9f 5f       	subi	r25, 0xFF	; 255
     fec:	c9 f7       	brne	.-14     	; 0xfe0 <__divsf3_pse+0x78>
     fee:	88 0f       	add	r24, r24
     ff0:	91 1d       	adc	r25, r1
     ff2:	96 95       	lsr	r25
     ff4:	87 95       	ror	r24
     ff6:	97 f9       	bld	r25, 7
     ff8:	08 95       	ret
     ffa:	e1 e0       	ldi	r30, 0x01	; 1
     ffc:	66 0f       	add	r22, r22
     ffe:	77 1f       	adc	r23, r23
    1000:	88 1f       	adc	r24, r24
    1002:	bb 1f       	adc	r27, r27
    1004:	62 17       	cp	r22, r18
    1006:	73 07       	cpc	r23, r19
    1008:	84 07       	cpc	r24, r20
    100a:	ba 07       	cpc	r27, r26
    100c:	20 f0       	brcs	.+8      	; 0x1016 <__divsf3_pse+0xae>
    100e:	62 1b       	sub	r22, r18
    1010:	73 0b       	sbc	r23, r19
    1012:	84 0b       	sbc	r24, r20
    1014:	ba 0b       	sbc	r27, r26
    1016:	ee 1f       	adc	r30, r30
    1018:	88 f7       	brcc	.-30     	; 0xffc <__divsf3_pse+0x94>
    101a:	e0 95       	com	r30
    101c:	08 95       	ret

0000101e <__fixsfsi>:
    101e:	0e 94 16 08 	call	0x102c	; 0x102c <__fixunssfsi>
    1022:	68 94       	set
    1024:	b1 11       	cpse	r27, r1
    1026:	0c 94 f1 08 	jmp	0x11e2	; 0x11e2 <__fp_szero>
    102a:	08 95       	ret

0000102c <__fixunssfsi>:
    102c:	0e 94 d6 08 	call	0x11ac	; 0x11ac <__fp_splitA>
    1030:	88 f0       	brcs	.+34     	; 0x1054 <__fixunssfsi+0x28>
    1032:	9f 57       	subi	r25, 0x7F	; 127
    1034:	98 f0       	brcs	.+38     	; 0x105c <__fixunssfsi+0x30>
    1036:	b9 2f       	mov	r27, r25
    1038:	99 27       	eor	r25, r25
    103a:	b7 51       	subi	r27, 0x17	; 23
    103c:	b0 f0       	brcs	.+44     	; 0x106a <__fixunssfsi+0x3e>
    103e:	e1 f0       	breq	.+56     	; 0x1078 <__fixunssfsi+0x4c>
    1040:	66 0f       	add	r22, r22
    1042:	77 1f       	adc	r23, r23
    1044:	88 1f       	adc	r24, r24
    1046:	99 1f       	adc	r25, r25
    1048:	1a f0       	brmi	.+6      	; 0x1050 <__fixunssfsi+0x24>
    104a:	ba 95       	dec	r27
    104c:	c9 f7       	brne	.-14     	; 0x1040 <__fixunssfsi+0x14>
    104e:	14 c0       	rjmp	.+40     	; 0x1078 <__fixunssfsi+0x4c>
    1050:	b1 30       	cpi	r27, 0x01	; 1
    1052:	91 f0       	breq	.+36     	; 0x1078 <__fixunssfsi+0x4c>
    1054:	0e 94 f0 08 	call	0x11e0	; 0x11e0 <__fp_zero>
    1058:	b1 e0       	ldi	r27, 0x01	; 1
    105a:	08 95       	ret
    105c:	0c 94 f0 08 	jmp	0x11e0	; 0x11e0 <__fp_zero>
    1060:	67 2f       	mov	r22, r23
    1062:	78 2f       	mov	r23, r24
    1064:	88 27       	eor	r24, r24
    1066:	b8 5f       	subi	r27, 0xF8	; 248
    1068:	39 f0       	breq	.+14     	; 0x1078 <__fixunssfsi+0x4c>
    106a:	b9 3f       	cpi	r27, 0xF9	; 249
    106c:	cc f3       	brlt	.-14     	; 0x1060 <__fixunssfsi+0x34>
    106e:	86 95       	lsr	r24
    1070:	77 95       	ror	r23
    1072:	67 95       	ror	r22
    1074:	b3 95       	inc	r27
    1076:	d9 f7       	brne	.-10     	; 0x106e <__fixunssfsi+0x42>
    1078:	3e f4       	brtc	.+14     	; 0x1088 <__fixunssfsi+0x5c>
    107a:	90 95       	com	r25
    107c:	80 95       	com	r24
    107e:	70 95       	com	r23
    1080:	61 95       	neg	r22
    1082:	7f 4f       	sbci	r23, 0xFF	; 255
    1084:	8f 4f       	sbci	r24, 0xFF	; 255
    1086:	9f 4f       	sbci	r25, 0xFF	; 255
    1088:	08 95       	ret

0000108a <__floatunsisf>:
    108a:	e8 94       	clt
    108c:	09 c0       	rjmp	.+18     	; 0x10a0 <__floatsisf+0x12>

0000108e <__floatsisf>:
    108e:	97 fb       	bst	r25, 7
    1090:	3e f4       	brtc	.+14     	; 0x10a0 <__floatsisf+0x12>
    1092:	90 95       	com	r25
    1094:	80 95       	com	r24
    1096:	70 95       	com	r23
    1098:	61 95       	neg	r22
    109a:	7f 4f       	sbci	r23, 0xFF	; 255
    109c:	8f 4f       	sbci	r24, 0xFF	; 255
    109e:	9f 4f       	sbci	r25, 0xFF	; 255
    10a0:	99 23       	and	r25, r25
    10a2:	a9 f0       	breq	.+42     	; 0x10ce <__floatsisf+0x40>
    10a4:	f9 2f       	mov	r31, r25
    10a6:	96 e9       	ldi	r25, 0x96	; 150
    10a8:	bb 27       	eor	r27, r27
    10aa:	93 95       	inc	r25
    10ac:	f6 95       	lsr	r31
    10ae:	87 95       	ror	r24
    10b0:	77 95       	ror	r23
    10b2:	67 95       	ror	r22
    10b4:	b7 95       	ror	r27
    10b6:	f1 11       	cpse	r31, r1
    10b8:	f8 cf       	rjmp	.-16     	; 0x10aa <__floatsisf+0x1c>
    10ba:	fa f4       	brpl	.+62     	; 0x10fa <__floatsisf+0x6c>
    10bc:	bb 0f       	add	r27, r27
    10be:	11 f4       	brne	.+4      	; 0x10c4 <__floatsisf+0x36>
    10c0:	60 ff       	sbrs	r22, 0
    10c2:	1b c0       	rjmp	.+54     	; 0x10fa <__floatsisf+0x6c>
    10c4:	6f 5f       	subi	r22, 0xFF	; 255
    10c6:	7f 4f       	sbci	r23, 0xFF	; 255
    10c8:	8f 4f       	sbci	r24, 0xFF	; 255
    10ca:	9f 4f       	sbci	r25, 0xFF	; 255
    10cc:	16 c0       	rjmp	.+44     	; 0x10fa <__floatsisf+0x6c>
    10ce:	88 23       	and	r24, r24
    10d0:	11 f0       	breq	.+4      	; 0x10d6 <__floatsisf+0x48>
    10d2:	96 e9       	ldi	r25, 0x96	; 150
    10d4:	11 c0       	rjmp	.+34     	; 0x10f8 <__floatsisf+0x6a>
    10d6:	77 23       	and	r23, r23
    10d8:	21 f0       	breq	.+8      	; 0x10e2 <__floatsisf+0x54>
    10da:	9e e8       	ldi	r25, 0x8E	; 142
    10dc:	87 2f       	mov	r24, r23
    10de:	76 2f       	mov	r23, r22
    10e0:	05 c0       	rjmp	.+10     	; 0x10ec <__floatsisf+0x5e>
    10e2:	66 23       	and	r22, r22
    10e4:	71 f0       	breq	.+28     	; 0x1102 <__floatsisf+0x74>
    10e6:	96 e8       	ldi	r25, 0x86	; 134
    10e8:	86 2f       	mov	r24, r22
    10ea:	70 e0       	ldi	r23, 0x00	; 0
    10ec:	60 e0       	ldi	r22, 0x00	; 0
    10ee:	2a f0       	brmi	.+10     	; 0x10fa <__floatsisf+0x6c>
    10f0:	9a 95       	dec	r25
    10f2:	66 0f       	add	r22, r22
    10f4:	77 1f       	adc	r23, r23
    10f6:	88 1f       	adc	r24, r24
    10f8:	da f7       	brpl	.-10     	; 0x10f0 <__floatsisf+0x62>
    10fa:	88 0f       	add	r24, r24
    10fc:	96 95       	lsr	r25
    10fe:	87 95       	ror	r24
    1100:	97 f9       	bld	r25, 7
    1102:	08 95       	ret

00001104 <__fp_cmp>:
    1104:	99 0f       	add	r25, r25
    1106:	00 08       	sbc	r0, r0
    1108:	55 0f       	add	r21, r21
    110a:	aa 0b       	sbc	r26, r26
    110c:	e0 e8       	ldi	r30, 0x80	; 128
    110e:	fe ef       	ldi	r31, 0xFE	; 254
    1110:	16 16       	cp	r1, r22
    1112:	17 06       	cpc	r1, r23
    1114:	e8 07       	cpc	r30, r24
    1116:	f9 07       	cpc	r31, r25
    1118:	c0 f0       	brcs	.+48     	; 0x114a <__fp_cmp+0x46>
    111a:	12 16       	cp	r1, r18
    111c:	13 06       	cpc	r1, r19
    111e:	e4 07       	cpc	r30, r20
    1120:	f5 07       	cpc	r31, r21
    1122:	98 f0       	brcs	.+38     	; 0x114a <__fp_cmp+0x46>
    1124:	62 1b       	sub	r22, r18
    1126:	73 0b       	sbc	r23, r19
    1128:	84 0b       	sbc	r24, r20
    112a:	95 0b       	sbc	r25, r21
    112c:	39 f4       	brne	.+14     	; 0x113c <__fp_cmp+0x38>
    112e:	0a 26       	eor	r0, r26
    1130:	61 f0       	breq	.+24     	; 0x114a <__fp_cmp+0x46>
    1132:	23 2b       	or	r18, r19
    1134:	24 2b       	or	r18, r20
    1136:	25 2b       	or	r18, r21
    1138:	21 f4       	brne	.+8      	; 0x1142 <__fp_cmp+0x3e>
    113a:	08 95       	ret
    113c:	0a 26       	eor	r0, r26
    113e:	09 f4       	brne	.+2      	; 0x1142 <__fp_cmp+0x3e>
    1140:	a1 40       	sbci	r26, 0x01	; 1
    1142:	a6 95       	lsr	r26
    1144:	8f ef       	ldi	r24, 0xFF	; 255
    1146:	81 1d       	adc	r24, r1
    1148:	81 1d       	adc	r24, r1
    114a:	08 95       	ret

0000114c <__fp_inf>:
    114c:	97 f9       	bld	r25, 7
    114e:	9f 67       	ori	r25, 0x7F	; 127
    1150:	80 e8       	ldi	r24, 0x80	; 128
    1152:	70 e0       	ldi	r23, 0x00	; 0
    1154:	60 e0       	ldi	r22, 0x00	; 0
    1156:	08 95       	ret

00001158 <__fp_nan>:
    1158:	9f ef       	ldi	r25, 0xFF	; 255
    115a:	80 ec       	ldi	r24, 0xC0	; 192
    115c:	08 95       	ret

0000115e <__fp_pscA>:
    115e:	00 24       	eor	r0, r0
    1160:	0a 94       	dec	r0
    1162:	16 16       	cp	r1, r22
    1164:	17 06       	cpc	r1, r23
    1166:	18 06       	cpc	r1, r24
    1168:	09 06       	cpc	r0, r25
    116a:	08 95       	ret

0000116c <__fp_pscB>:
    116c:	00 24       	eor	r0, r0
    116e:	0a 94       	dec	r0
    1170:	12 16       	cp	r1, r18
    1172:	13 06       	cpc	r1, r19
    1174:	14 06       	cpc	r1, r20
    1176:	05 06       	cpc	r0, r21
    1178:	08 95       	ret

0000117a <__fp_round>:
    117a:	09 2e       	mov	r0, r25
    117c:	03 94       	inc	r0
    117e:	00 0c       	add	r0, r0
    1180:	11 f4       	brne	.+4      	; 0x1186 <__fp_round+0xc>
    1182:	88 23       	and	r24, r24
    1184:	52 f0       	brmi	.+20     	; 0x119a <__fp_round+0x20>
    1186:	bb 0f       	add	r27, r27
    1188:	40 f4       	brcc	.+16     	; 0x119a <__fp_round+0x20>
    118a:	bf 2b       	or	r27, r31
    118c:	11 f4       	brne	.+4      	; 0x1192 <__fp_round+0x18>
    118e:	60 ff       	sbrs	r22, 0
    1190:	04 c0       	rjmp	.+8      	; 0x119a <__fp_round+0x20>
    1192:	6f 5f       	subi	r22, 0xFF	; 255
    1194:	7f 4f       	sbci	r23, 0xFF	; 255
    1196:	8f 4f       	sbci	r24, 0xFF	; 255
    1198:	9f 4f       	sbci	r25, 0xFF	; 255
    119a:	08 95       	ret

0000119c <__fp_split3>:
    119c:	57 fd       	sbrc	r21, 7
    119e:	90 58       	subi	r25, 0x80	; 128
    11a0:	44 0f       	add	r20, r20
    11a2:	55 1f       	adc	r21, r21
    11a4:	59 f0       	breq	.+22     	; 0x11bc <__fp_splitA+0x10>
    11a6:	5f 3f       	cpi	r21, 0xFF	; 255
    11a8:	71 f0       	breq	.+28     	; 0x11c6 <__fp_splitA+0x1a>
    11aa:	47 95       	ror	r20

000011ac <__fp_splitA>:
    11ac:	88 0f       	add	r24, r24
    11ae:	97 fb       	bst	r25, 7
    11b0:	99 1f       	adc	r25, r25
    11b2:	61 f0       	breq	.+24     	; 0x11cc <__fp_splitA+0x20>
    11b4:	9f 3f       	cpi	r25, 0xFF	; 255
    11b6:	79 f0       	breq	.+30     	; 0x11d6 <__fp_splitA+0x2a>
    11b8:	87 95       	ror	r24
    11ba:	08 95       	ret
    11bc:	12 16       	cp	r1, r18
    11be:	13 06       	cpc	r1, r19
    11c0:	14 06       	cpc	r1, r20
    11c2:	55 1f       	adc	r21, r21
    11c4:	f2 cf       	rjmp	.-28     	; 0x11aa <__fp_split3+0xe>
    11c6:	46 95       	lsr	r20
    11c8:	f1 df       	rcall	.-30     	; 0x11ac <__fp_splitA>
    11ca:	08 c0       	rjmp	.+16     	; 0x11dc <__fp_splitA+0x30>
    11cc:	16 16       	cp	r1, r22
    11ce:	17 06       	cpc	r1, r23
    11d0:	18 06       	cpc	r1, r24
    11d2:	99 1f       	adc	r25, r25
    11d4:	f1 cf       	rjmp	.-30     	; 0x11b8 <__fp_splitA+0xc>
    11d6:	86 95       	lsr	r24
    11d8:	71 05       	cpc	r23, r1
    11da:	61 05       	cpc	r22, r1
    11dc:	08 94       	sec
    11de:	08 95       	ret

000011e0 <__fp_zero>:
    11e0:	e8 94       	clt

000011e2 <__fp_szero>:
    11e2:	bb 27       	eor	r27, r27
    11e4:	66 27       	eor	r22, r22
    11e6:	77 27       	eor	r23, r23
    11e8:	cb 01       	movw	r24, r22
    11ea:	97 f9       	bld	r25, 7
    11ec:	08 95       	ret

000011ee <__gesf2>:
    11ee:	0e 94 82 08 	call	0x1104	; 0x1104 <__fp_cmp>
    11f2:	08 f4       	brcc	.+2      	; 0x11f6 <__gesf2+0x8>
    11f4:	8f ef       	ldi	r24, 0xFF	; 255
    11f6:	08 95       	ret

000011f8 <__mulsf3>:
    11f8:	0e 94 0f 09 	call	0x121e	; 0x121e <__mulsf3x>
    11fc:	0c 94 bd 08 	jmp	0x117a	; 0x117a <__fp_round>
    1200:	0e 94 af 08 	call	0x115e	; 0x115e <__fp_pscA>
    1204:	38 f0       	brcs	.+14     	; 0x1214 <__mulsf3+0x1c>
    1206:	0e 94 b6 08 	call	0x116c	; 0x116c <__fp_pscB>
    120a:	20 f0       	brcs	.+8      	; 0x1214 <__mulsf3+0x1c>
    120c:	95 23       	and	r25, r21
    120e:	11 f0       	breq	.+4      	; 0x1214 <__mulsf3+0x1c>
    1210:	0c 94 a6 08 	jmp	0x114c	; 0x114c <__fp_inf>
    1214:	0c 94 ac 08 	jmp	0x1158	; 0x1158 <__fp_nan>
    1218:	11 24       	eor	r1, r1
    121a:	0c 94 f1 08 	jmp	0x11e2	; 0x11e2 <__fp_szero>

0000121e <__mulsf3x>:
    121e:	0e 94 ce 08 	call	0x119c	; 0x119c <__fp_split3>
    1222:	70 f3       	brcs	.-36     	; 0x1200 <__mulsf3+0x8>

00001224 <__mulsf3_pse>:
    1224:	95 9f       	mul	r25, r21
    1226:	c1 f3       	breq	.-16     	; 0x1218 <__mulsf3+0x20>
    1228:	95 0f       	add	r25, r21
    122a:	50 e0       	ldi	r21, 0x00	; 0
    122c:	55 1f       	adc	r21, r21
    122e:	62 9f       	mul	r22, r18
    1230:	f0 01       	movw	r30, r0
    1232:	72 9f       	mul	r23, r18
    1234:	bb 27       	eor	r27, r27
    1236:	f0 0d       	add	r31, r0
    1238:	b1 1d       	adc	r27, r1
    123a:	63 9f       	mul	r22, r19
    123c:	aa 27       	eor	r26, r26
    123e:	f0 0d       	add	r31, r0
    1240:	b1 1d       	adc	r27, r1
    1242:	aa 1f       	adc	r26, r26
    1244:	64 9f       	mul	r22, r20
    1246:	66 27       	eor	r22, r22
    1248:	b0 0d       	add	r27, r0
    124a:	a1 1d       	adc	r26, r1
    124c:	66 1f       	adc	r22, r22
    124e:	82 9f       	mul	r24, r18
    1250:	22 27       	eor	r18, r18
    1252:	b0 0d       	add	r27, r0
    1254:	a1 1d       	adc	r26, r1
    1256:	62 1f       	adc	r22, r18
    1258:	73 9f       	mul	r23, r19
    125a:	b0 0d       	add	r27, r0
    125c:	a1 1d       	adc	r26, r1
    125e:	62 1f       	adc	r22, r18
    1260:	83 9f       	mul	r24, r19
    1262:	a0 0d       	add	r26, r0
    1264:	61 1d       	adc	r22, r1
    1266:	22 1f       	adc	r18, r18
    1268:	74 9f       	mul	r23, r20
    126a:	33 27       	eor	r19, r19
    126c:	a0 0d       	add	r26, r0
    126e:	61 1d       	adc	r22, r1
    1270:	23 1f       	adc	r18, r19
    1272:	84 9f       	mul	r24, r20
    1274:	60 0d       	add	r22, r0
    1276:	21 1d       	adc	r18, r1
    1278:	82 2f       	mov	r24, r18
    127a:	76 2f       	mov	r23, r22
    127c:	6a 2f       	mov	r22, r26
    127e:	11 24       	eor	r1, r1
    1280:	9f 57       	subi	r25, 0x7F	; 127
    1282:	50 40       	sbci	r21, 0x00	; 0
    1284:	9a f0       	brmi	.+38     	; 0x12ac <__mulsf3_pse+0x88>
    1286:	f1 f0       	breq	.+60     	; 0x12c4 <__mulsf3_pse+0xa0>
    1288:	88 23       	and	r24, r24
    128a:	4a f0       	brmi	.+18     	; 0x129e <__mulsf3_pse+0x7a>
    128c:	ee 0f       	add	r30, r30
    128e:	ff 1f       	adc	r31, r31
    1290:	bb 1f       	adc	r27, r27
    1292:	66 1f       	adc	r22, r22
    1294:	77 1f       	adc	r23, r23
    1296:	88 1f       	adc	r24, r24
    1298:	91 50       	subi	r25, 0x01	; 1
    129a:	50 40       	sbci	r21, 0x00	; 0
    129c:	a9 f7       	brne	.-22     	; 0x1288 <__mulsf3_pse+0x64>
    129e:	9e 3f       	cpi	r25, 0xFE	; 254
    12a0:	51 05       	cpc	r21, r1
    12a2:	80 f0       	brcs	.+32     	; 0x12c4 <__mulsf3_pse+0xa0>
    12a4:	0c 94 a6 08 	jmp	0x114c	; 0x114c <__fp_inf>
    12a8:	0c 94 f1 08 	jmp	0x11e2	; 0x11e2 <__fp_szero>
    12ac:	5f 3f       	cpi	r21, 0xFF	; 255
    12ae:	e4 f3       	brlt	.-8      	; 0x12a8 <__mulsf3_pse+0x84>
    12b0:	98 3e       	cpi	r25, 0xE8	; 232
    12b2:	d4 f3       	brlt	.-12     	; 0x12a8 <__mulsf3_pse+0x84>
    12b4:	86 95       	lsr	r24
    12b6:	77 95       	ror	r23
    12b8:	67 95       	ror	r22
    12ba:	b7 95       	ror	r27
    12bc:	f7 95       	ror	r31
    12be:	e7 95       	ror	r30
    12c0:	9f 5f       	subi	r25, 0xFF	; 255
    12c2:	c1 f7       	brne	.-16     	; 0x12b4 <__mulsf3_pse+0x90>
    12c4:	fe 2b       	or	r31, r30
    12c6:	88 0f       	add	r24, r24
    12c8:	91 1d       	adc	r25, r1
    12ca:	96 95       	lsr	r25
    12cc:	87 95       	ror	r24
    12ce:	97 f9       	bld	r25, 7
    12d0:	08 95       	ret

000012d2 <__udivmodsi4>:
    12d2:	a1 e2       	ldi	r26, 0x21	; 33
    12d4:	1a 2e       	mov	r1, r26
    12d6:	aa 1b       	sub	r26, r26
    12d8:	bb 1b       	sub	r27, r27
    12da:	fd 01       	movw	r30, r26
    12dc:	0d c0       	rjmp	.+26     	; 0x12f8 <__udivmodsi4_ep>

000012de <__udivmodsi4_loop>:
    12de:	aa 1f       	adc	r26, r26
    12e0:	bb 1f       	adc	r27, r27
    12e2:	ee 1f       	adc	r30, r30
    12e4:	ff 1f       	adc	r31, r31
    12e6:	a2 17       	cp	r26, r18
    12e8:	b3 07       	cpc	r27, r19
    12ea:	e4 07       	cpc	r30, r20
    12ec:	f5 07       	cpc	r31, r21
    12ee:	20 f0       	brcs	.+8      	; 0x12f8 <__udivmodsi4_ep>
    12f0:	a2 1b       	sub	r26, r18
    12f2:	b3 0b       	sbc	r27, r19
    12f4:	e4 0b       	sbc	r30, r20
    12f6:	f5 0b       	sbc	r31, r21

000012f8 <__udivmodsi4_ep>:
    12f8:	66 1f       	adc	r22, r22
    12fa:	77 1f       	adc	r23, r23
    12fc:	88 1f       	adc	r24, r24
    12fe:	99 1f       	adc	r25, r25
    1300:	1a 94       	dec	r1
    1302:	69 f7       	brne	.-38     	; 0x12de <__udivmodsi4_loop>
    1304:	60 95       	com	r22
    1306:	70 95       	com	r23
    1308:	80 95       	com	r24
    130a:	90 95       	com	r25
    130c:	9b 01       	movw	r18, r22
    130e:	ac 01       	movw	r20, r24
    1310:	bd 01       	movw	r22, r26
    1312:	cf 01       	movw	r24, r30
    1314:	08 95       	ret

00001316 <dtostrf>:
    1316:	ef 92       	push	r14
    1318:	0f 93       	push	r16
    131a:	1f 93       	push	r17
    131c:	cf 93       	push	r28
    131e:	df 93       	push	r29
    1320:	e8 01       	movw	r28, r16
    1322:	47 fd       	sbrc	r20, 7
    1324:	02 c0       	rjmp	.+4      	; 0x132a <dtostrf+0x14>
    1326:	34 e0       	ldi	r19, 0x04	; 4
    1328:	01 c0       	rjmp	.+2      	; 0x132c <dtostrf+0x16>
    132a:	34 e1       	ldi	r19, 0x14	; 20
    132c:	04 2e       	mov	r0, r20
    132e:	00 0c       	add	r0, r0
    1330:	55 0b       	sbc	r21, r21
    1332:	57 ff       	sbrs	r21, 7
    1334:	03 c0       	rjmp	.+6      	; 0x133c <dtostrf+0x26>
    1336:	51 95       	neg	r21
    1338:	41 95       	neg	r20
    133a:	51 09       	sbc	r21, r1
    133c:	e3 2e       	mov	r14, r19
    133e:	02 2f       	mov	r16, r18
    1340:	24 2f       	mov	r18, r20
    1342:	ae 01       	movw	r20, r28
    1344:	0e 94 1a 0c 	call	0x1834	; 0x1834 <dtoa_prf>
    1348:	ce 01       	movw	r24, r28
    134a:	df 91       	pop	r29
    134c:	cf 91       	pop	r28
    134e:	1f 91       	pop	r17
    1350:	0f 91       	pop	r16
    1352:	ef 90       	pop	r14
    1354:	08 95       	ret

00001356 <atof>:
    1356:	66 27       	eor	r22, r22
    1358:	77 27       	eor	r23, r23
    135a:	0c 94 74 0d 	jmp	0x1ae8	; 0x1ae8 <strtod>

0000135e <atol>:
    135e:	1f 93       	push	r17
    1360:	fc 01       	movw	r30, r24
    1362:	99 27       	eor	r25, r25
    1364:	88 27       	eor	r24, r24
    1366:	bc 01       	movw	r22, r24
    1368:	e8 94       	clt
    136a:	11 91       	ld	r17, Z+
    136c:	10 32       	cpi	r17, 0x20	; 32
    136e:	e9 f3       	breq	.-6      	; 0x136a <atol+0xc>
    1370:	19 30       	cpi	r17, 0x09	; 9
    1372:	10 f0       	brcs	.+4      	; 0x1378 <atol+0x1a>
    1374:	1e 30       	cpi	r17, 0x0E	; 14
    1376:	c8 f3       	brcs	.-14     	; 0x136a <atol+0xc>
    1378:	1b 32       	cpi	r17, 0x2B	; 43
    137a:	51 f0       	breq	.+20     	; 0x1390 <atol+0x32>
    137c:	1d 32       	cpi	r17, 0x2D	; 45
    137e:	49 f4       	brne	.+18     	; 0x1392 <atol+0x34>
    1380:	68 94       	set
    1382:	06 c0       	rjmp	.+12     	; 0x1390 <atol+0x32>
    1384:	0e 94 e8 09 	call	0x13d0	; 0x13d0 <__mulsi_const_10>
    1388:	61 0f       	add	r22, r17
    138a:	71 1d       	adc	r23, r1
    138c:	81 1d       	adc	r24, r1
    138e:	91 1d       	adc	r25, r1
    1390:	11 91       	ld	r17, Z+
    1392:	10 53       	subi	r17, 0x30	; 48
    1394:	1a 30       	cpi	r17, 0x0A	; 10
    1396:	b0 f3       	brcs	.-20     	; 0x1384 <atol+0x26>
    1398:	3e f4       	brtc	.+14     	; 0x13a8 <atol+0x4a>
    139a:	90 95       	com	r25
    139c:	80 95       	com	r24
    139e:	70 95       	com	r23
    13a0:	61 95       	neg	r22
    13a2:	7f 4f       	sbci	r23, 0xFF	; 255
    13a4:	8f 4f       	sbci	r24, 0xFF	; 255
    13a6:	9f 4f       	sbci	r25, 0xFF	; 255
    13a8:	1f 91       	pop	r17
    13aa:	08 95       	ret

000013ac <strcpy>:
    13ac:	fb 01       	movw	r30, r22
    13ae:	dc 01       	movw	r26, r24
    13b0:	01 90       	ld	r0, Z+
    13b2:	0d 92       	st	X+, r0
    13b4:	00 20       	and	r0, r0
    13b6:	e1 f7       	brne	.-8      	; 0x13b0 <strcpy+0x4>
    13b8:	08 95       	ret

000013ba <__itoa_ncheck>:
    13ba:	bb 27       	eor	r27, r27
    13bc:	4a 30       	cpi	r20, 0x0A	; 10
    13be:	31 f4       	brne	.+12     	; 0x13cc <__itoa_ncheck+0x12>
    13c0:	99 23       	and	r25, r25
    13c2:	22 f4       	brpl	.+8      	; 0x13cc <__itoa_ncheck+0x12>
    13c4:	bd e2       	ldi	r27, 0x2D	; 45
    13c6:	90 95       	com	r25
    13c8:	81 95       	neg	r24
    13ca:	9f 4f       	sbci	r25, 0xFF	; 255
    13cc:	0c 94 fe 09 	jmp	0x13fc	; 0x13fc <__utoa_common>

000013d0 <__mulsi_const_10>:
    13d0:	59 2f       	mov	r21, r25
    13d2:	48 2f       	mov	r20, r24
    13d4:	37 2f       	mov	r19, r23
    13d6:	26 2f       	mov	r18, r22
    13d8:	66 0f       	add	r22, r22
    13da:	77 1f       	adc	r23, r23
    13dc:	88 1f       	adc	r24, r24
    13de:	99 1f       	adc	r25, r25
    13e0:	66 0f       	add	r22, r22
    13e2:	77 1f       	adc	r23, r23
    13e4:	88 1f       	adc	r24, r24
    13e6:	99 1f       	adc	r25, r25
    13e8:	62 0f       	add	r22, r18
    13ea:	73 1f       	adc	r23, r19
    13ec:	84 1f       	adc	r24, r20
    13ee:	95 1f       	adc	r25, r21
    13f0:	66 0f       	add	r22, r22
    13f2:	77 1f       	adc	r23, r23
    13f4:	88 1f       	adc	r24, r24
    13f6:	99 1f       	adc	r25, r25
    13f8:	08 95       	ret

000013fa <__utoa_ncheck>:
    13fa:	bb 27       	eor	r27, r27

000013fc <__utoa_common>:
    13fc:	fb 01       	movw	r30, r22
    13fe:	55 27       	eor	r21, r21
    1400:	aa 27       	eor	r26, r26
    1402:	88 0f       	add	r24, r24
    1404:	99 1f       	adc	r25, r25
    1406:	aa 1f       	adc	r26, r26
    1408:	a4 17       	cp	r26, r20
    140a:	10 f0       	brcs	.+4      	; 0x1410 <__utoa_common+0x14>
    140c:	a4 1b       	sub	r26, r20
    140e:	83 95       	inc	r24
    1410:	50 51       	subi	r21, 0x10	; 16
    1412:	b9 f7       	brne	.-18     	; 0x1402 <__utoa_common+0x6>
    1414:	a0 5d       	subi	r26, 0xD0	; 208
    1416:	aa 33       	cpi	r26, 0x3A	; 58
    1418:	08 f0       	brcs	.+2      	; 0x141c <__utoa_common+0x20>
    141a:	a9 5d       	subi	r26, 0xD9	; 217
    141c:	a1 93       	st	Z+, r26
    141e:	00 97       	sbiw	r24, 0x00	; 0
    1420:	79 f7       	brne	.-34     	; 0x1400 <__utoa_common+0x4>
    1422:	b1 11       	cpse	r27, r1
    1424:	b1 93       	st	Z+, r27
    1426:	11 92       	st	Z+, r1
    1428:	cb 01       	movw	r24, r22
    142a:	0c 94 d1 0f 	jmp	0x1fa2	; 0x1fa2 <strrev>

0000142e <sprintf>:
    142e:	ae e0       	ldi	r26, 0x0E	; 14
    1430:	b0 e0       	ldi	r27, 0x00	; 0
    1432:	ed e1       	ldi	r30, 0x1D	; 29
    1434:	fa e0       	ldi	r31, 0x0A	; 10
    1436:	0c 94 97 10 	jmp	0x212e	; 0x212e <__prologue_saves__+0x1c>
    143a:	0d 89       	ldd	r16, Y+21	; 0x15
    143c:	1e 89       	ldd	r17, Y+22	; 0x16
    143e:	86 e0       	ldi	r24, 0x06	; 6
    1440:	8c 83       	std	Y+4, r24	; 0x04
    1442:	1a 83       	std	Y+2, r17	; 0x02
    1444:	09 83       	std	Y+1, r16	; 0x01
    1446:	8f ef       	ldi	r24, 0xFF	; 255
    1448:	9f e7       	ldi	r25, 0x7F	; 127
    144a:	9e 83       	std	Y+6, r25	; 0x06
    144c:	8d 83       	std	Y+5, r24	; 0x05
    144e:	ae 01       	movw	r20, r28
    1450:	47 5e       	subi	r20, 0xE7	; 231
    1452:	5f 4f       	sbci	r21, 0xFF	; 255
    1454:	6f 89       	ldd	r22, Y+23	; 0x17
    1456:	78 8d       	ldd	r23, Y+24	; 0x18
    1458:	ce 01       	movw	r24, r28
    145a:	01 96       	adiw	r24, 0x01	; 1
    145c:	0e 94 39 0a 	call	0x1472	; 0x1472 <vfprintf>
    1460:	ef 81       	ldd	r30, Y+7	; 0x07
    1462:	f8 85       	ldd	r31, Y+8	; 0x08
    1464:	e0 0f       	add	r30, r16
    1466:	f1 1f       	adc	r31, r17
    1468:	10 82       	st	Z, r1
    146a:	2e 96       	adiw	r28, 0x0e	; 14
    146c:	e4 e0       	ldi	r30, 0x04	; 4
    146e:	0c 94 b3 10 	jmp	0x2166	; 0x2166 <__epilogue_restores__+0x1c>

00001472 <vfprintf>:
    1472:	ab e0       	ldi	r26, 0x0B	; 11
    1474:	b0 e0       	ldi	r27, 0x00	; 0
    1476:	ef e3       	ldi	r30, 0x3F	; 63
    1478:	fa e0       	ldi	r31, 0x0A	; 10
    147a:	0c 94 89 10 	jmp	0x2112	; 0x2112 <__prologue_saves__>
    147e:	6c 01       	movw	r12, r24
    1480:	7b 01       	movw	r14, r22
    1482:	8a 01       	movw	r16, r20
    1484:	fc 01       	movw	r30, r24
    1486:	17 82       	std	Z+7, r1	; 0x07
    1488:	16 82       	std	Z+6, r1	; 0x06
    148a:	83 81       	ldd	r24, Z+3	; 0x03
    148c:	81 ff       	sbrs	r24, 1
    148e:	cc c1       	rjmp	.+920    	; 0x1828 <vfprintf+0x3b6>
    1490:	ce 01       	movw	r24, r28
    1492:	01 96       	adiw	r24, 0x01	; 1
    1494:	3c 01       	movw	r6, r24
    1496:	f6 01       	movw	r30, r12
    1498:	93 81       	ldd	r25, Z+3	; 0x03
    149a:	f7 01       	movw	r30, r14
    149c:	93 fd       	sbrc	r25, 3
    149e:	85 91       	lpm	r24, Z+
    14a0:	93 ff       	sbrs	r25, 3
    14a2:	81 91       	ld	r24, Z+
    14a4:	7f 01       	movw	r14, r30
    14a6:	88 23       	and	r24, r24
    14a8:	09 f4       	brne	.+2      	; 0x14ac <vfprintf+0x3a>
    14aa:	ba c1       	rjmp	.+884    	; 0x1820 <vfprintf+0x3ae>
    14ac:	85 32       	cpi	r24, 0x25	; 37
    14ae:	39 f4       	brne	.+14     	; 0x14be <vfprintf+0x4c>
    14b0:	93 fd       	sbrc	r25, 3
    14b2:	85 91       	lpm	r24, Z+
    14b4:	93 ff       	sbrs	r25, 3
    14b6:	81 91       	ld	r24, Z+
    14b8:	7f 01       	movw	r14, r30
    14ba:	85 32       	cpi	r24, 0x25	; 37
    14bc:	29 f4       	brne	.+10     	; 0x14c8 <vfprintf+0x56>
    14be:	b6 01       	movw	r22, r12
    14c0:	90 e0       	ldi	r25, 0x00	; 0
    14c2:	0e 94 e1 0f 	call	0x1fc2	; 0x1fc2 <fputc>
    14c6:	e7 cf       	rjmp	.-50     	; 0x1496 <vfprintf+0x24>
    14c8:	91 2c       	mov	r9, r1
    14ca:	21 2c       	mov	r2, r1
    14cc:	31 2c       	mov	r3, r1
    14ce:	ff e1       	ldi	r31, 0x1F	; 31
    14d0:	f3 15       	cp	r31, r3
    14d2:	d8 f0       	brcs	.+54     	; 0x150a <vfprintf+0x98>
    14d4:	8b 32       	cpi	r24, 0x2B	; 43
    14d6:	79 f0       	breq	.+30     	; 0x14f6 <vfprintf+0x84>
    14d8:	38 f4       	brcc	.+14     	; 0x14e8 <vfprintf+0x76>
    14da:	80 32       	cpi	r24, 0x20	; 32
    14dc:	79 f0       	breq	.+30     	; 0x14fc <vfprintf+0x8a>
    14de:	83 32       	cpi	r24, 0x23	; 35
    14e0:	a1 f4       	brne	.+40     	; 0x150a <vfprintf+0x98>
    14e2:	23 2d       	mov	r18, r3
    14e4:	20 61       	ori	r18, 0x10	; 16
    14e6:	1d c0       	rjmp	.+58     	; 0x1522 <vfprintf+0xb0>
    14e8:	8d 32       	cpi	r24, 0x2D	; 45
    14ea:	61 f0       	breq	.+24     	; 0x1504 <vfprintf+0x92>
    14ec:	80 33       	cpi	r24, 0x30	; 48
    14ee:	69 f4       	brne	.+26     	; 0x150a <vfprintf+0x98>
    14f0:	23 2d       	mov	r18, r3
    14f2:	21 60       	ori	r18, 0x01	; 1
    14f4:	16 c0       	rjmp	.+44     	; 0x1522 <vfprintf+0xb0>
    14f6:	83 2d       	mov	r24, r3
    14f8:	82 60       	ori	r24, 0x02	; 2
    14fa:	38 2e       	mov	r3, r24
    14fc:	e3 2d       	mov	r30, r3
    14fe:	e4 60       	ori	r30, 0x04	; 4
    1500:	3e 2e       	mov	r3, r30
    1502:	2a c0       	rjmp	.+84     	; 0x1558 <vfprintf+0xe6>
    1504:	f3 2d       	mov	r31, r3
    1506:	f8 60       	ori	r31, 0x08	; 8
    1508:	1d c0       	rjmp	.+58     	; 0x1544 <vfprintf+0xd2>
    150a:	37 fc       	sbrc	r3, 7
    150c:	2d c0       	rjmp	.+90     	; 0x1568 <vfprintf+0xf6>
    150e:	20 ed       	ldi	r18, 0xD0	; 208
    1510:	28 0f       	add	r18, r24
    1512:	2a 30       	cpi	r18, 0x0A	; 10
    1514:	40 f0       	brcs	.+16     	; 0x1526 <vfprintf+0xb4>
    1516:	8e 32       	cpi	r24, 0x2E	; 46
    1518:	b9 f4       	brne	.+46     	; 0x1548 <vfprintf+0xd6>
    151a:	36 fc       	sbrc	r3, 6
    151c:	81 c1       	rjmp	.+770    	; 0x1820 <vfprintf+0x3ae>
    151e:	23 2d       	mov	r18, r3
    1520:	20 64       	ori	r18, 0x40	; 64
    1522:	32 2e       	mov	r3, r18
    1524:	19 c0       	rjmp	.+50     	; 0x1558 <vfprintf+0xe6>
    1526:	36 fe       	sbrs	r3, 6
    1528:	06 c0       	rjmp	.+12     	; 0x1536 <vfprintf+0xc4>
    152a:	8a e0       	ldi	r24, 0x0A	; 10
    152c:	98 9e       	mul	r9, r24
    152e:	20 0d       	add	r18, r0
    1530:	11 24       	eor	r1, r1
    1532:	92 2e       	mov	r9, r18
    1534:	11 c0       	rjmp	.+34     	; 0x1558 <vfprintf+0xe6>
    1536:	ea e0       	ldi	r30, 0x0A	; 10
    1538:	2e 9e       	mul	r2, r30
    153a:	20 0d       	add	r18, r0
    153c:	11 24       	eor	r1, r1
    153e:	22 2e       	mov	r2, r18
    1540:	f3 2d       	mov	r31, r3
    1542:	f0 62       	ori	r31, 0x20	; 32
    1544:	3f 2e       	mov	r3, r31
    1546:	08 c0       	rjmp	.+16     	; 0x1558 <vfprintf+0xe6>
    1548:	8c 36       	cpi	r24, 0x6C	; 108
    154a:	21 f4       	brne	.+8      	; 0x1554 <vfprintf+0xe2>
    154c:	83 2d       	mov	r24, r3
    154e:	80 68       	ori	r24, 0x80	; 128
    1550:	38 2e       	mov	r3, r24
    1552:	02 c0       	rjmp	.+4      	; 0x1558 <vfprintf+0xe6>
    1554:	88 36       	cpi	r24, 0x68	; 104
    1556:	41 f4       	brne	.+16     	; 0x1568 <vfprintf+0xf6>
    1558:	f7 01       	movw	r30, r14
    155a:	93 fd       	sbrc	r25, 3
    155c:	85 91       	lpm	r24, Z+
    155e:	93 ff       	sbrs	r25, 3
    1560:	81 91       	ld	r24, Z+
    1562:	7f 01       	movw	r14, r30
    1564:	81 11       	cpse	r24, r1
    1566:	b3 cf       	rjmp	.-154    	; 0x14ce <vfprintf+0x5c>
    1568:	98 2f       	mov	r25, r24
    156a:	9f 7d       	andi	r25, 0xDF	; 223
    156c:	95 54       	subi	r25, 0x45	; 69
    156e:	93 30       	cpi	r25, 0x03	; 3
    1570:	28 f4       	brcc	.+10     	; 0x157c <vfprintf+0x10a>
    1572:	0c 5f       	subi	r16, 0xFC	; 252
    1574:	1f 4f       	sbci	r17, 0xFF	; 255
    1576:	9f e3       	ldi	r25, 0x3F	; 63
    1578:	99 83       	std	Y+1, r25	; 0x01
    157a:	0d c0       	rjmp	.+26     	; 0x1596 <vfprintf+0x124>
    157c:	83 36       	cpi	r24, 0x63	; 99
    157e:	31 f0       	breq	.+12     	; 0x158c <vfprintf+0x11a>
    1580:	83 37       	cpi	r24, 0x73	; 115
    1582:	71 f0       	breq	.+28     	; 0x15a0 <vfprintf+0x12e>
    1584:	83 35       	cpi	r24, 0x53	; 83
    1586:	09 f0       	breq	.+2      	; 0x158a <vfprintf+0x118>
    1588:	59 c0       	rjmp	.+178    	; 0x163c <vfprintf+0x1ca>
    158a:	21 c0       	rjmp	.+66     	; 0x15ce <vfprintf+0x15c>
    158c:	f8 01       	movw	r30, r16
    158e:	80 81       	ld	r24, Z
    1590:	89 83       	std	Y+1, r24	; 0x01
    1592:	0e 5f       	subi	r16, 0xFE	; 254
    1594:	1f 4f       	sbci	r17, 0xFF	; 255
    1596:	88 24       	eor	r8, r8
    1598:	83 94       	inc	r8
    159a:	91 2c       	mov	r9, r1
    159c:	53 01       	movw	r10, r6
    159e:	13 c0       	rjmp	.+38     	; 0x15c6 <vfprintf+0x154>
    15a0:	28 01       	movw	r4, r16
    15a2:	f2 e0       	ldi	r31, 0x02	; 2
    15a4:	4f 0e       	add	r4, r31
    15a6:	51 1c       	adc	r5, r1
    15a8:	f8 01       	movw	r30, r16
    15aa:	a0 80       	ld	r10, Z
    15ac:	b1 80       	ldd	r11, Z+1	; 0x01
    15ae:	36 fe       	sbrs	r3, 6
    15b0:	03 c0       	rjmp	.+6      	; 0x15b8 <vfprintf+0x146>
    15b2:	69 2d       	mov	r22, r9
    15b4:	70 e0       	ldi	r23, 0x00	; 0
    15b6:	02 c0       	rjmp	.+4      	; 0x15bc <vfprintf+0x14a>
    15b8:	6f ef       	ldi	r22, 0xFF	; 255
    15ba:	7f ef       	ldi	r23, 0xFF	; 255
    15bc:	c5 01       	movw	r24, r10
    15be:	0e 94 c6 0f 	call	0x1f8c	; 0x1f8c <strnlen>
    15c2:	4c 01       	movw	r8, r24
    15c4:	82 01       	movw	r16, r4
    15c6:	f3 2d       	mov	r31, r3
    15c8:	ff 77       	andi	r31, 0x7F	; 127
    15ca:	3f 2e       	mov	r3, r31
    15cc:	16 c0       	rjmp	.+44     	; 0x15fa <vfprintf+0x188>
    15ce:	28 01       	movw	r4, r16
    15d0:	22 e0       	ldi	r18, 0x02	; 2
    15d2:	42 0e       	add	r4, r18
    15d4:	51 1c       	adc	r5, r1
    15d6:	f8 01       	movw	r30, r16
    15d8:	a0 80       	ld	r10, Z
    15da:	b1 80       	ldd	r11, Z+1	; 0x01
    15dc:	36 fe       	sbrs	r3, 6
    15de:	03 c0       	rjmp	.+6      	; 0x15e6 <vfprintf+0x174>
    15e0:	69 2d       	mov	r22, r9
    15e2:	70 e0       	ldi	r23, 0x00	; 0
    15e4:	02 c0       	rjmp	.+4      	; 0x15ea <vfprintf+0x178>
    15e6:	6f ef       	ldi	r22, 0xFF	; 255
    15e8:	7f ef       	ldi	r23, 0xFF	; 255
    15ea:	c5 01       	movw	r24, r10
    15ec:	0e 94 bb 0f 	call	0x1f76	; 0x1f76 <strnlen_P>
    15f0:	4c 01       	movw	r8, r24
    15f2:	f3 2d       	mov	r31, r3
    15f4:	f0 68       	ori	r31, 0x80	; 128
    15f6:	3f 2e       	mov	r3, r31
    15f8:	82 01       	movw	r16, r4
    15fa:	33 fc       	sbrc	r3, 3
    15fc:	1b c0       	rjmp	.+54     	; 0x1634 <vfprintf+0x1c2>
    15fe:	82 2d       	mov	r24, r2
    1600:	90 e0       	ldi	r25, 0x00	; 0
    1602:	88 16       	cp	r8, r24
    1604:	99 06       	cpc	r9, r25
    1606:	b0 f4       	brcc	.+44     	; 0x1634 <vfprintf+0x1c2>
    1608:	b6 01       	movw	r22, r12
    160a:	80 e2       	ldi	r24, 0x20	; 32
    160c:	90 e0       	ldi	r25, 0x00	; 0
    160e:	0e 94 e1 0f 	call	0x1fc2	; 0x1fc2 <fputc>
    1612:	2a 94       	dec	r2
    1614:	f4 cf       	rjmp	.-24     	; 0x15fe <vfprintf+0x18c>
    1616:	f5 01       	movw	r30, r10
    1618:	37 fc       	sbrc	r3, 7
    161a:	85 91       	lpm	r24, Z+
    161c:	37 fe       	sbrs	r3, 7
    161e:	81 91       	ld	r24, Z+
    1620:	5f 01       	movw	r10, r30
    1622:	b6 01       	movw	r22, r12
    1624:	90 e0       	ldi	r25, 0x00	; 0
    1626:	0e 94 e1 0f 	call	0x1fc2	; 0x1fc2 <fputc>
    162a:	21 10       	cpse	r2, r1
    162c:	2a 94       	dec	r2
    162e:	21 e0       	ldi	r18, 0x01	; 1
    1630:	82 1a       	sub	r8, r18
    1632:	91 08       	sbc	r9, r1
    1634:	81 14       	cp	r8, r1
    1636:	91 04       	cpc	r9, r1
    1638:	71 f7       	brne	.-36     	; 0x1616 <vfprintf+0x1a4>
    163a:	e8 c0       	rjmp	.+464    	; 0x180c <vfprintf+0x39a>
    163c:	84 36       	cpi	r24, 0x64	; 100
    163e:	11 f0       	breq	.+4      	; 0x1644 <vfprintf+0x1d2>
    1640:	89 36       	cpi	r24, 0x69	; 105
    1642:	41 f5       	brne	.+80     	; 0x1694 <vfprintf+0x222>
    1644:	f8 01       	movw	r30, r16
    1646:	37 fe       	sbrs	r3, 7
    1648:	07 c0       	rjmp	.+14     	; 0x1658 <vfprintf+0x1e6>
    164a:	60 81       	ld	r22, Z
    164c:	71 81       	ldd	r23, Z+1	; 0x01
    164e:	82 81       	ldd	r24, Z+2	; 0x02
    1650:	93 81       	ldd	r25, Z+3	; 0x03
    1652:	0c 5f       	subi	r16, 0xFC	; 252
    1654:	1f 4f       	sbci	r17, 0xFF	; 255
    1656:	08 c0       	rjmp	.+16     	; 0x1668 <vfprintf+0x1f6>
    1658:	60 81       	ld	r22, Z
    165a:	71 81       	ldd	r23, Z+1	; 0x01
    165c:	07 2e       	mov	r0, r23
    165e:	00 0c       	add	r0, r0
    1660:	88 0b       	sbc	r24, r24
    1662:	99 0b       	sbc	r25, r25
    1664:	0e 5f       	subi	r16, 0xFE	; 254
    1666:	1f 4f       	sbci	r17, 0xFF	; 255
    1668:	f3 2d       	mov	r31, r3
    166a:	ff 76       	andi	r31, 0x6F	; 111
    166c:	3f 2e       	mov	r3, r31
    166e:	97 ff       	sbrs	r25, 7
    1670:	09 c0       	rjmp	.+18     	; 0x1684 <vfprintf+0x212>
    1672:	90 95       	com	r25
    1674:	80 95       	com	r24
    1676:	70 95       	com	r23
    1678:	61 95       	neg	r22
    167a:	7f 4f       	sbci	r23, 0xFF	; 255
    167c:	8f 4f       	sbci	r24, 0xFF	; 255
    167e:	9f 4f       	sbci	r25, 0xFF	; 255
    1680:	f0 68       	ori	r31, 0x80	; 128
    1682:	3f 2e       	mov	r3, r31
    1684:	2a e0       	ldi	r18, 0x0A	; 10
    1686:	30 e0       	ldi	r19, 0x00	; 0
    1688:	a3 01       	movw	r20, r6
    168a:	0e 94 1d 10 	call	0x203a	; 0x203a <__ultoa_invert>
    168e:	88 2e       	mov	r8, r24
    1690:	86 18       	sub	r8, r6
    1692:	45 c0       	rjmp	.+138    	; 0x171e <vfprintf+0x2ac>
    1694:	85 37       	cpi	r24, 0x75	; 117
    1696:	31 f4       	brne	.+12     	; 0x16a4 <vfprintf+0x232>
    1698:	23 2d       	mov	r18, r3
    169a:	2f 7e       	andi	r18, 0xEF	; 239
    169c:	b2 2e       	mov	r11, r18
    169e:	2a e0       	ldi	r18, 0x0A	; 10
    16a0:	30 e0       	ldi	r19, 0x00	; 0
    16a2:	25 c0       	rjmp	.+74     	; 0x16ee <vfprintf+0x27c>
    16a4:	93 2d       	mov	r25, r3
    16a6:	99 7f       	andi	r25, 0xF9	; 249
    16a8:	b9 2e       	mov	r11, r25
    16aa:	8f 36       	cpi	r24, 0x6F	; 111
    16ac:	c1 f0       	breq	.+48     	; 0x16de <vfprintf+0x26c>
    16ae:	18 f4       	brcc	.+6      	; 0x16b6 <vfprintf+0x244>
    16b0:	88 35       	cpi	r24, 0x58	; 88
    16b2:	79 f0       	breq	.+30     	; 0x16d2 <vfprintf+0x260>
    16b4:	b5 c0       	rjmp	.+362    	; 0x1820 <vfprintf+0x3ae>
    16b6:	80 37       	cpi	r24, 0x70	; 112
    16b8:	19 f0       	breq	.+6      	; 0x16c0 <vfprintf+0x24e>
    16ba:	88 37       	cpi	r24, 0x78	; 120
    16bc:	21 f0       	breq	.+8      	; 0x16c6 <vfprintf+0x254>
    16be:	b0 c0       	rjmp	.+352    	; 0x1820 <vfprintf+0x3ae>
    16c0:	e9 2f       	mov	r30, r25
    16c2:	e0 61       	ori	r30, 0x10	; 16
    16c4:	be 2e       	mov	r11, r30
    16c6:	b4 fe       	sbrs	r11, 4
    16c8:	0d c0       	rjmp	.+26     	; 0x16e4 <vfprintf+0x272>
    16ca:	fb 2d       	mov	r31, r11
    16cc:	f4 60       	ori	r31, 0x04	; 4
    16ce:	bf 2e       	mov	r11, r31
    16d0:	09 c0       	rjmp	.+18     	; 0x16e4 <vfprintf+0x272>
    16d2:	34 fe       	sbrs	r3, 4
    16d4:	0a c0       	rjmp	.+20     	; 0x16ea <vfprintf+0x278>
    16d6:	29 2f       	mov	r18, r25
    16d8:	26 60       	ori	r18, 0x06	; 6
    16da:	b2 2e       	mov	r11, r18
    16dc:	06 c0       	rjmp	.+12     	; 0x16ea <vfprintf+0x278>
    16de:	28 e0       	ldi	r18, 0x08	; 8
    16e0:	30 e0       	ldi	r19, 0x00	; 0
    16e2:	05 c0       	rjmp	.+10     	; 0x16ee <vfprintf+0x27c>
    16e4:	20 e1       	ldi	r18, 0x10	; 16
    16e6:	30 e0       	ldi	r19, 0x00	; 0
    16e8:	02 c0       	rjmp	.+4      	; 0x16ee <vfprintf+0x27c>
    16ea:	20 e1       	ldi	r18, 0x10	; 16
    16ec:	32 e0       	ldi	r19, 0x02	; 2
    16ee:	f8 01       	movw	r30, r16
    16f0:	b7 fe       	sbrs	r11, 7
    16f2:	07 c0       	rjmp	.+14     	; 0x1702 <vfprintf+0x290>
    16f4:	60 81       	ld	r22, Z
    16f6:	71 81       	ldd	r23, Z+1	; 0x01
    16f8:	82 81       	ldd	r24, Z+2	; 0x02
    16fa:	93 81       	ldd	r25, Z+3	; 0x03
    16fc:	0c 5f       	subi	r16, 0xFC	; 252
    16fe:	1f 4f       	sbci	r17, 0xFF	; 255
    1700:	06 c0       	rjmp	.+12     	; 0x170e <vfprintf+0x29c>
    1702:	60 81       	ld	r22, Z
    1704:	71 81       	ldd	r23, Z+1	; 0x01
    1706:	80 e0       	ldi	r24, 0x00	; 0
    1708:	90 e0       	ldi	r25, 0x00	; 0
    170a:	0e 5f       	subi	r16, 0xFE	; 254
    170c:	1f 4f       	sbci	r17, 0xFF	; 255
    170e:	a3 01       	movw	r20, r6
    1710:	0e 94 1d 10 	call	0x203a	; 0x203a <__ultoa_invert>
    1714:	88 2e       	mov	r8, r24
    1716:	86 18       	sub	r8, r6
    1718:	fb 2d       	mov	r31, r11
    171a:	ff 77       	andi	r31, 0x7F	; 127
    171c:	3f 2e       	mov	r3, r31
    171e:	36 fe       	sbrs	r3, 6
    1720:	0d c0       	rjmp	.+26     	; 0x173c <vfprintf+0x2ca>
    1722:	23 2d       	mov	r18, r3
    1724:	2e 7f       	andi	r18, 0xFE	; 254
    1726:	a2 2e       	mov	r10, r18
    1728:	89 14       	cp	r8, r9
    172a:	58 f4       	brcc	.+22     	; 0x1742 <vfprintf+0x2d0>
    172c:	34 fe       	sbrs	r3, 4
    172e:	0b c0       	rjmp	.+22     	; 0x1746 <vfprintf+0x2d4>
    1730:	32 fc       	sbrc	r3, 2
    1732:	09 c0       	rjmp	.+18     	; 0x1746 <vfprintf+0x2d4>
    1734:	83 2d       	mov	r24, r3
    1736:	8e 7e       	andi	r24, 0xEE	; 238
    1738:	a8 2e       	mov	r10, r24
    173a:	05 c0       	rjmp	.+10     	; 0x1746 <vfprintf+0x2d4>
    173c:	b8 2c       	mov	r11, r8
    173e:	a3 2c       	mov	r10, r3
    1740:	03 c0       	rjmp	.+6      	; 0x1748 <vfprintf+0x2d6>
    1742:	b8 2c       	mov	r11, r8
    1744:	01 c0       	rjmp	.+2      	; 0x1748 <vfprintf+0x2d6>
    1746:	b9 2c       	mov	r11, r9
    1748:	a4 fe       	sbrs	r10, 4
    174a:	0f c0       	rjmp	.+30     	; 0x176a <vfprintf+0x2f8>
    174c:	fe 01       	movw	r30, r28
    174e:	e8 0d       	add	r30, r8
    1750:	f1 1d       	adc	r31, r1
    1752:	80 81       	ld	r24, Z
    1754:	80 33       	cpi	r24, 0x30	; 48
    1756:	21 f4       	brne	.+8      	; 0x1760 <vfprintf+0x2ee>
    1758:	9a 2d       	mov	r25, r10
    175a:	99 7e       	andi	r25, 0xE9	; 233
    175c:	a9 2e       	mov	r10, r25
    175e:	09 c0       	rjmp	.+18     	; 0x1772 <vfprintf+0x300>
    1760:	a2 fe       	sbrs	r10, 2
    1762:	06 c0       	rjmp	.+12     	; 0x1770 <vfprintf+0x2fe>
    1764:	b3 94       	inc	r11
    1766:	b3 94       	inc	r11
    1768:	04 c0       	rjmp	.+8      	; 0x1772 <vfprintf+0x300>
    176a:	8a 2d       	mov	r24, r10
    176c:	86 78       	andi	r24, 0x86	; 134
    176e:	09 f0       	breq	.+2      	; 0x1772 <vfprintf+0x300>
    1770:	b3 94       	inc	r11
    1772:	a3 fc       	sbrc	r10, 3
    1774:	11 c0       	rjmp	.+34     	; 0x1798 <vfprintf+0x326>
    1776:	a0 fe       	sbrs	r10, 0
    1778:	06 c0       	rjmp	.+12     	; 0x1786 <vfprintf+0x314>
    177a:	b2 14       	cp	r11, r2
    177c:	88 f4       	brcc	.+34     	; 0x17a0 <vfprintf+0x32e>
    177e:	28 0c       	add	r2, r8
    1780:	92 2c       	mov	r9, r2
    1782:	9b 18       	sub	r9, r11
    1784:	0e c0       	rjmp	.+28     	; 0x17a2 <vfprintf+0x330>
    1786:	b2 14       	cp	r11, r2
    1788:	60 f4       	brcc	.+24     	; 0x17a2 <vfprintf+0x330>
    178a:	b6 01       	movw	r22, r12
    178c:	80 e2       	ldi	r24, 0x20	; 32
    178e:	90 e0       	ldi	r25, 0x00	; 0
    1790:	0e 94 e1 0f 	call	0x1fc2	; 0x1fc2 <fputc>
    1794:	b3 94       	inc	r11
    1796:	f7 cf       	rjmp	.-18     	; 0x1786 <vfprintf+0x314>
    1798:	b2 14       	cp	r11, r2
    179a:	18 f4       	brcc	.+6      	; 0x17a2 <vfprintf+0x330>
    179c:	2b 18       	sub	r2, r11
    179e:	02 c0       	rjmp	.+4      	; 0x17a4 <vfprintf+0x332>
    17a0:	98 2c       	mov	r9, r8
    17a2:	21 2c       	mov	r2, r1
    17a4:	a4 fe       	sbrs	r10, 4
    17a6:	10 c0       	rjmp	.+32     	; 0x17c8 <vfprintf+0x356>
    17a8:	b6 01       	movw	r22, r12
    17aa:	80 e3       	ldi	r24, 0x30	; 48
    17ac:	90 e0       	ldi	r25, 0x00	; 0
    17ae:	0e 94 e1 0f 	call	0x1fc2	; 0x1fc2 <fputc>
    17b2:	a2 fe       	sbrs	r10, 2
    17b4:	17 c0       	rjmp	.+46     	; 0x17e4 <vfprintf+0x372>
    17b6:	a1 fc       	sbrc	r10, 1
    17b8:	03 c0       	rjmp	.+6      	; 0x17c0 <vfprintf+0x34e>
    17ba:	88 e7       	ldi	r24, 0x78	; 120
    17bc:	90 e0       	ldi	r25, 0x00	; 0
    17be:	02 c0       	rjmp	.+4      	; 0x17c4 <vfprintf+0x352>
    17c0:	88 e5       	ldi	r24, 0x58	; 88
    17c2:	90 e0       	ldi	r25, 0x00	; 0
    17c4:	b6 01       	movw	r22, r12
    17c6:	0c c0       	rjmp	.+24     	; 0x17e0 <vfprintf+0x36e>
    17c8:	8a 2d       	mov	r24, r10
    17ca:	86 78       	andi	r24, 0x86	; 134
    17cc:	59 f0       	breq	.+22     	; 0x17e4 <vfprintf+0x372>
    17ce:	a1 fe       	sbrs	r10, 1
    17d0:	02 c0       	rjmp	.+4      	; 0x17d6 <vfprintf+0x364>
    17d2:	8b e2       	ldi	r24, 0x2B	; 43
    17d4:	01 c0       	rjmp	.+2      	; 0x17d8 <vfprintf+0x366>
    17d6:	80 e2       	ldi	r24, 0x20	; 32
    17d8:	a7 fc       	sbrc	r10, 7
    17da:	8d e2       	ldi	r24, 0x2D	; 45
    17dc:	b6 01       	movw	r22, r12
    17de:	90 e0       	ldi	r25, 0x00	; 0
    17e0:	0e 94 e1 0f 	call	0x1fc2	; 0x1fc2 <fputc>
    17e4:	89 14       	cp	r8, r9
    17e6:	38 f4       	brcc	.+14     	; 0x17f6 <vfprintf+0x384>
    17e8:	b6 01       	movw	r22, r12
    17ea:	80 e3       	ldi	r24, 0x30	; 48
    17ec:	90 e0       	ldi	r25, 0x00	; 0
    17ee:	0e 94 e1 0f 	call	0x1fc2	; 0x1fc2 <fputc>
    17f2:	9a 94       	dec	r9
    17f4:	f7 cf       	rjmp	.-18     	; 0x17e4 <vfprintf+0x372>
    17f6:	8a 94       	dec	r8
    17f8:	f3 01       	movw	r30, r6
    17fa:	e8 0d       	add	r30, r8
    17fc:	f1 1d       	adc	r31, r1
    17fe:	80 81       	ld	r24, Z
    1800:	b6 01       	movw	r22, r12
    1802:	90 e0       	ldi	r25, 0x00	; 0
    1804:	0e 94 e1 0f 	call	0x1fc2	; 0x1fc2 <fputc>
    1808:	81 10       	cpse	r8, r1
    180a:	f5 cf       	rjmp	.-22     	; 0x17f6 <vfprintf+0x384>
    180c:	22 20       	and	r2, r2
    180e:	09 f4       	brne	.+2      	; 0x1812 <vfprintf+0x3a0>
    1810:	42 ce       	rjmp	.-892    	; 0x1496 <vfprintf+0x24>
    1812:	b6 01       	movw	r22, r12
    1814:	80 e2       	ldi	r24, 0x20	; 32
    1816:	90 e0       	ldi	r25, 0x00	; 0
    1818:	0e 94 e1 0f 	call	0x1fc2	; 0x1fc2 <fputc>
    181c:	2a 94       	dec	r2
    181e:	f6 cf       	rjmp	.-20     	; 0x180c <vfprintf+0x39a>
    1820:	f6 01       	movw	r30, r12
    1822:	86 81       	ldd	r24, Z+6	; 0x06
    1824:	97 81       	ldd	r25, Z+7	; 0x07
    1826:	02 c0       	rjmp	.+4      	; 0x182c <vfprintf+0x3ba>
    1828:	8f ef       	ldi	r24, 0xFF	; 255
    182a:	9f ef       	ldi	r25, 0xFF	; 255
    182c:	2b 96       	adiw	r28, 0x0b	; 11
    182e:	e2 e1       	ldi	r30, 0x12	; 18
    1830:	0c 94 a5 10 	jmp	0x214a	; 0x214a <__epilogue_restores__>

00001834 <dtoa_prf>:
    1834:	a9 e0       	ldi	r26, 0x09	; 9
    1836:	b0 e0       	ldi	r27, 0x00	; 0
    1838:	e0 e2       	ldi	r30, 0x20	; 32
    183a:	fc e0       	ldi	r31, 0x0C	; 12
    183c:	0c 94 8f 10 	jmp	0x211e	; 0x211e <__prologue_saves__+0xc>
    1840:	6a 01       	movw	r12, r20
    1842:	12 2f       	mov	r17, r18
    1844:	b0 2e       	mov	r11, r16
    1846:	2b e3       	ldi	r18, 0x3B	; 59
    1848:	20 17       	cp	r18, r16
    184a:	20 f0       	brcs	.+8      	; 0x1854 <dtoa_prf+0x20>
    184c:	ff 24       	eor	r15, r15
    184e:	f3 94       	inc	r15
    1850:	f0 0e       	add	r15, r16
    1852:	02 c0       	rjmp	.+4      	; 0x1858 <dtoa_prf+0x24>
    1854:	2c e3       	ldi	r18, 0x3C	; 60
    1856:	f2 2e       	mov	r15, r18
    1858:	0f 2d       	mov	r16, r15
    185a:	27 e0       	ldi	r18, 0x07	; 7
    185c:	ae 01       	movw	r20, r28
    185e:	4f 5f       	subi	r20, 0xFF	; 255
    1860:	5f 4f       	sbci	r21, 0xFF	; 255
    1862:	0e 94 c2 0e 	call	0x1d84	; 0x1d84 <__ftoa_engine>
    1866:	bc 01       	movw	r22, r24
    1868:	49 81       	ldd	r20, Y+1	; 0x01
    186a:	84 2f       	mov	r24, r20
    186c:	89 70       	andi	r24, 0x09	; 9
    186e:	81 30       	cpi	r24, 0x01	; 1
    1870:	31 f0       	breq	.+12     	; 0x187e <dtoa_prf+0x4a>
    1872:	e1 fc       	sbrc	r14, 1
    1874:	06 c0       	rjmp	.+12     	; 0x1882 <dtoa_prf+0x4e>
    1876:	e0 fe       	sbrs	r14, 0
    1878:	06 c0       	rjmp	.+12     	; 0x1886 <dtoa_prf+0x52>
    187a:	90 e2       	ldi	r25, 0x20	; 32
    187c:	05 c0       	rjmp	.+10     	; 0x1888 <dtoa_prf+0x54>
    187e:	9d e2       	ldi	r25, 0x2D	; 45
    1880:	03 c0       	rjmp	.+6      	; 0x1888 <dtoa_prf+0x54>
    1882:	9b e2       	ldi	r25, 0x2B	; 43
    1884:	01 c0       	rjmp	.+2      	; 0x1888 <dtoa_prf+0x54>
    1886:	90 e0       	ldi	r25, 0x00	; 0
    1888:	5e 2d       	mov	r21, r14
    188a:	50 71       	andi	r21, 0x10	; 16
    188c:	43 ff       	sbrs	r20, 3
    188e:	3c c0       	rjmp	.+120    	; 0x1908 <dtoa_prf+0xd4>
    1890:	91 11       	cpse	r25, r1
    1892:	02 c0       	rjmp	.+4      	; 0x1898 <dtoa_prf+0x64>
    1894:	83 e0       	ldi	r24, 0x03	; 3
    1896:	01 c0       	rjmp	.+2      	; 0x189a <dtoa_prf+0x66>
    1898:	84 e0       	ldi	r24, 0x04	; 4
    189a:	81 17       	cp	r24, r17
    189c:	18 f4       	brcc	.+6      	; 0x18a4 <dtoa_prf+0x70>
    189e:	21 2f       	mov	r18, r17
    18a0:	28 1b       	sub	r18, r24
    18a2:	01 c0       	rjmp	.+2      	; 0x18a6 <dtoa_prf+0x72>
    18a4:	20 e0       	ldi	r18, 0x00	; 0
    18a6:	51 11       	cpse	r21, r1
    18a8:	0b c0       	rjmp	.+22     	; 0x18c0 <dtoa_prf+0x8c>
    18aa:	f6 01       	movw	r30, r12
    18ac:	82 2f       	mov	r24, r18
    18ae:	30 e2       	ldi	r19, 0x20	; 32
    18b0:	88 23       	and	r24, r24
    18b2:	19 f0       	breq	.+6      	; 0x18ba <dtoa_prf+0x86>
    18b4:	31 93       	st	Z+, r19
    18b6:	81 50       	subi	r24, 0x01	; 1
    18b8:	fb cf       	rjmp	.-10     	; 0x18b0 <dtoa_prf+0x7c>
    18ba:	c2 0e       	add	r12, r18
    18bc:	d1 1c       	adc	r13, r1
    18be:	20 e0       	ldi	r18, 0x00	; 0
    18c0:	99 23       	and	r25, r25
    18c2:	29 f0       	breq	.+10     	; 0x18ce <dtoa_prf+0x9a>
    18c4:	d6 01       	movw	r26, r12
    18c6:	9c 93       	st	X, r25
    18c8:	f6 01       	movw	r30, r12
    18ca:	31 96       	adiw	r30, 0x01	; 1
    18cc:	6f 01       	movw	r12, r30
    18ce:	c6 01       	movw	r24, r12
    18d0:	03 96       	adiw	r24, 0x03	; 3
    18d2:	e2 fe       	sbrs	r14, 2
    18d4:	0a c0       	rjmp	.+20     	; 0x18ea <dtoa_prf+0xb6>
    18d6:	3e e4       	ldi	r19, 0x4E	; 78
    18d8:	d6 01       	movw	r26, r12
    18da:	3c 93       	st	X, r19
    18dc:	41 e4       	ldi	r20, 0x41	; 65
    18de:	11 96       	adiw	r26, 0x01	; 1
    18e0:	4c 93       	st	X, r20
    18e2:	11 97       	sbiw	r26, 0x01	; 1
    18e4:	12 96       	adiw	r26, 0x02	; 2
    18e6:	3c 93       	st	X, r19
    18e8:	06 c0       	rjmp	.+12     	; 0x18f6 <dtoa_prf+0xc2>
    18ea:	3e e6       	ldi	r19, 0x6E	; 110
    18ec:	f6 01       	movw	r30, r12
    18ee:	30 83       	st	Z, r19
    18f0:	41 e6       	ldi	r20, 0x61	; 97
    18f2:	41 83       	std	Z+1, r20	; 0x01
    18f4:	32 83       	std	Z+2, r19	; 0x02
    18f6:	fc 01       	movw	r30, r24
    18f8:	32 2f       	mov	r19, r18
    18fa:	40 e2       	ldi	r20, 0x20	; 32
    18fc:	33 23       	and	r19, r19
    18fe:	09 f4       	brne	.+2      	; 0x1902 <dtoa_prf+0xce>
    1900:	42 c0       	rjmp	.+132    	; 0x1986 <dtoa_prf+0x152>
    1902:	41 93       	st	Z+, r20
    1904:	31 50       	subi	r19, 0x01	; 1
    1906:	fa cf       	rjmp	.-12     	; 0x18fc <dtoa_prf+0xc8>
    1908:	42 ff       	sbrs	r20, 2
    190a:	44 c0       	rjmp	.+136    	; 0x1994 <dtoa_prf+0x160>
    190c:	91 11       	cpse	r25, r1
    190e:	02 c0       	rjmp	.+4      	; 0x1914 <dtoa_prf+0xe0>
    1910:	83 e0       	ldi	r24, 0x03	; 3
    1912:	01 c0       	rjmp	.+2      	; 0x1916 <dtoa_prf+0xe2>
    1914:	84 e0       	ldi	r24, 0x04	; 4
    1916:	81 17       	cp	r24, r17
    1918:	18 f4       	brcc	.+6      	; 0x1920 <dtoa_prf+0xec>
    191a:	21 2f       	mov	r18, r17
    191c:	28 1b       	sub	r18, r24
    191e:	01 c0       	rjmp	.+2      	; 0x1922 <dtoa_prf+0xee>
    1920:	20 e0       	ldi	r18, 0x00	; 0
    1922:	51 11       	cpse	r21, r1
    1924:	0b c0       	rjmp	.+22     	; 0x193c <dtoa_prf+0x108>
    1926:	f6 01       	movw	r30, r12
    1928:	82 2f       	mov	r24, r18
    192a:	30 e2       	ldi	r19, 0x20	; 32
    192c:	88 23       	and	r24, r24
    192e:	19 f0       	breq	.+6      	; 0x1936 <dtoa_prf+0x102>
    1930:	31 93       	st	Z+, r19
    1932:	81 50       	subi	r24, 0x01	; 1
    1934:	fb cf       	rjmp	.-10     	; 0x192c <dtoa_prf+0xf8>
    1936:	c2 0e       	add	r12, r18
    1938:	d1 1c       	adc	r13, r1
    193a:	20 e0       	ldi	r18, 0x00	; 0
    193c:	99 23       	and	r25, r25
    193e:	29 f0       	breq	.+10     	; 0x194a <dtoa_prf+0x116>
    1940:	d6 01       	movw	r26, r12
    1942:	9c 93       	st	X, r25
    1944:	f6 01       	movw	r30, r12
    1946:	31 96       	adiw	r30, 0x01	; 1
    1948:	6f 01       	movw	r12, r30
    194a:	c6 01       	movw	r24, r12
    194c:	03 96       	adiw	r24, 0x03	; 3
    194e:	e2 fe       	sbrs	r14, 2
    1950:	0b c0       	rjmp	.+22     	; 0x1968 <dtoa_prf+0x134>
    1952:	39 e4       	ldi	r19, 0x49	; 73
    1954:	d6 01       	movw	r26, r12
    1956:	3c 93       	st	X, r19
    1958:	3e e4       	ldi	r19, 0x4E	; 78
    195a:	11 96       	adiw	r26, 0x01	; 1
    195c:	3c 93       	st	X, r19
    195e:	11 97       	sbiw	r26, 0x01	; 1
    1960:	36 e4       	ldi	r19, 0x46	; 70
    1962:	12 96       	adiw	r26, 0x02	; 2
    1964:	3c 93       	st	X, r19
    1966:	07 c0       	rjmp	.+14     	; 0x1976 <dtoa_prf+0x142>
    1968:	39 e6       	ldi	r19, 0x69	; 105
    196a:	f6 01       	movw	r30, r12
    196c:	30 83       	st	Z, r19
    196e:	3e e6       	ldi	r19, 0x6E	; 110
    1970:	31 83       	std	Z+1, r19	; 0x01
    1972:	36 e6       	ldi	r19, 0x66	; 102
    1974:	32 83       	std	Z+2, r19	; 0x02
    1976:	fc 01       	movw	r30, r24
    1978:	32 2f       	mov	r19, r18
    197a:	40 e2       	ldi	r20, 0x20	; 32
    197c:	33 23       	and	r19, r19
    197e:	19 f0       	breq	.+6      	; 0x1986 <dtoa_prf+0x152>
    1980:	41 93       	st	Z+, r20
    1982:	31 50       	subi	r19, 0x01	; 1
    1984:	fb cf       	rjmp	.-10     	; 0x197c <dtoa_prf+0x148>
    1986:	fc 01       	movw	r30, r24
    1988:	e2 0f       	add	r30, r18
    198a:	f1 1d       	adc	r31, r1
    198c:	10 82       	st	Z, r1
    198e:	8e ef       	ldi	r24, 0xFE	; 254
    1990:	9f ef       	ldi	r25, 0xFF	; 255
    1992:	a6 c0       	rjmp	.+332    	; 0x1ae0 <dtoa_prf+0x2ac>
    1994:	21 e0       	ldi	r18, 0x01	; 1
    1996:	30 e0       	ldi	r19, 0x00	; 0
    1998:	91 11       	cpse	r25, r1
    199a:	02 c0       	rjmp	.+4      	; 0x19a0 <dtoa_prf+0x16c>
    199c:	20 e0       	ldi	r18, 0x00	; 0
    199e:	30 e0       	ldi	r19, 0x00	; 0
    19a0:	16 16       	cp	r1, r22
    19a2:	17 06       	cpc	r1, r23
    19a4:	1c f4       	brge	.+6      	; 0x19ac <dtoa_prf+0x178>
    19a6:	fb 01       	movw	r30, r22
    19a8:	31 96       	adiw	r30, 0x01	; 1
    19aa:	02 c0       	rjmp	.+4      	; 0x19b0 <dtoa_prf+0x17c>
    19ac:	e1 e0       	ldi	r30, 0x01	; 1
    19ae:	f0 e0       	ldi	r31, 0x00	; 0
    19b0:	2e 0f       	add	r18, r30
    19b2:	3f 1f       	adc	r19, r31
    19b4:	bb 20       	and	r11, r11
    19b6:	21 f0       	breq	.+8      	; 0x19c0 <dtoa_prf+0x18c>
    19b8:	eb 2d       	mov	r30, r11
    19ba:	f0 e0       	ldi	r31, 0x00	; 0
    19bc:	31 96       	adiw	r30, 0x01	; 1
    19be:	02 c0       	rjmp	.+4      	; 0x19c4 <dtoa_prf+0x190>
    19c0:	e0 e0       	ldi	r30, 0x00	; 0
    19c2:	f0 e0       	ldi	r31, 0x00	; 0
    19c4:	2e 0f       	add	r18, r30
    19c6:	3f 1f       	adc	r19, r31
    19c8:	e1 2f       	mov	r30, r17
    19ca:	f0 e0       	ldi	r31, 0x00	; 0
    19cc:	2e 17       	cp	r18, r30
    19ce:	3f 07       	cpc	r19, r31
    19d0:	1c f4       	brge	.+6      	; 0x19d8 <dtoa_prf+0x1a4>
    19d2:	12 1b       	sub	r17, r18
    19d4:	21 2f       	mov	r18, r17
    19d6:	01 c0       	rjmp	.+2      	; 0x19da <dtoa_prf+0x1a6>
    19d8:	20 e0       	ldi	r18, 0x00	; 0
    19da:	8e 2d       	mov	r24, r14
    19dc:	88 71       	andi	r24, 0x18	; 24
    19de:	59 f4       	brne	.+22     	; 0x19f6 <dtoa_prf+0x1c2>
    19e0:	f6 01       	movw	r30, r12
    19e2:	82 2f       	mov	r24, r18
    19e4:	30 e2       	ldi	r19, 0x20	; 32
    19e6:	88 23       	and	r24, r24
    19e8:	19 f0       	breq	.+6      	; 0x19f0 <dtoa_prf+0x1bc>
    19ea:	31 93       	st	Z+, r19
    19ec:	81 50       	subi	r24, 0x01	; 1
    19ee:	fb cf       	rjmp	.-10     	; 0x19e6 <dtoa_prf+0x1b2>
    19f0:	c2 0e       	add	r12, r18
    19f2:	d1 1c       	adc	r13, r1
    19f4:	20 e0       	ldi	r18, 0x00	; 0
    19f6:	99 23       	and	r25, r25
    19f8:	29 f0       	breq	.+10     	; 0x1a04 <dtoa_prf+0x1d0>
    19fa:	d6 01       	movw	r26, r12
    19fc:	9c 93       	st	X, r25
    19fe:	f6 01       	movw	r30, r12
    1a00:	31 96       	adiw	r30, 0x01	; 1
    1a02:	6f 01       	movw	r12, r30
    1a04:	51 11       	cpse	r21, r1
    1a06:	0b c0       	rjmp	.+22     	; 0x1a1e <dtoa_prf+0x1ea>
    1a08:	f6 01       	movw	r30, r12
    1a0a:	82 2f       	mov	r24, r18
    1a0c:	90 e3       	ldi	r25, 0x30	; 48
    1a0e:	88 23       	and	r24, r24
    1a10:	19 f0       	breq	.+6      	; 0x1a18 <dtoa_prf+0x1e4>
    1a12:	91 93       	st	Z+, r25
    1a14:	81 50       	subi	r24, 0x01	; 1
    1a16:	fb cf       	rjmp	.-10     	; 0x1a0e <dtoa_prf+0x1da>
    1a18:	c2 0e       	add	r12, r18
    1a1a:	d1 1c       	adc	r13, r1
    1a1c:	20 e0       	ldi	r18, 0x00	; 0
    1a1e:	0f 2d       	mov	r16, r15
    1a20:	06 0f       	add	r16, r22
    1a22:	9a 81       	ldd	r25, Y+2	; 0x02
    1a24:	34 2f       	mov	r19, r20
    1a26:	30 71       	andi	r19, 0x10	; 16
    1a28:	44 ff       	sbrs	r20, 4
    1a2a:	03 c0       	rjmp	.+6      	; 0x1a32 <dtoa_prf+0x1fe>
    1a2c:	91 33       	cpi	r25, 0x31	; 49
    1a2e:	09 f4       	brne	.+2      	; 0x1a32 <dtoa_prf+0x1fe>
    1a30:	01 50       	subi	r16, 0x01	; 1
    1a32:	10 16       	cp	r1, r16
    1a34:	24 f4       	brge	.+8      	; 0x1a3e <dtoa_prf+0x20a>
    1a36:	09 30       	cpi	r16, 0x09	; 9
    1a38:	18 f0       	brcs	.+6      	; 0x1a40 <dtoa_prf+0x20c>
    1a3a:	08 e0       	ldi	r16, 0x08	; 8
    1a3c:	01 c0       	rjmp	.+2      	; 0x1a40 <dtoa_prf+0x20c>
    1a3e:	01 e0       	ldi	r16, 0x01	; 1
    1a40:	ab 01       	movw	r20, r22
    1a42:	77 ff       	sbrs	r23, 7
    1a44:	02 c0       	rjmp	.+4      	; 0x1a4a <dtoa_prf+0x216>
    1a46:	40 e0       	ldi	r20, 0x00	; 0
    1a48:	50 e0       	ldi	r21, 0x00	; 0
    1a4a:	fb 01       	movw	r30, r22
    1a4c:	e4 1b       	sub	r30, r20
    1a4e:	f5 0b       	sbc	r31, r21
    1a50:	a1 e0       	ldi	r26, 0x01	; 1
    1a52:	b0 e0       	ldi	r27, 0x00	; 0
    1a54:	ac 0f       	add	r26, r28
    1a56:	bd 1f       	adc	r27, r29
    1a58:	ea 0f       	add	r30, r26
    1a5a:	fb 1f       	adc	r31, r27
    1a5c:	8e e2       	ldi	r24, 0x2E	; 46
    1a5e:	a8 2e       	mov	r10, r24
    1a60:	4b 01       	movw	r8, r22
    1a62:	80 1a       	sub	r8, r16
    1a64:	91 08       	sbc	r9, r1
    1a66:	0b 2d       	mov	r16, r11
    1a68:	10 e0       	ldi	r17, 0x00	; 0
    1a6a:	11 95       	neg	r17
    1a6c:	01 95       	neg	r16
    1a6e:	11 09       	sbc	r17, r1
    1a70:	4f 3f       	cpi	r20, 0xFF	; 255
    1a72:	bf ef       	ldi	r27, 0xFF	; 255
    1a74:	5b 07       	cpc	r21, r27
    1a76:	21 f4       	brne	.+8      	; 0x1a80 <dtoa_prf+0x24c>
    1a78:	d6 01       	movw	r26, r12
    1a7a:	ac 92       	st	X, r10
    1a7c:	11 96       	adiw	r26, 0x01	; 1
    1a7e:	6d 01       	movw	r12, r26
    1a80:	64 17       	cp	r22, r20
    1a82:	75 07       	cpc	r23, r21
    1a84:	2c f0       	brlt	.+10     	; 0x1a90 <dtoa_prf+0x25c>
    1a86:	84 16       	cp	r8, r20
    1a88:	95 06       	cpc	r9, r21
    1a8a:	14 f4       	brge	.+4      	; 0x1a90 <dtoa_prf+0x25c>
    1a8c:	81 81       	ldd	r24, Z+1	; 0x01
    1a8e:	01 c0       	rjmp	.+2      	; 0x1a92 <dtoa_prf+0x25e>
    1a90:	80 e3       	ldi	r24, 0x30	; 48
    1a92:	41 50       	subi	r20, 0x01	; 1
    1a94:	51 09       	sbc	r21, r1
    1a96:	31 96       	adiw	r30, 0x01	; 1
    1a98:	d6 01       	movw	r26, r12
    1a9a:	11 96       	adiw	r26, 0x01	; 1
    1a9c:	7d 01       	movw	r14, r26
    1a9e:	40 17       	cp	r20, r16
    1aa0:	51 07       	cpc	r21, r17
    1aa2:	24 f0       	brlt	.+8      	; 0x1aac <dtoa_prf+0x278>
    1aa4:	d6 01       	movw	r26, r12
    1aa6:	8c 93       	st	X, r24
    1aa8:	67 01       	movw	r12, r14
    1aaa:	e2 cf       	rjmp	.-60     	; 0x1a70 <dtoa_prf+0x23c>
    1aac:	64 17       	cp	r22, r20
    1aae:	75 07       	cpc	r23, r21
    1ab0:	39 f4       	brne	.+14     	; 0x1ac0 <dtoa_prf+0x28c>
    1ab2:	96 33       	cpi	r25, 0x36	; 54
    1ab4:	20 f4       	brcc	.+8      	; 0x1abe <dtoa_prf+0x28a>
    1ab6:	95 33       	cpi	r25, 0x35	; 53
    1ab8:	19 f4       	brne	.+6      	; 0x1ac0 <dtoa_prf+0x28c>
    1aba:	31 11       	cpse	r19, r1
    1abc:	01 c0       	rjmp	.+2      	; 0x1ac0 <dtoa_prf+0x28c>
    1abe:	81 e3       	ldi	r24, 0x31	; 49
    1ac0:	f6 01       	movw	r30, r12
    1ac2:	80 83       	st	Z, r24
    1ac4:	f7 01       	movw	r30, r14
    1ac6:	82 2f       	mov	r24, r18
    1ac8:	90 e2       	ldi	r25, 0x20	; 32
    1aca:	88 23       	and	r24, r24
    1acc:	19 f0       	breq	.+6      	; 0x1ad4 <dtoa_prf+0x2a0>
    1ace:	91 93       	st	Z+, r25
    1ad0:	81 50       	subi	r24, 0x01	; 1
    1ad2:	fb cf       	rjmp	.-10     	; 0x1aca <dtoa_prf+0x296>
    1ad4:	f7 01       	movw	r30, r14
    1ad6:	e2 0f       	add	r30, r18
    1ad8:	f1 1d       	adc	r31, r1
    1ada:	10 82       	st	Z, r1
    1adc:	80 e0       	ldi	r24, 0x00	; 0
    1ade:	90 e0       	ldi	r25, 0x00	; 0
    1ae0:	29 96       	adiw	r28, 0x09	; 9
    1ae2:	ec e0       	ldi	r30, 0x0C	; 12
    1ae4:	0c 94 ab 10 	jmp	0x2156	; 0x2156 <__epilogue_restores__+0xc>

00001ae8 <strtod>:
    1ae8:	a0 e0       	ldi	r26, 0x00	; 0
    1aea:	b0 e0       	ldi	r27, 0x00	; 0
    1aec:	ea e7       	ldi	r30, 0x7A	; 122
    1aee:	fd e0       	ldi	r31, 0x0D	; 13
    1af0:	0c 94 8f 10 	jmp	0x211e	; 0x211e <__prologue_saves__+0xc>
    1af4:	ec 01       	movw	r28, r24
    1af6:	6b 01       	movw	r12, r22
    1af8:	61 15       	cp	r22, r1
    1afa:	71 05       	cpc	r23, r1
    1afc:	19 f0       	breq	.+6      	; 0x1b04 <strtod+0x1c>
    1afe:	fb 01       	movw	r30, r22
    1b00:	91 83       	std	Z+1, r25	; 0x01
    1b02:	80 83       	st	Z, r24
    1b04:	7e 01       	movw	r14, r28
    1b06:	ff ef       	ldi	r31, 0xFF	; 255
    1b08:	ef 1a       	sub	r14, r31
    1b0a:	ff 0a       	sbc	r15, r31
    1b0c:	08 81       	ld	r16, Y
    1b0e:	80 2f       	mov	r24, r16
    1b10:	90 e0       	ldi	r25, 0x00	; 0
    1b12:	0e 94 9a 0f 	call	0x1f34	; 0x1f34 <isspace>
    1b16:	89 2b       	or	r24, r25
    1b18:	11 f0       	breq	.+4      	; 0x1b1e <strtod+0x36>
    1b1a:	e7 01       	movw	r28, r14
    1b1c:	f3 cf       	rjmp	.-26     	; 0x1b04 <strtod+0x1c>
    1b1e:	0d 32       	cpi	r16, 0x2D	; 45
    1b20:	39 f4       	brne	.+14     	; 0x1b30 <strtod+0x48>
    1b22:	7e 01       	movw	r14, r28
    1b24:	82 e0       	ldi	r24, 0x02	; 2
    1b26:	e8 0e       	add	r14, r24
    1b28:	f1 1c       	adc	r15, r1
    1b2a:	09 81       	ldd	r16, Y+1	; 0x01
    1b2c:	11 e0       	ldi	r17, 0x01	; 1
    1b2e:	08 c0       	rjmp	.+16     	; 0x1b40 <strtod+0x58>
    1b30:	0b 32       	cpi	r16, 0x2B	; 43
    1b32:	29 f4       	brne	.+10     	; 0x1b3e <strtod+0x56>
    1b34:	7e 01       	movw	r14, r28
    1b36:	92 e0       	ldi	r25, 0x02	; 2
    1b38:	e9 0e       	add	r14, r25
    1b3a:	f1 1c       	adc	r15, r1
    1b3c:	09 81       	ldd	r16, Y+1	; 0x01
    1b3e:	10 e0       	ldi	r17, 0x00	; 0
    1b40:	e7 01       	movw	r28, r14
    1b42:	21 97       	sbiw	r28, 0x01	; 1
    1b44:	43 e0       	ldi	r20, 0x03	; 3
    1b46:	50 e0       	ldi	r21, 0x00	; 0
    1b48:	6c e5       	ldi	r22, 0x5C	; 92
    1b4a:	70 e0       	ldi	r23, 0x00	; 0
    1b4c:	ce 01       	movw	r24, r28
    1b4e:	0e 94 a3 0f 	call	0x1f46	; 0x1f46 <strncasecmp_P>
    1b52:	89 2b       	or	r24, r25
    1b54:	c1 f4       	brne	.+48     	; 0x1b86 <strtod+0x9e>
    1b56:	23 96       	adiw	r28, 0x03	; 3
    1b58:	45 e0       	ldi	r20, 0x05	; 5
    1b5a:	50 e0       	ldi	r21, 0x00	; 0
    1b5c:	67 e5       	ldi	r22, 0x57	; 87
    1b5e:	70 e0       	ldi	r23, 0x00	; 0
    1b60:	ce 01       	movw	r24, r28
    1b62:	0e 94 a3 0f 	call	0x1f46	; 0x1f46 <strncasecmp_P>
    1b66:	89 2b       	or	r24, r25
    1b68:	09 f4       	brne	.+2      	; 0x1b6c <strtod+0x84>
    1b6a:	25 96       	adiw	r28, 0x05	; 5
    1b6c:	c1 14       	cp	r12, r1
    1b6e:	d1 04       	cpc	r13, r1
    1b70:	19 f0       	breq	.+6      	; 0x1b78 <strtod+0x90>
    1b72:	f6 01       	movw	r30, r12
    1b74:	d1 83       	std	Z+1, r29	; 0x01
    1b76:	c0 83       	st	Z, r28
    1b78:	11 11       	cpse	r17, r1
    1b7a:	f6 c0       	rjmp	.+492    	; 0x1d68 <strtod+0x280>
    1b7c:	60 e0       	ldi	r22, 0x00	; 0
    1b7e:	70 e0       	ldi	r23, 0x00	; 0
    1b80:	80 e8       	ldi	r24, 0x80	; 128
    1b82:	9f e7       	ldi	r25, 0x7F	; 127
    1b84:	fa c0       	rjmp	.+500    	; 0x1d7a <strtod+0x292>
    1b86:	43 e0       	ldi	r20, 0x03	; 3
    1b88:	50 e0       	ldi	r21, 0x00	; 0
    1b8a:	64 e5       	ldi	r22, 0x54	; 84
    1b8c:	70 e0       	ldi	r23, 0x00	; 0
    1b8e:	ce 01       	movw	r24, r28
    1b90:	0e 94 a3 0f 	call	0x1f46	; 0x1f46 <strncasecmp_P>
    1b94:	89 2b       	or	r24, r25
    1b96:	59 f4       	brne	.+22     	; 0x1bae <strtod+0xc6>
    1b98:	c1 14       	cp	r12, r1
    1b9a:	d1 04       	cpc	r13, r1
    1b9c:	09 f4       	brne	.+2      	; 0x1ba0 <strtod+0xb8>
    1b9e:	e9 c0       	rjmp	.+466    	; 0x1d72 <strtod+0x28a>
    1ba0:	f2 e0       	ldi	r31, 0x02	; 2
    1ba2:	ef 0e       	add	r14, r31
    1ba4:	f1 1c       	adc	r15, r1
    1ba6:	f6 01       	movw	r30, r12
    1ba8:	f1 82       	std	Z+1, r15	; 0x01
    1baa:	e0 82       	st	Z, r14
    1bac:	e2 c0       	rjmp	.+452    	; 0x1d72 <strtod+0x28a>
    1bae:	20 e0       	ldi	r18, 0x00	; 0
    1bb0:	30 e0       	ldi	r19, 0x00	; 0
    1bb2:	a9 01       	movw	r20, r18
    1bb4:	c0 e0       	ldi	r28, 0x00	; 0
    1bb6:	d0 e0       	ldi	r29, 0x00	; 0
    1bb8:	f7 01       	movw	r30, r14
    1bba:	80 ed       	ldi	r24, 0xD0	; 208
    1bbc:	a8 2e       	mov	r10, r24
    1bbe:	a0 0e       	add	r10, r16
    1bc0:	89 e0       	ldi	r24, 0x09	; 9
    1bc2:	8a 15       	cp	r24, r10
    1bc4:	30 f1       	brcs	.+76     	; 0x1c12 <strtod+0x12a>
    1bc6:	91 2f       	mov	r25, r17
    1bc8:	92 60       	ori	r25, 0x02	; 2
    1bca:	b9 2e       	mov	r11, r25
    1bcc:	81 2f       	mov	r24, r17
    1bce:	88 70       	andi	r24, 0x08	; 8
    1bd0:	12 ff       	sbrs	r17, 2
    1bd2:	04 c0       	rjmp	.+8      	; 0x1bdc <strtod+0xf4>
    1bd4:	81 11       	cpse	r24, r1
    1bd6:	24 c0       	rjmp	.+72     	; 0x1c20 <strtod+0x138>
    1bd8:	21 96       	adiw	r28, 0x01	; 1
    1bda:	22 c0       	rjmp	.+68     	; 0x1c20 <strtod+0x138>
    1bdc:	81 11       	cpse	r24, r1
    1bde:	21 97       	sbiw	r28, 0x01	; 1
    1be0:	a5 e0       	ldi	r26, 0x05	; 5
    1be2:	b0 e0       	ldi	r27, 0x00	; 0
    1be4:	0e 94 7e 10 	call	0x20fc	; 0x20fc <__muluhisi3>
    1be8:	dc 01       	movw	r26, r24
    1bea:	cb 01       	movw	r24, r22
    1bec:	88 0f       	add	r24, r24
    1bee:	99 1f       	adc	r25, r25
    1bf0:	aa 1f       	adc	r26, r26
    1bf2:	bb 1f       	adc	r27, r27
    1bf4:	9c 01       	movw	r18, r24
    1bf6:	ad 01       	movw	r20, r26
    1bf8:	2a 0d       	add	r18, r10
    1bfa:	31 1d       	adc	r19, r1
    1bfc:	41 1d       	adc	r20, r1
    1bfe:	51 1d       	adc	r21, r1
    1c00:	28 39       	cpi	r18, 0x98	; 152
    1c02:	89 e9       	ldi	r24, 0x99	; 153
    1c04:	38 07       	cpc	r19, r24
    1c06:	48 07       	cpc	r20, r24
    1c08:	89 e1       	ldi	r24, 0x19	; 25
    1c0a:	58 07       	cpc	r21, r24
    1c0c:	48 f0       	brcs	.+18     	; 0x1c20 <strtod+0x138>
    1c0e:	16 60       	ori	r17, 0x06	; 6
    1c10:	06 c0       	rjmp	.+12     	; 0x1c1e <strtod+0x136>
    1c12:	9e ef       	ldi	r25, 0xFE	; 254
    1c14:	a9 12       	cpse	r10, r25
    1c16:	0a c0       	rjmp	.+20     	; 0x1c2c <strtod+0x144>
    1c18:	13 fd       	sbrc	r17, 3
    1c1a:	40 c0       	rjmp	.+128    	; 0x1c9c <strtod+0x1b4>
    1c1c:	18 60       	ori	r17, 0x08	; 8
    1c1e:	b1 2e       	mov	r11, r17
    1c20:	8f ef       	ldi	r24, 0xFF	; 255
    1c22:	e8 1a       	sub	r14, r24
    1c24:	f8 0a       	sbc	r15, r24
    1c26:	00 81       	ld	r16, Z
    1c28:	1b 2d       	mov	r17, r11
    1c2a:	c6 cf       	rjmp	.-116    	; 0x1bb8 <strtod+0xd0>
    1c2c:	80 2f       	mov	r24, r16
    1c2e:	8f 7d       	andi	r24, 0xDF	; 223
    1c30:	85 34       	cpi	r24, 0x45	; 69
    1c32:	a1 f5       	brne	.+104    	; 0x1c9c <strtod+0x1b4>
    1c34:	80 81       	ld	r24, Z
    1c36:	8d 32       	cpi	r24, 0x2D	; 45
    1c38:	11 f4       	brne	.+4      	; 0x1c3e <strtod+0x156>
    1c3a:	10 61       	ori	r17, 0x10	; 16
    1c3c:	06 c0       	rjmp	.+12     	; 0x1c4a <strtod+0x162>
    1c3e:	8b 32       	cpi	r24, 0x2B	; 43
    1c40:	21 f0       	breq	.+8      	; 0x1c4a <strtod+0x162>
    1c42:	31 96       	adiw	r30, 0x01	; 1
    1c44:	61 e0       	ldi	r22, 0x01	; 1
    1c46:	70 e0       	ldi	r23, 0x00	; 0
    1c48:	04 c0       	rjmp	.+8      	; 0x1c52 <strtod+0x16a>
    1c4a:	81 81       	ldd	r24, Z+1	; 0x01
    1c4c:	32 96       	adiw	r30, 0x02	; 2
    1c4e:	62 e0       	ldi	r22, 0x02	; 2
    1c50:	70 e0       	ldi	r23, 0x00	; 0
    1c52:	80 53       	subi	r24, 0x30	; 48
    1c54:	8a 30       	cpi	r24, 0x0A	; 10
    1c56:	18 f0       	brcs	.+6      	; 0x1c5e <strtod+0x176>
    1c58:	e6 1b       	sub	r30, r22
    1c5a:	f7 0b       	sbc	r31, r23
    1c5c:	1f c0       	rjmp	.+62     	; 0x1c9c <strtod+0x1b4>
    1c5e:	60 e0       	ldi	r22, 0x00	; 0
    1c60:	70 e0       	ldi	r23, 0x00	; 0
    1c62:	60 38       	cpi	r22, 0x80	; 128
    1c64:	9c e0       	ldi	r25, 0x0C	; 12
    1c66:	79 07       	cpc	r23, r25
    1c68:	5c f4       	brge	.+22     	; 0x1c80 <strtod+0x198>
    1c6a:	db 01       	movw	r26, r22
    1c6c:	aa 0f       	add	r26, r26
    1c6e:	bb 1f       	adc	r27, r27
    1c70:	aa 0f       	add	r26, r26
    1c72:	bb 1f       	adc	r27, r27
    1c74:	6a 0f       	add	r22, r26
    1c76:	7b 1f       	adc	r23, r27
    1c78:	66 0f       	add	r22, r22
    1c7a:	77 1f       	adc	r23, r23
    1c7c:	68 0f       	add	r22, r24
    1c7e:	71 1d       	adc	r23, r1
    1c80:	31 96       	adiw	r30, 0x01	; 1
    1c82:	df 01       	movw	r26, r30
    1c84:	11 97       	sbiw	r26, 0x01	; 1
    1c86:	8c 91       	ld	r24, X
    1c88:	80 53       	subi	r24, 0x30	; 48
    1c8a:	8a 30       	cpi	r24, 0x0A	; 10
    1c8c:	50 f3       	brcs	.-44     	; 0x1c62 <strtod+0x17a>
    1c8e:	14 ff       	sbrs	r17, 4
    1c90:	03 c0       	rjmp	.+6      	; 0x1c98 <strtod+0x1b0>
    1c92:	71 95       	neg	r23
    1c94:	61 95       	neg	r22
    1c96:	71 09       	sbc	r23, r1
    1c98:	c6 0f       	add	r28, r22
    1c9a:	d7 1f       	adc	r29, r23
    1c9c:	11 ff       	sbrs	r17, 1
    1c9e:	08 c0       	rjmp	.+16     	; 0x1cb0 <strtod+0x1c8>
    1ca0:	c1 14       	cp	r12, r1
    1ca2:	d1 04       	cpc	r13, r1
    1ca4:	29 f0       	breq	.+10     	; 0x1cb0 <strtod+0x1c8>
    1ca6:	cf 01       	movw	r24, r30
    1ca8:	01 97       	sbiw	r24, 0x01	; 1
    1caa:	f6 01       	movw	r30, r12
    1cac:	91 83       	std	Z+1, r25	; 0x01
    1cae:	80 83       	st	Z, r24
    1cb0:	ca 01       	movw	r24, r20
    1cb2:	b9 01       	movw	r22, r18
    1cb4:	0e 94 45 08 	call	0x108a	; 0x108a <__floatunsisf>
    1cb8:	21 2f       	mov	r18, r17
    1cba:	23 70       	andi	r18, 0x03	; 3
    1cbc:	23 30       	cpi	r18, 0x03	; 3
    1cbe:	19 f0       	breq	.+6      	; 0x1cc6 <strtod+0x1de>
    1cc0:	4b 01       	movw	r8, r22
    1cc2:	5c 01       	movw	r10, r24
    1cc4:	06 c0       	rjmp	.+12     	; 0x1cd2 <strtod+0x1ea>
    1cc6:	4b 01       	movw	r8, r22
    1cc8:	5c 01       	movw	r10, r24
    1cca:	b7 fa       	bst	r11, 7
    1ccc:	b0 94       	com	r11
    1cce:	b7 f8       	bld	r11, 7
    1cd0:	b0 94       	com	r11
    1cd2:	20 e0       	ldi	r18, 0x00	; 0
    1cd4:	30 e0       	ldi	r19, 0x00	; 0
    1cd6:	a9 01       	movw	r20, r18
    1cd8:	c5 01       	movw	r24, r10
    1cda:	b4 01       	movw	r22, r8
    1cdc:	0e 94 98 07 	call	0xf30	; 0xf30 <__cmpsf2>
    1ce0:	88 23       	and	r24, r24
    1ce2:	09 f4       	brne	.+2      	; 0x1ce6 <strtod+0x1fe>
    1ce4:	3e c0       	rjmp	.+124    	; 0x1d62 <strtod+0x27a>
    1ce6:	d7 ff       	sbrs	r29, 7
    1ce8:	06 c0       	rjmp	.+12     	; 0x1cf6 <strtod+0x20e>
    1cea:	d1 95       	neg	r29
    1cec:	c1 95       	neg	r28
    1cee:	d1 09       	sbc	r29, r1
    1cf0:	03 e7       	ldi	r16, 0x73	; 115
    1cf2:	10 e0       	ldi	r17, 0x00	; 0
    1cf4:	02 c0       	rjmp	.+4      	; 0x1cfa <strtod+0x212>
    1cf6:	0b e8       	ldi	r16, 0x8B	; 139
    1cf8:	10 e0       	ldi	r17, 0x00	; 0
    1cfa:	68 01       	movw	r12, r16
    1cfc:	f8 e1       	ldi	r31, 0x18	; 24
    1cfe:	cf 1a       	sub	r12, r31
    1d00:	d1 08       	sbc	r13, r1
    1d02:	90 e2       	ldi	r25, 0x20	; 32
    1d04:	e9 2e       	mov	r14, r25
    1d06:	f1 2c       	mov	r15, r1
    1d08:	ce 15       	cp	r28, r14
    1d0a:	df 05       	cpc	r29, r15
    1d0c:	74 f0       	brlt	.+28     	; 0x1d2a <strtod+0x242>
    1d0e:	f8 01       	movw	r30, r16
    1d10:	25 91       	lpm	r18, Z+
    1d12:	35 91       	lpm	r19, Z+
    1d14:	45 91       	lpm	r20, Z+
    1d16:	54 91       	lpm	r21, Z
    1d18:	c5 01       	movw	r24, r10
    1d1a:	b4 01       	movw	r22, r8
    1d1c:	0e 94 fc 08 	call	0x11f8	; 0x11f8 <__mulsf3>
    1d20:	4b 01       	movw	r8, r22
    1d22:	5c 01       	movw	r10, r24
    1d24:	ce 19       	sub	r28, r14
    1d26:	df 09       	sbc	r29, r15
    1d28:	ef cf       	rjmp	.-34     	; 0x1d08 <strtod+0x220>
    1d2a:	04 50       	subi	r16, 0x04	; 4
    1d2c:	11 09       	sbc	r17, r1
    1d2e:	f5 94       	asr	r15
    1d30:	e7 94       	ror	r14
    1d32:	0c 15       	cp	r16, r12
    1d34:	1d 05       	cpc	r17, r13
    1d36:	41 f7       	brne	.-48     	; 0x1d08 <strtod+0x220>
    1d38:	8a 2d       	mov	r24, r10
    1d3a:	88 0f       	add	r24, r24
    1d3c:	8b 2d       	mov	r24, r11
    1d3e:	88 1f       	adc	r24, r24
    1d40:	8f 3f       	cpi	r24, 0xFF	; 255
    1d42:	49 f0       	breq	.+18     	; 0x1d56 <strtod+0x26e>
    1d44:	20 e0       	ldi	r18, 0x00	; 0
    1d46:	30 e0       	ldi	r19, 0x00	; 0
    1d48:	a9 01       	movw	r20, r18
    1d4a:	c5 01       	movw	r24, r10
    1d4c:	b4 01       	movw	r22, r8
    1d4e:	0e 94 98 07 	call	0xf30	; 0xf30 <__cmpsf2>
    1d52:	81 11       	cpse	r24, r1
    1d54:	06 c0       	rjmp	.+12     	; 0x1d62 <strtod+0x27a>
    1d56:	82 e2       	ldi	r24, 0x22	; 34
    1d58:	90 e0       	ldi	r25, 0x00	; 0
    1d5a:	90 93 24 02 	sts	0x0224, r25	; 0x800224 <errno+0x1>
    1d5e:	80 93 23 02 	sts	0x0223, r24	; 0x800223 <errno>
    1d62:	c5 01       	movw	r24, r10
    1d64:	b4 01       	movw	r22, r8
    1d66:	09 c0       	rjmp	.+18     	; 0x1d7a <strtod+0x292>
    1d68:	60 e0       	ldi	r22, 0x00	; 0
    1d6a:	70 e0       	ldi	r23, 0x00	; 0
    1d6c:	80 e8       	ldi	r24, 0x80	; 128
    1d6e:	9f ef       	ldi	r25, 0xFF	; 255
    1d70:	04 c0       	rjmp	.+8      	; 0x1d7a <strtod+0x292>
    1d72:	60 e0       	ldi	r22, 0x00	; 0
    1d74:	70 e0       	ldi	r23, 0x00	; 0
    1d76:	80 ec       	ldi	r24, 0xC0	; 192
    1d78:	9f e7       	ldi	r25, 0x7F	; 127
    1d7a:	cd b7       	in	r28, 0x3d	; 61
    1d7c:	de b7       	in	r29, 0x3e	; 62
    1d7e:	ec e0       	ldi	r30, 0x0C	; 12
    1d80:	0c 94 ab 10 	jmp	0x2156	; 0x2156 <__epilogue_restores__+0xc>

00001d84 <__ftoa_engine>:
    1d84:	28 30       	cpi	r18, 0x08	; 8
    1d86:	08 f0       	brcs	.+2      	; 0x1d8a <__ftoa_engine+0x6>
    1d88:	27 e0       	ldi	r18, 0x07	; 7
    1d8a:	33 27       	eor	r19, r19
    1d8c:	da 01       	movw	r26, r20
    1d8e:	99 0f       	add	r25, r25
    1d90:	31 1d       	adc	r19, r1
    1d92:	87 fd       	sbrc	r24, 7
    1d94:	91 60       	ori	r25, 0x01	; 1
    1d96:	00 96       	adiw	r24, 0x00	; 0
    1d98:	61 05       	cpc	r22, r1
    1d9a:	71 05       	cpc	r23, r1
    1d9c:	39 f4       	brne	.+14     	; 0x1dac <__ftoa_engine+0x28>
    1d9e:	32 60       	ori	r19, 0x02	; 2
    1da0:	2e 5f       	subi	r18, 0xFE	; 254
    1da2:	3d 93       	st	X+, r19
    1da4:	30 e3       	ldi	r19, 0x30	; 48
    1da6:	2a 95       	dec	r18
    1da8:	e1 f7       	brne	.-8      	; 0x1da2 <__ftoa_engine+0x1e>
    1daa:	08 95       	ret
    1dac:	9f 3f       	cpi	r25, 0xFF	; 255
    1dae:	30 f0       	brcs	.+12     	; 0x1dbc <__ftoa_engine+0x38>
    1db0:	80 38       	cpi	r24, 0x80	; 128
    1db2:	71 05       	cpc	r23, r1
    1db4:	61 05       	cpc	r22, r1
    1db6:	09 f0       	breq	.+2      	; 0x1dba <__ftoa_engine+0x36>
    1db8:	3c 5f       	subi	r19, 0xFC	; 252
    1dba:	3c 5f       	subi	r19, 0xFC	; 252
    1dbc:	3d 93       	st	X+, r19
    1dbe:	91 30       	cpi	r25, 0x01	; 1
    1dc0:	08 f0       	brcs	.+2      	; 0x1dc4 <__ftoa_engine+0x40>
    1dc2:	80 68       	ori	r24, 0x80	; 128
    1dc4:	91 1d       	adc	r25, r1
    1dc6:	df 93       	push	r29
    1dc8:	cf 93       	push	r28
    1dca:	1f 93       	push	r17
    1dcc:	0f 93       	push	r16
    1dce:	ff 92       	push	r15
    1dd0:	ef 92       	push	r14
    1dd2:	19 2f       	mov	r17, r25
    1dd4:	98 7f       	andi	r25, 0xF8	; 248
    1dd6:	96 95       	lsr	r25
    1dd8:	e9 2f       	mov	r30, r25
    1dda:	96 95       	lsr	r25
    1ddc:	96 95       	lsr	r25
    1dde:	e9 0f       	add	r30, r25
    1de0:	ff 27       	eor	r31, r31
    1de2:	e7 51       	subi	r30, 0x17	; 23
    1de4:	ff 4f       	sbci	r31, 0xFF	; 255
    1de6:	99 27       	eor	r25, r25
    1de8:	33 27       	eor	r19, r19
    1dea:	ee 24       	eor	r14, r14
    1dec:	ff 24       	eor	r15, r15
    1dee:	a7 01       	movw	r20, r14
    1df0:	e7 01       	movw	r28, r14
    1df2:	05 90       	lpm	r0, Z+
    1df4:	08 94       	sec
    1df6:	07 94       	ror	r0
    1df8:	28 f4       	brcc	.+10     	; 0x1e04 <__ftoa_engine+0x80>
    1dfa:	36 0f       	add	r19, r22
    1dfc:	e7 1e       	adc	r14, r23
    1dfe:	f8 1e       	adc	r15, r24
    1e00:	49 1f       	adc	r20, r25
    1e02:	51 1d       	adc	r21, r1
    1e04:	66 0f       	add	r22, r22
    1e06:	77 1f       	adc	r23, r23
    1e08:	88 1f       	adc	r24, r24
    1e0a:	99 1f       	adc	r25, r25
    1e0c:	06 94       	lsr	r0
    1e0e:	a1 f7       	brne	.-24     	; 0x1df8 <__ftoa_engine+0x74>
    1e10:	05 90       	lpm	r0, Z+
    1e12:	07 94       	ror	r0
    1e14:	28 f4       	brcc	.+10     	; 0x1e20 <__ftoa_engine+0x9c>
    1e16:	e7 0e       	add	r14, r23
    1e18:	f8 1e       	adc	r15, r24
    1e1a:	49 1f       	adc	r20, r25
    1e1c:	56 1f       	adc	r21, r22
    1e1e:	c1 1d       	adc	r28, r1
    1e20:	77 0f       	add	r23, r23
    1e22:	88 1f       	adc	r24, r24
    1e24:	99 1f       	adc	r25, r25
    1e26:	66 1f       	adc	r22, r22
    1e28:	06 94       	lsr	r0
    1e2a:	a1 f7       	brne	.-24     	; 0x1e14 <__ftoa_engine+0x90>
    1e2c:	05 90       	lpm	r0, Z+
    1e2e:	07 94       	ror	r0
    1e30:	28 f4       	brcc	.+10     	; 0x1e3c <__ftoa_engine+0xb8>
    1e32:	f8 0e       	add	r15, r24
    1e34:	49 1f       	adc	r20, r25
    1e36:	56 1f       	adc	r21, r22
    1e38:	c7 1f       	adc	r28, r23
    1e3a:	d1 1d       	adc	r29, r1
    1e3c:	88 0f       	add	r24, r24
    1e3e:	99 1f       	adc	r25, r25
    1e40:	66 1f       	adc	r22, r22
    1e42:	77 1f       	adc	r23, r23
    1e44:	06 94       	lsr	r0
    1e46:	a1 f7       	brne	.-24     	; 0x1e30 <__ftoa_engine+0xac>
    1e48:	05 90       	lpm	r0, Z+
    1e4a:	07 94       	ror	r0
    1e4c:	20 f4       	brcc	.+8      	; 0x1e56 <__ftoa_engine+0xd2>
    1e4e:	49 0f       	add	r20, r25
    1e50:	56 1f       	adc	r21, r22
    1e52:	c7 1f       	adc	r28, r23
    1e54:	d8 1f       	adc	r29, r24
    1e56:	99 0f       	add	r25, r25
    1e58:	66 1f       	adc	r22, r22
    1e5a:	77 1f       	adc	r23, r23
    1e5c:	88 1f       	adc	r24, r24
    1e5e:	06 94       	lsr	r0
    1e60:	a9 f7       	brne	.-22     	; 0x1e4c <__ftoa_engine+0xc8>
    1e62:	84 91       	lpm	r24, Z
    1e64:	10 95       	com	r17
    1e66:	17 70       	andi	r17, 0x07	; 7
    1e68:	41 f0       	breq	.+16     	; 0x1e7a <__ftoa_engine+0xf6>
    1e6a:	d6 95       	lsr	r29
    1e6c:	c7 95       	ror	r28
    1e6e:	57 95       	ror	r21
    1e70:	47 95       	ror	r20
    1e72:	f7 94       	ror	r15
    1e74:	e7 94       	ror	r14
    1e76:	1a 95       	dec	r17
    1e78:	c1 f7       	brne	.-16     	; 0x1e6a <__ftoa_engine+0xe6>
    1e7a:	ef e8       	ldi	r30, 0x8F	; 143
    1e7c:	f0 e0       	ldi	r31, 0x00	; 0
    1e7e:	68 94       	set
    1e80:	15 90       	lpm	r1, Z+
    1e82:	15 91       	lpm	r17, Z+
    1e84:	35 91       	lpm	r19, Z+
    1e86:	65 91       	lpm	r22, Z+
    1e88:	95 91       	lpm	r25, Z+
    1e8a:	05 90       	lpm	r0, Z+
    1e8c:	7f e2       	ldi	r23, 0x2F	; 47
    1e8e:	73 95       	inc	r23
    1e90:	e1 18       	sub	r14, r1
    1e92:	f1 0a       	sbc	r15, r17
    1e94:	43 0b       	sbc	r20, r19
    1e96:	56 0b       	sbc	r21, r22
    1e98:	c9 0b       	sbc	r28, r25
    1e9a:	d0 09       	sbc	r29, r0
    1e9c:	c0 f7       	brcc	.-16     	; 0x1e8e <__ftoa_engine+0x10a>
    1e9e:	e1 0c       	add	r14, r1
    1ea0:	f1 1e       	adc	r15, r17
    1ea2:	43 1f       	adc	r20, r19
    1ea4:	56 1f       	adc	r21, r22
    1ea6:	c9 1f       	adc	r28, r25
    1ea8:	d0 1d       	adc	r29, r0
    1eaa:	7e f4       	brtc	.+30     	; 0x1eca <__ftoa_engine+0x146>
    1eac:	70 33       	cpi	r23, 0x30	; 48
    1eae:	11 f4       	brne	.+4      	; 0x1eb4 <__ftoa_engine+0x130>
    1eb0:	8a 95       	dec	r24
    1eb2:	e6 cf       	rjmp	.-52     	; 0x1e80 <__ftoa_engine+0xfc>
    1eb4:	e8 94       	clt
    1eb6:	01 50       	subi	r16, 0x01	; 1
    1eb8:	30 f0       	brcs	.+12     	; 0x1ec6 <__ftoa_engine+0x142>
    1eba:	08 0f       	add	r16, r24
    1ebc:	0a f4       	brpl	.+2      	; 0x1ec0 <__ftoa_engine+0x13c>
    1ebe:	00 27       	eor	r16, r16
    1ec0:	02 17       	cp	r16, r18
    1ec2:	08 f4       	brcc	.+2      	; 0x1ec6 <__ftoa_engine+0x142>
    1ec4:	20 2f       	mov	r18, r16
    1ec6:	23 95       	inc	r18
    1ec8:	02 2f       	mov	r16, r18
    1eca:	7a 33       	cpi	r23, 0x3A	; 58
    1ecc:	28 f0       	brcs	.+10     	; 0x1ed8 <__ftoa_engine+0x154>
    1ece:	79 e3       	ldi	r23, 0x39	; 57
    1ed0:	7d 93       	st	X+, r23
    1ed2:	2a 95       	dec	r18
    1ed4:	e9 f7       	brne	.-6      	; 0x1ed0 <__ftoa_engine+0x14c>
    1ed6:	10 c0       	rjmp	.+32     	; 0x1ef8 <__ftoa_engine+0x174>
    1ed8:	7d 93       	st	X+, r23
    1eda:	2a 95       	dec	r18
    1edc:	89 f6       	brne	.-94     	; 0x1e80 <__ftoa_engine+0xfc>
    1ede:	06 94       	lsr	r0
    1ee0:	97 95       	ror	r25
    1ee2:	67 95       	ror	r22
    1ee4:	37 95       	ror	r19
    1ee6:	17 95       	ror	r17
    1ee8:	17 94       	ror	r1
    1eea:	e1 18       	sub	r14, r1
    1eec:	f1 0a       	sbc	r15, r17
    1eee:	43 0b       	sbc	r20, r19
    1ef0:	56 0b       	sbc	r21, r22
    1ef2:	c9 0b       	sbc	r28, r25
    1ef4:	d0 09       	sbc	r29, r0
    1ef6:	98 f0       	brcs	.+38     	; 0x1f1e <__ftoa_engine+0x19a>
    1ef8:	23 95       	inc	r18
    1efa:	7e 91       	ld	r23, -X
    1efc:	73 95       	inc	r23
    1efe:	7a 33       	cpi	r23, 0x3A	; 58
    1f00:	08 f0       	brcs	.+2      	; 0x1f04 <__ftoa_engine+0x180>
    1f02:	70 e3       	ldi	r23, 0x30	; 48
    1f04:	7c 93       	st	X, r23
    1f06:	20 13       	cpse	r18, r16
    1f08:	b8 f7       	brcc	.-18     	; 0x1ef8 <__ftoa_engine+0x174>
    1f0a:	7e 91       	ld	r23, -X
    1f0c:	70 61       	ori	r23, 0x10	; 16
    1f0e:	7d 93       	st	X+, r23
    1f10:	30 f0       	brcs	.+12     	; 0x1f1e <__ftoa_engine+0x19a>
    1f12:	83 95       	inc	r24
    1f14:	71 e3       	ldi	r23, 0x31	; 49
    1f16:	7d 93       	st	X+, r23
    1f18:	70 e3       	ldi	r23, 0x30	; 48
    1f1a:	2a 95       	dec	r18
    1f1c:	e1 f7       	brne	.-8      	; 0x1f16 <__ftoa_engine+0x192>
    1f1e:	11 24       	eor	r1, r1
    1f20:	ef 90       	pop	r14
    1f22:	ff 90       	pop	r15
    1f24:	0f 91       	pop	r16
    1f26:	1f 91       	pop	r17
    1f28:	cf 91       	pop	r28
    1f2a:	df 91       	pop	r29
    1f2c:	99 27       	eor	r25, r25
    1f2e:	87 fd       	sbrc	r24, 7
    1f30:	90 95       	com	r25
    1f32:	08 95       	ret

00001f34 <isspace>:
    1f34:	91 11       	cpse	r25, r1
    1f36:	0c 94 7b 10 	jmp	0x20f6	; 0x20f6 <__ctype_isfalse>
    1f3a:	80 32       	cpi	r24, 0x20	; 32
    1f3c:	19 f0       	breq	.+6      	; 0x1f44 <isspace+0x10>
    1f3e:	89 50       	subi	r24, 0x09	; 9
    1f40:	85 50       	subi	r24, 0x05	; 5
    1f42:	c8 f7       	brcc	.-14     	; 0x1f36 <isspace+0x2>
    1f44:	08 95       	ret

00001f46 <strncasecmp_P>:
    1f46:	fb 01       	movw	r30, r22
    1f48:	dc 01       	movw	r26, r24
    1f4a:	41 50       	subi	r20, 0x01	; 1
    1f4c:	50 40       	sbci	r21, 0x00	; 0
    1f4e:	88 f0       	brcs	.+34     	; 0x1f72 <strncasecmp_P+0x2c>
    1f50:	8d 91       	ld	r24, X+
    1f52:	81 34       	cpi	r24, 0x41	; 65
    1f54:	1c f0       	brlt	.+6      	; 0x1f5c <strncasecmp_P+0x16>
    1f56:	8b 35       	cpi	r24, 0x5B	; 91
    1f58:	0c f4       	brge	.+2      	; 0x1f5c <strncasecmp_P+0x16>
    1f5a:	80 5e       	subi	r24, 0xE0	; 224
    1f5c:	65 91       	lpm	r22, Z+
    1f5e:	61 34       	cpi	r22, 0x41	; 65
    1f60:	1c f0       	brlt	.+6      	; 0x1f68 <strncasecmp_P+0x22>
    1f62:	6b 35       	cpi	r22, 0x5B	; 91
    1f64:	0c f4       	brge	.+2      	; 0x1f68 <strncasecmp_P+0x22>
    1f66:	60 5e       	subi	r22, 0xE0	; 224
    1f68:	86 1b       	sub	r24, r22
    1f6a:	61 11       	cpse	r22, r1
    1f6c:	71 f3       	breq	.-36     	; 0x1f4a <strncasecmp_P+0x4>
    1f6e:	99 0b       	sbc	r25, r25
    1f70:	08 95       	ret
    1f72:	88 1b       	sub	r24, r24
    1f74:	fc cf       	rjmp	.-8      	; 0x1f6e <strncasecmp_P+0x28>

00001f76 <strnlen_P>:
    1f76:	fc 01       	movw	r30, r24
    1f78:	05 90       	lpm	r0, Z+
    1f7a:	61 50       	subi	r22, 0x01	; 1
    1f7c:	70 40       	sbci	r23, 0x00	; 0
    1f7e:	01 10       	cpse	r0, r1
    1f80:	d8 f7       	brcc	.-10     	; 0x1f78 <strnlen_P+0x2>
    1f82:	80 95       	com	r24
    1f84:	90 95       	com	r25
    1f86:	8e 0f       	add	r24, r30
    1f88:	9f 1f       	adc	r25, r31
    1f8a:	08 95       	ret

00001f8c <strnlen>:
    1f8c:	fc 01       	movw	r30, r24
    1f8e:	61 50       	subi	r22, 0x01	; 1
    1f90:	70 40       	sbci	r23, 0x00	; 0
    1f92:	01 90       	ld	r0, Z+
    1f94:	01 10       	cpse	r0, r1
    1f96:	d8 f7       	brcc	.-10     	; 0x1f8e <strnlen+0x2>
    1f98:	80 95       	com	r24
    1f9a:	90 95       	com	r25
    1f9c:	8e 0f       	add	r24, r30
    1f9e:	9f 1f       	adc	r25, r31
    1fa0:	08 95       	ret

00001fa2 <strrev>:
    1fa2:	dc 01       	movw	r26, r24
    1fa4:	fc 01       	movw	r30, r24
    1fa6:	67 2f       	mov	r22, r23
    1fa8:	71 91       	ld	r23, Z+
    1faa:	77 23       	and	r23, r23
    1fac:	e1 f7       	brne	.-8      	; 0x1fa6 <strrev+0x4>
    1fae:	32 97       	sbiw	r30, 0x02	; 2
    1fb0:	04 c0       	rjmp	.+8      	; 0x1fba <strrev+0x18>
    1fb2:	7c 91       	ld	r23, X
    1fb4:	6d 93       	st	X+, r22
    1fb6:	70 83       	st	Z, r23
    1fb8:	62 91       	ld	r22, -Z
    1fba:	ae 17       	cp	r26, r30
    1fbc:	bf 07       	cpc	r27, r31
    1fbe:	c8 f3       	brcs	.-14     	; 0x1fb2 <strrev+0x10>
    1fc0:	08 95       	ret

00001fc2 <fputc>:
    1fc2:	0f 93       	push	r16
    1fc4:	1f 93       	push	r17
    1fc6:	cf 93       	push	r28
    1fc8:	df 93       	push	r29
    1fca:	fb 01       	movw	r30, r22
    1fcc:	23 81       	ldd	r18, Z+3	; 0x03
    1fce:	21 fd       	sbrc	r18, 1
    1fd0:	03 c0       	rjmp	.+6      	; 0x1fd8 <fputc+0x16>
    1fd2:	8f ef       	ldi	r24, 0xFF	; 255
    1fd4:	9f ef       	ldi	r25, 0xFF	; 255
    1fd6:	2c c0       	rjmp	.+88     	; 0x2030 <fputc+0x6e>
    1fd8:	22 ff       	sbrs	r18, 2
    1fda:	16 c0       	rjmp	.+44     	; 0x2008 <fputc+0x46>
    1fdc:	46 81       	ldd	r20, Z+6	; 0x06
    1fde:	57 81       	ldd	r21, Z+7	; 0x07
    1fe0:	24 81       	ldd	r18, Z+4	; 0x04
    1fe2:	35 81       	ldd	r19, Z+5	; 0x05
    1fe4:	42 17       	cp	r20, r18
    1fe6:	53 07       	cpc	r21, r19
    1fe8:	44 f4       	brge	.+16     	; 0x1ffa <fputc+0x38>
    1fea:	a0 81       	ld	r26, Z
    1fec:	b1 81       	ldd	r27, Z+1	; 0x01
    1fee:	9d 01       	movw	r18, r26
    1ff0:	2f 5f       	subi	r18, 0xFF	; 255
    1ff2:	3f 4f       	sbci	r19, 0xFF	; 255
    1ff4:	31 83       	std	Z+1, r19	; 0x01
    1ff6:	20 83       	st	Z, r18
    1ff8:	8c 93       	st	X, r24
    1ffa:	26 81       	ldd	r18, Z+6	; 0x06
    1ffc:	37 81       	ldd	r19, Z+7	; 0x07
    1ffe:	2f 5f       	subi	r18, 0xFF	; 255
    2000:	3f 4f       	sbci	r19, 0xFF	; 255
    2002:	37 83       	std	Z+7, r19	; 0x07
    2004:	26 83       	std	Z+6, r18	; 0x06
    2006:	14 c0       	rjmp	.+40     	; 0x2030 <fputc+0x6e>
    2008:	8b 01       	movw	r16, r22
    200a:	ec 01       	movw	r28, r24
    200c:	fb 01       	movw	r30, r22
    200e:	00 84       	ldd	r0, Z+8	; 0x08
    2010:	f1 85       	ldd	r31, Z+9	; 0x09
    2012:	e0 2d       	mov	r30, r0
    2014:	09 95       	icall
    2016:	89 2b       	or	r24, r25
    2018:	e1 f6       	brne	.-72     	; 0x1fd2 <fputc+0x10>
    201a:	d8 01       	movw	r26, r16
    201c:	16 96       	adiw	r26, 0x06	; 6
    201e:	8d 91       	ld	r24, X+
    2020:	9c 91       	ld	r25, X
    2022:	17 97       	sbiw	r26, 0x07	; 7
    2024:	01 96       	adiw	r24, 0x01	; 1
    2026:	17 96       	adiw	r26, 0x07	; 7
    2028:	9c 93       	st	X, r25
    202a:	8e 93       	st	-X, r24
    202c:	16 97       	sbiw	r26, 0x06	; 6
    202e:	ce 01       	movw	r24, r28
    2030:	df 91       	pop	r29
    2032:	cf 91       	pop	r28
    2034:	1f 91       	pop	r17
    2036:	0f 91       	pop	r16
    2038:	08 95       	ret

0000203a <__ultoa_invert>:
    203a:	fa 01       	movw	r30, r20
    203c:	aa 27       	eor	r26, r26
    203e:	28 30       	cpi	r18, 0x08	; 8
    2040:	51 f1       	breq	.+84     	; 0x2096 <__ultoa_invert+0x5c>
    2042:	20 31       	cpi	r18, 0x10	; 16
    2044:	81 f1       	breq	.+96     	; 0x20a6 <__ultoa_invert+0x6c>
    2046:	e8 94       	clt
    2048:	6f 93       	push	r22
    204a:	6e 7f       	andi	r22, 0xFE	; 254
    204c:	6e 5f       	subi	r22, 0xFE	; 254
    204e:	7f 4f       	sbci	r23, 0xFF	; 255
    2050:	8f 4f       	sbci	r24, 0xFF	; 255
    2052:	9f 4f       	sbci	r25, 0xFF	; 255
    2054:	af 4f       	sbci	r26, 0xFF	; 255
    2056:	b1 e0       	ldi	r27, 0x01	; 1
    2058:	3e d0       	rcall	.+124    	; 0x20d6 <__ultoa_invert+0x9c>
    205a:	b4 e0       	ldi	r27, 0x04	; 4
    205c:	3c d0       	rcall	.+120    	; 0x20d6 <__ultoa_invert+0x9c>
    205e:	67 0f       	add	r22, r23
    2060:	78 1f       	adc	r23, r24
    2062:	89 1f       	adc	r24, r25
    2064:	9a 1f       	adc	r25, r26
    2066:	a1 1d       	adc	r26, r1
    2068:	68 0f       	add	r22, r24
    206a:	79 1f       	adc	r23, r25
    206c:	8a 1f       	adc	r24, r26
    206e:	91 1d       	adc	r25, r1
    2070:	a1 1d       	adc	r26, r1
    2072:	6a 0f       	add	r22, r26
    2074:	71 1d       	adc	r23, r1
    2076:	81 1d       	adc	r24, r1
    2078:	91 1d       	adc	r25, r1
    207a:	a1 1d       	adc	r26, r1
    207c:	20 d0       	rcall	.+64     	; 0x20be <__ultoa_invert+0x84>
    207e:	09 f4       	brne	.+2      	; 0x2082 <__ultoa_invert+0x48>
    2080:	68 94       	set
    2082:	3f 91       	pop	r19
    2084:	2a e0       	ldi	r18, 0x0A	; 10
    2086:	26 9f       	mul	r18, r22
    2088:	11 24       	eor	r1, r1
    208a:	30 19       	sub	r19, r0
    208c:	30 5d       	subi	r19, 0xD0	; 208
    208e:	31 93       	st	Z+, r19
    2090:	de f6       	brtc	.-74     	; 0x2048 <__ultoa_invert+0xe>
    2092:	cf 01       	movw	r24, r30
    2094:	08 95       	ret
    2096:	46 2f       	mov	r20, r22
    2098:	47 70       	andi	r20, 0x07	; 7
    209a:	40 5d       	subi	r20, 0xD0	; 208
    209c:	41 93       	st	Z+, r20
    209e:	b3 e0       	ldi	r27, 0x03	; 3
    20a0:	0f d0       	rcall	.+30     	; 0x20c0 <__ultoa_invert+0x86>
    20a2:	c9 f7       	brne	.-14     	; 0x2096 <__ultoa_invert+0x5c>
    20a4:	f6 cf       	rjmp	.-20     	; 0x2092 <__ultoa_invert+0x58>
    20a6:	46 2f       	mov	r20, r22
    20a8:	4f 70       	andi	r20, 0x0F	; 15
    20aa:	40 5d       	subi	r20, 0xD0	; 208
    20ac:	4a 33       	cpi	r20, 0x3A	; 58
    20ae:	18 f0       	brcs	.+6      	; 0x20b6 <__ultoa_invert+0x7c>
    20b0:	49 5d       	subi	r20, 0xD9	; 217
    20b2:	31 fd       	sbrc	r19, 1
    20b4:	40 52       	subi	r20, 0x20	; 32
    20b6:	41 93       	st	Z+, r20
    20b8:	02 d0       	rcall	.+4      	; 0x20be <__ultoa_invert+0x84>
    20ba:	a9 f7       	brne	.-22     	; 0x20a6 <__ultoa_invert+0x6c>
    20bc:	ea cf       	rjmp	.-44     	; 0x2092 <__ultoa_invert+0x58>
    20be:	b4 e0       	ldi	r27, 0x04	; 4
    20c0:	a6 95       	lsr	r26
    20c2:	97 95       	ror	r25
    20c4:	87 95       	ror	r24
    20c6:	77 95       	ror	r23
    20c8:	67 95       	ror	r22
    20ca:	ba 95       	dec	r27
    20cc:	c9 f7       	brne	.-14     	; 0x20c0 <__ultoa_invert+0x86>
    20ce:	00 97       	sbiw	r24, 0x00	; 0
    20d0:	61 05       	cpc	r22, r1
    20d2:	71 05       	cpc	r23, r1
    20d4:	08 95       	ret
    20d6:	9b 01       	movw	r18, r22
    20d8:	ac 01       	movw	r20, r24
    20da:	0a 2e       	mov	r0, r26
    20dc:	06 94       	lsr	r0
    20de:	57 95       	ror	r21
    20e0:	47 95       	ror	r20
    20e2:	37 95       	ror	r19
    20e4:	27 95       	ror	r18
    20e6:	ba 95       	dec	r27
    20e8:	c9 f7       	brne	.-14     	; 0x20dc <__ultoa_invert+0xa2>
    20ea:	62 0f       	add	r22, r18
    20ec:	73 1f       	adc	r23, r19
    20ee:	84 1f       	adc	r24, r20
    20f0:	95 1f       	adc	r25, r21
    20f2:	a0 1d       	adc	r26, r0
    20f4:	08 95       	ret

000020f6 <__ctype_isfalse>:
    20f6:	99 27       	eor	r25, r25
    20f8:	88 27       	eor	r24, r24

000020fa <__ctype_istrue>:
    20fa:	08 95       	ret

000020fc <__muluhisi3>:
    20fc:	0e 94 c0 10 	call	0x2180	; 0x2180 <__umulhisi3>
    2100:	a5 9f       	mul	r26, r21
    2102:	90 0d       	add	r25, r0
    2104:	b4 9f       	mul	r27, r20
    2106:	90 0d       	add	r25, r0
    2108:	a4 9f       	mul	r26, r20
    210a:	80 0d       	add	r24, r0
    210c:	91 1d       	adc	r25, r1
    210e:	11 24       	eor	r1, r1
    2110:	08 95       	ret

00002112 <__prologue_saves__>:
    2112:	2f 92       	push	r2
    2114:	3f 92       	push	r3
    2116:	4f 92       	push	r4
    2118:	5f 92       	push	r5
    211a:	6f 92       	push	r6
    211c:	7f 92       	push	r7
    211e:	8f 92       	push	r8
    2120:	9f 92       	push	r9
    2122:	af 92       	push	r10
    2124:	bf 92       	push	r11
    2126:	cf 92       	push	r12
    2128:	df 92       	push	r13
    212a:	ef 92       	push	r14
    212c:	ff 92       	push	r15
    212e:	0f 93       	push	r16
    2130:	1f 93       	push	r17
    2132:	cf 93       	push	r28
    2134:	df 93       	push	r29
    2136:	cd b7       	in	r28, 0x3d	; 61
    2138:	de b7       	in	r29, 0x3e	; 62
    213a:	ca 1b       	sub	r28, r26
    213c:	db 0b       	sbc	r29, r27
    213e:	0f b6       	in	r0, 0x3f	; 63
    2140:	f8 94       	cli
    2142:	de bf       	out	0x3e, r29	; 62
    2144:	0f be       	out	0x3f, r0	; 63
    2146:	cd bf       	out	0x3d, r28	; 61
    2148:	09 94       	ijmp

0000214a <__epilogue_restores__>:
    214a:	2a 88       	ldd	r2, Y+18	; 0x12
    214c:	39 88       	ldd	r3, Y+17	; 0x11
    214e:	48 88       	ldd	r4, Y+16	; 0x10
    2150:	5f 84       	ldd	r5, Y+15	; 0x0f
    2152:	6e 84       	ldd	r6, Y+14	; 0x0e
    2154:	7d 84       	ldd	r7, Y+13	; 0x0d
    2156:	8c 84       	ldd	r8, Y+12	; 0x0c
    2158:	9b 84       	ldd	r9, Y+11	; 0x0b
    215a:	aa 84       	ldd	r10, Y+10	; 0x0a
    215c:	b9 84       	ldd	r11, Y+9	; 0x09
    215e:	c8 84       	ldd	r12, Y+8	; 0x08
    2160:	df 80       	ldd	r13, Y+7	; 0x07
    2162:	ee 80       	ldd	r14, Y+6	; 0x06
    2164:	fd 80       	ldd	r15, Y+5	; 0x05
    2166:	0c 81       	ldd	r16, Y+4	; 0x04
    2168:	1b 81       	ldd	r17, Y+3	; 0x03
    216a:	aa 81       	ldd	r26, Y+2	; 0x02
    216c:	b9 81       	ldd	r27, Y+1	; 0x01
    216e:	ce 0f       	add	r28, r30
    2170:	d1 1d       	adc	r29, r1
    2172:	0f b6       	in	r0, 0x3f	; 63
    2174:	f8 94       	cli
    2176:	de bf       	out	0x3e, r29	; 62
    2178:	0f be       	out	0x3f, r0	; 63
    217a:	cd bf       	out	0x3d, r28	; 61
    217c:	ed 01       	movw	r28, r26
    217e:	08 95       	ret

00002180 <__umulhisi3>:
    2180:	a2 9f       	mul	r26, r18
    2182:	b0 01       	movw	r22, r0
    2184:	b3 9f       	mul	r27, r19
    2186:	c0 01       	movw	r24, r0
    2188:	a3 9f       	mul	r26, r19
    218a:	70 0d       	add	r23, r0
    218c:	81 1d       	adc	r24, r1
    218e:	11 24       	eor	r1, r1
    2190:	91 1d       	adc	r25, r1
    2192:	b2 9f       	mul	r27, r18
    2194:	70 0d       	add	r23, r0
    2196:	81 1d       	adc	r24, r1
    2198:	11 24       	eor	r1, r1
    219a:	91 1d       	adc	r25, r1
    219c:	08 95       	ret

0000219e <_exit>:
    219e:	f8 94       	cli

000021a0 <__stop_program>:
    21a0:	ff cf       	rjmp	.-2      	; 0x21a0 <__stop_program>
