
FullCode.elf:     file format elf32-avr

Sections:
Idx Name          Size      VMA       LMA       File off  Algn
  0 .text         00001928  00000000  00000000  00000094  2**1
                  CONTENTS, ALLOC, LOAD, READONLY, CODE
  1 .data         00000146  00800060  00001928  000019bc  2**0
                  CONTENTS, ALLOC, LOAD, DATA
  2 .bss          0000011e  008001a6  008001a6  00001b02  2**0
                  ALLOC
  3 .comment      0000005c  00000000  00000000  00001b02  2**0
                  CONTENTS, READONLY
  4 .note.gnu.avr.deviceinfo 0000003c  00000000  00000000  00001b60  2**2
                  CONTENTS, READONLY
  5 .debug_aranges 00000170  00000000  00000000  00001b9c  2**0
                  CONTENTS, READONLY, DEBUGGING
  6 .debug_info   00002246  00000000  00000000  00001d0c  2**0
                  CONTENTS, READONLY, DEBUGGING
  7 .debug_abbrev 00000873  00000000  00000000  00003f52  2**0
                  CONTENTS, READONLY, DEBUGGING
  8 .debug_line   00001124  00000000  00000000  000047c5  2**0
                  CONTENTS, READONLY, DEBUGGING
  9 .debug_frame  00000420  00000000  00000000  000058ec  2**2
                  CONTENTS, READONLY, DEBUGGING
 10 .debug_str    00000764  00000000  00000000  00005d0c  2**0
                  CONTENTS, READONLY, DEBUGGING
 11 .debug_loc    0000181f  00000000  00000000  00006470  2**0
                  CONTENTS, READONLY, DEBUGGING
 12 .debug_ranges 00000168  00000000  00000000  00007c8f  2**0
                  CONTENTS, READONLY, DEBUGGING

Disassembly of section .text:

00000000 <__vectors>:
       0:	0c 94 c5 00 	jmp	0x18a	; 0x18a <__ctors_end>
       4:	0c 94 e2 00 	jmp	0x1c4	; 0x1c4 <__bad_interrupt>
       8:	0c 94 e2 00 	jmp	0x1c4	; 0x1c4 <__bad_interrupt>
       c:	0c 94 e2 00 	jmp	0x1c4	; 0x1c4 <__bad_interrupt>
      10:	0c 94 e2 00 	jmp	0x1c4	; 0x1c4 <__bad_interrupt>
      14:	0c 94 e2 00 	jmp	0x1c4	; 0x1c4 <__bad_interrupt>
      18:	0c 94 e2 00 	jmp	0x1c4	; 0x1c4 <__bad_interrupt>
      1c:	0c 94 e2 00 	jmp	0x1c4	; 0x1c4 <__bad_interrupt>
      20:	0c 94 e2 00 	jmp	0x1c4	; 0x1c4 <__bad_interrupt>
      24:	0c 94 e2 00 	jmp	0x1c4	; 0x1c4 <__bad_interrupt>
      28:	0c 94 e2 00 	jmp	0x1c4	; 0x1c4 <__bad_interrupt>
      2c:	0c 94 e2 00 	jmp	0x1c4	; 0x1c4 <__bad_interrupt>
      30:	0c 94 e2 00 	jmp	0x1c4	; 0x1c4 <__bad_interrupt>
      34:	0c 94 fa 02 	jmp	0x5f4	; 0x5f4 <__vector_13>
      38:	0c 94 e2 00 	jmp	0x1c4	; 0x1c4 <__bad_interrupt>
      3c:	0c 94 e2 00 	jmp	0x1c4	; 0x1c4 <__bad_interrupt>
      40:	0c 94 e2 00 	jmp	0x1c4	; 0x1c4 <__bad_interrupt>
      44:	0c 94 e2 00 	jmp	0x1c4	; 0x1c4 <__bad_interrupt>
      48:	0c 94 e2 00 	jmp	0x1c4	; 0x1c4 <__bad_interrupt>
      4c:	0c 94 e2 00 	jmp	0x1c4	; 0x1c4 <__bad_interrupt>
      50:	0c 94 e2 00 	jmp	0x1c4	; 0x1c4 <__bad_interrupt>

00000054 <__trampolines_end>:
      54:	4e 41       	sbci	r20, 0x1E	; 30
      56:	4e 49       	Address 0x00000056 is out of bounds.
.word	0xffff	; ????

00000057 <pstr_inity>:
      57:	49 4e 49 54 59                                      INITY

0000005c <pstr_inf>:
      5c:	49 4e 46                                            INF

0000005f <pwr_m10>:
      5f:	cd cc cc 3d 0a d7 23 3c 17 b7 d1 38 77 cc 2b 32     ...=..#<...8w.+2
      6f:	95 95 e6 24 1f b1 4f 0a                             ...$..O.

00000077 <pwr_p10>:
      77:	00 00 20 41 00 00 c8 42 00 40 1c 46 20 bc be 4c     .. A...B.@.F ..L
      87:	ca 1b 0e 5a ae c5 9d 74 00 40 7a 10 f3 5a 00 a0     ...Z...t.@z..Z..
      97:	72 4e 18 09 00 10 a5 d4 e8 00 00 e8 76 48 17 00     rN..........vH..
      a7:	00 e4 0b 54 02 00 00 ca 9a 3b 00 00 00 e1 f5 05     ...T.....;......
      b7:	00 00 80 96 98 00 00 00 40 42 0f 00 00 00 a0 86     ........@B......
      c7:	01 00 00 00 10 27 00 00 00 00 e8 03 00 00 00 00     .....'..........
      d7:	64 00 00 00 00 00 0a 00 00 00 00 00 01 00 00 00     d...............
      e7:	00 00 2c 76 d8 88 dc 67 4f 08 23 df c1 df ae 59     ..,v...gO.#....Y
      f7:	e1 b1 b7 96 e5 e3 e4 53 c6 3a e6 51 99 76 96 e8     .......S.:.Q.v..
     107:	e6 c2 84 26 eb 89 8c 9b 62 ed 40 7c 6f fc ef bc     ...&....b.@|o...
     117:	9c 9f 40 f2 ba a5 6f a5 f4 90 05 5a 2a f7 5c 93     ..@...o....Z*.\.
     127:	6b 6c f9 67 6d c1 1b fc e0 e4 0d 47 fe f5 20 e6     kl.gm......G.. .
     137:	b5 00 d0 ed 90 2e 03 00 94 35 77 05 00 80 84 1e     .........5w.....
     147:	08 00 00 20 4e 0a 00 00 00 c8 0c 33 33 33 33 0f     ... N......3333.
     157:	98 6e 12 83 11 41 ef 8d 21 14 89 3b e6 55 16 cf     .n...A..!..;.U..
     167:	fe e6 db 18 d1 84 4b 38 1b f7 7c 1d 90 1d a4 bb     ......K8..|.....
     177:	e4 24 20 32 84 72 5e 22 81 00 c9 f1 24 ec a1 e5     .$ 2.r^"....$...
     187:	3d 27 00                                            ='.

0000018a <__ctors_end>:
     18a:	11 24       	eor	r1, r1
     18c:	1f be       	out	0x3f, r1	; 63
     18e:	cf e5       	ldi	r28, 0x5F	; 95
     190:	d8 e0       	ldi	r29, 0x08	; 8
     192:	de bf       	out	0x3e, r29	; 62
     194:	cd bf       	out	0x3d, r28	; 61

00000196 <__do_copy_data>:
     196:	11 e0       	ldi	r17, 0x01	; 1
     198:	a0 e6       	ldi	r26, 0x60	; 96
     19a:	b0 e0       	ldi	r27, 0x00	; 0
     19c:	e8 e2       	ldi	r30, 0x28	; 40
     19e:	f9 e1       	ldi	r31, 0x19	; 25
     1a0:	02 c0       	rjmp	.+4      	; 0x1a6 <__do_copy_data+0x10>
     1a2:	05 90       	lpm	r0, Z+
     1a4:	0d 92       	st	X+, r0
     1a6:	a6 3a       	cpi	r26, 0xA6	; 166
     1a8:	b1 07       	cpc	r27, r17
     1aa:	d9 f7       	brne	.-10     	; 0x1a2 <__do_copy_data+0xc>

000001ac <__do_clear_bss>:
     1ac:	22 e0       	ldi	r18, 0x02	; 2
     1ae:	a6 ea       	ldi	r26, 0xA6	; 166
     1b0:	b1 e0       	ldi	r27, 0x01	; 1
     1b2:	01 c0       	rjmp	.+2      	; 0x1b6 <.do_clear_bss_start>

000001b4 <.do_clear_bss_loop>:
     1b4:	1d 92       	st	X+, r1

000001b6 <.do_clear_bss_start>:
     1b6:	a4 3c       	cpi	r26, 0xC4	; 196
     1b8:	b2 07       	cpc	r27, r18
     1ba:	e1 f7       	brne	.-8      	; 0x1b4 <.do_clear_bss_loop>
     1bc:	0e 94 13 05 	call	0xa26	; 0xa26 <main>
     1c0:	0c 94 92 0c 	jmp	0x1924	; 0x1924 <_exit>

000001c4 <__bad_interrupt>:
     1c4:	0c 94 00 00 	jmp	0	; 0x0 <__vectors>

000001c8 <I2C_Init>:

#include "I2C_Master_H_file.h"								/* Include I2C header file */

void I2C_Init()												/* I2C initialize function */
{
	TWBR = BITRATE(TWSR = 0x00);							/* Get bit rate register value by formula */
     1c8:	11 b8       	out	0x01, r1	; 1
     1ca:	80 e2       	ldi	r24, 0x20	; 32
     1cc:	80 b9       	out	0x00, r24	; 0
     1ce:	08 95       	ret

000001d0 <LCD_Command>:
	while (str[i]!='\0')		/* Send string till null */
	{
		USART_TxChar(str[i]);
		i++;
	}
     1d0:	98 b3       	in	r25, 0x18	; 24
     1d2:	9f 70       	andi	r25, 0x0F	; 15
     1d4:	28 2f       	mov	r18, r24
     1d6:	20 7f       	andi	r18, 0xF0	; 240
     1d8:	92 2b       	or	r25, r18
     1da:	98 bb       	out	0x18, r25	; 24
     1dc:	98 b3       	in	r25, 0x18	; 24
     1de:	9e 7f       	andi	r25, 0xFE	; 254
     1e0:	98 bb       	out	0x18, r25	; 24
     1e2:	98 b3       	in	r25, 0x18	; 24
     1e4:	92 60       	ori	r25, 0x02	; 2
     1e6:	98 bb       	out	0x18, r25	; 24
     1e8:	32 e0       	ldi	r19, 0x02	; 2
     1ea:	3a 95       	dec	r19
     1ec:	f1 f7       	brne	.-4      	; 0x1ea <LCD_Command+0x1a>
     1ee:	00 c0       	rjmp	.+0      	; 0x1f0 <LCD_Command+0x20>
     1f0:	98 b3       	in	r25, 0x18	; 24
     1f2:	9d 7f       	andi	r25, 0xFD	; 253
     1f4:	98 bb       	out	0x18, r25	; 24
     1f6:	ef e8       	ldi	r30, 0x8F	; 143
     1f8:	f1 e0       	ldi	r31, 0x01	; 1
     1fa:	31 97       	sbiw	r30, 0x01	; 1
     1fc:	f1 f7       	brne	.-4      	; 0x1fa <LCD_Command+0x2a>
     1fe:	00 c0       	rjmp	.+0      	; 0x200 <LCD_Command+0x30>
     200:	00 00       	nop
     202:	28 b3       	in	r18, 0x18	; 24
     204:	f0 e1       	ldi	r31, 0x10	; 16
     206:	8f 9f       	mul	r24, r31
     208:	c0 01       	movw	r24, r0
     20a:	11 24       	eor	r1, r1
     20c:	92 2f       	mov	r25, r18
     20e:	9f 70       	andi	r25, 0x0F	; 15
     210:	89 2b       	or	r24, r25
     212:	88 bb       	out	0x18, r24	; 24
     214:	88 b3       	in	r24, 0x18	; 24
     216:	82 60       	ori	r24, 0x02	; 2
     218:	88 bb       	out	0x18, r24	; 24
     21a:	32 e0       	ldi	r19, 0x02	; 2
     21c:	3a 95       	dec	r19
     21e:	f1 f7       	brne	.-4      	; 0x21c <LCD_Command+0x4c>
     220:	00 c0       	rjmp	.+0      	; 0x222 <LCD_Command+0x52>
     222:	88 b3       	in	r24, 0x18	; 24
     224:	8d 7f       	andi	r24, 0xFD	; 253
     226:	88 bb       	out	0x18, r24	; 24
     228:	8f e9       	ldi	r24, 0x9F	; 159
     22a:	9f e0       	ldi	r25, 0x0F	; 15
     22c:	01 97       	sbiw	r24, 0x01	; 1
     22e:	f1 f7       	brne	.-4      	; 0x22c <LCD_Command+0x5c>
     230:	00 c0       	rjmp	.+0      	; 0x232 <LCD_Command+0x62>
     232:	00 00       	nop
     234:	08 95       	ret

00000236 <LCD_Char>:
     236:	98 b3       	in	r25, 0x18	; 24
     238:	9f 70       	andi	r25, 0x0F	; 15
     23a:	28 2f       	mov	r18, r24
     23c:	20 7f       	andi	r18, 0xF0	; 240
     23e:	92 2b       	or	r25, r18
     240:	98 bb       	out	0x18, r25	; 24
     242:	98 b3       	in	r25, 0x18	; 24
     244:	91 60       	ori	r25, 0x01	; 1
     246:	98 bb       	out	0x18, r25	; 24
     248:	98 b3       	in	r25, 0x18	; 24
     24a:	92 60       	ori	r25, 0x02	; 2
     24c:	98 bb       	out	0x18, r25	; 24
     24e:	32 e0       	ldi	r19, 0x02	; 2
     250:	3a 95       	dec	r19
     252:	f1 f7       	brne	.-4      	; 0x250 <LCD_Char+0x1a>
     254:	00 c0       	rjmp	.+0      	; 0x256 <LCD_Char+0x20>
     256:	98 b3       	in	r25, 0x18	; 24
     258:	9d 7f       	andi	r25, 0xFD	; 253
     25a:	98 bb       	out	0x18, r25	; 24
     25c:	ef e8       	ldi	r30, 0x8F	; 143
     25e:	f1 e0       	ldi	r31, 0x01	; 1
     260:	31 97       	sbiw	r30, 0x01	; 1
     262:	f1 f7       	brne	.-4      	; 0x260 <LCD_Char+0x2a>
     264:	00 c0       	rjmp	.+0      	; 0x266 <LCD_Char+0x30>
     266:	00 00       	nop
     268:	28 b3       	in	r18, 0x18	; 24
     26a:	f0 e1       	ldi	r31, 0x10	; 16
     26c:	8f 9f       	mul	r24, r31
     26e:	c0 01       	movw	r24, r0
     270:	11 24       	eor	r1, r1
     272:	92 2f       	mov	r25, r18
     274:	9f 70       	andi	r25, 0x0F	; 15
     276:	89 2b       	or	r24, r25
     278:	88 bb       	out	0x18, r24	; 24
     27a:	88 b3       	in	r24, 0x18	; 24
     27c:	82 60       	ori	r24, 0x02	; 2
     27e:	88 bb       	out	0x18, r24	; 24
     280:	32 e0       	ldi	r19, 0x02	; 2
     282:	3a 95       	dec	r19
     284:	f1 f7       	brne	.-4      	; 0x282 <LCD_Char+0x4c>
     286:	00 c0       	rjmp	.+0      	; 0x288 <LCD_Char+0x52>
     288:	88 b3       	in	r24, 0x18	; 24
     28a:	8d 7f       	andi	r24, 0xFD	; 253
     28c:	88 bb       	out	0x18, r24	; 24
     28e:	8f e9       	ldi	r24, 0x9F	; 159
     290:	9f e0       	ldi	r25, 0x0F	; 15
     292:	01 97       	sbiw	r24, 0x01	; 1
     294:	f1 f7       	brne	.-4      	; 0x292 <LCD_Char+0x5c>
     296:	00 c0       	rjmp	.+0      	; 0x298 <LCD_Char+0x62>
     298:	00 00       	nop
     29a:	08 95       	ret

0000029c <LCD_Init>:
     29c:	8f ef       	ldi	r24, 0xFF	; 255
     29e:	87 bb       	out	0x17, r24	; 23
     2a0:	8f e3       	ldi	r24, 0x3F	; 63
     2a2:	9c e9       	ldi	r25, 0x9C	; 156
     2a4:	01 97       	sbiw	r24, 0x01	; 1
     2a6:	f1 f7       	brne	.-4      	; 0x2a4 <LCD_Init+0x8>
     2a8:	00 c0       	rjmp	.+0      	; 0x2aa <LCD_Init+0xe>
     2aa:	00 00       	nop
     2ac:	83 e3       	ldi	r24, 0x33	; 51
     2ae:	0e 94 e8 00 	call	0x1d0	; 0x1d0 <LCD_Command>
     2b2:	82 e3       	ldi	r24, 0x32	; 50
     2b4:	0e 94 e8 00 	call	0x1d0	; 0x1d0 <LCD_Command>
     2b8:	88 e2       	ldi	r24, 0x28	; 40
     2ba:	0e 94 e8 00 	call	0x1d0	; 0x1d0 <LCD_Command>
     2be:	8c e0       	ldi	r24, 0x0C	; 12
     2c0:	0e 94 e8 00 	call	0x1d0	; 0x1d0 <LCD_Command>
     2c4:	86 e0       	ldi	r24, 0x06	; 6
     2c6:	0e 94 e8 00 	call	0x1d0	; 0x1d0 <LCD_Command>
     2ca:	81 e0       	ldi	r24, 0x01	; 1
     2cc:	0e 94 e8 00 	call	0x1d0	; 0x1d0 <LCD_Command>
     2d0:	8f e9       	ldi	r24, 0x9F	; 159
     2d2:	9f e0       	ldi	r25, 0x0F	; 15
     2d4:	01 97       	sbiw	r24, 0x01	; 1
     2d6:	f1 f7       	brne	.-4      	; 0x2d4 <LCD_Init+0x38>
     2d8:	00 c0       	rjmp	.+0      	; 0x2da <LCD_Init+0x3e>
     2da:	00 00       	nop
     2dc:	80 e8       	ldi	r24, 0x80	; 128
     2de:	0e 94 e8 00 	call	0x1d0	; 0x1d0 <LCD_Command>
     2e2:	08 95       	ret

000002e4 <LCD_String>:
     2e4:	0f 93       	push	r16
     2e6:	1f 93       	push	r17
     2e8:	cf 93       	push	r28
     2ea:	df 93       	push	r29
     2ec:	8c 01       	movw	r16, r24
     2ee:	c0 e0       	ldi	r28, 0x00	; 0
     2f0:	d0 e0       	ldi	r29, 0x00	; 0
     2f2:	03 c0       	rjmp	.+6      	; 0x2fa <LCD_String+0x16>
     2f4:	0e 94 1b 01 	call	0x236	; 0x236 <LCD_Char>
     2f8:	21 96       	adiw	r28, 0x01	; 1
     2fa:	f8 01       	movw	r30, r16
     2fc:	ec 0f       	add	r30, r28
     2fe:	fd 1f       	adc	r31, r29
     300:	80 81       	ld	r24, Z
     302:	81 11       	cpse	r24, r1
     304:	f7 cf       	rjmp	.-18     	; 0x2f4 <LCD_String+0x10>
     306:	df 91       	pop	r29
     308:	cf 91       	pop	r28
     30a:	1f 91       	pop	r17
     30c:	0f 91       	pop	r16
     30e:	08 95       	ret

00000310 <LCD_String_xy>:
     310:	cf 93       	push	r28
     312:	df 93       	push	r29
     314:	ea 01       	movw	r28, r20
     316:	81 11       	cpse	r24, r1
     318:	08 c0       	rjmp	.+16     	; 0x32a <LCD_String_xy+0x1a>
     31a:	60 31       	cpi	r22, 0x10	; 16
     31c:	30 f4       	brcc	.+12     	; 0x32a <LCD_String_xy+0x1a>
     31e:	86 2f       	mov	r24, r22
     320:	8f 70       	andi	r24, 0x0F	; 15
     322:	80 68       	ori	r24, 0x80	; 128
     324:	0e 94 e8 00 	call	0x1d0	; 0x1d0 <LCD_Command>
     328:	09 c0       	rjmp	.+18     	; 0x33c <LCD_String_xy+0x2c>
     32a:	81 30       	cpi	r24, 0x01	; 1
     32c:	39 f4       	brne	.+14     	; 0x33c <LCD_String_xy+0x2c>
     32e:	60 31       	cpi	r22, 0x10	; 16
     330:	28 f4       	brcc	.+10     	; 0x33c <LCD_String_xy+0x2c>
     332:	86 2f       	mov	r24, r22
     334:	8f 70       	andi	r24, 0x0F	; 15
     336:	80 6c       	ori	r24, 0xC0	; 192
     338:	0e 94 e8 00 	call	0x1d0	; 0x1d0 <LCD_Command>
     33c:	ce 01       	movw	r24, r28
     33e:	0e 94 72 01 	call	0x2e4	; 0x2e4 <LCD_String>
     342:	df 91       	pop	r29
     344:	cf 91       	pop	r28
     346:	08 95       	ret

00000348 <LCD_Clear>:
     348:	81 e0       	ldi	r24, 0x01	; 1
     34a:	0e 94 e8 00 	call	0x1d0	; 0x1d0 <LCD_Command>
     34e:	8f e9       	ldi	r24, 0x9F	; 159
     350:	9f e0       	ldi	r25, 0x0F	; 15
     352:	01 97       	sbiw	r24, 0x01	; 1
     354:	f1 f7       	brne	.-4      	; 0x352 <LCD_Clear+0xa>
     356:	00 c0       	rjmp	.+0      	; 0x358 <LCD_Clear+0x10>
     358:	00 00       	nop
     35a:	80 e8       	ldi	r24, 0x80	; 128
     35c:	0e 94 e8 00 	call	0x1d0	; 0x1d0 <LCD_Command>
     360:	08 95       	ret

00000362 <ADC_Init>:
     362:	1a ba       	out	0x1a, r1	; 26
     364:	87 e8       	ldi	r24, 0x87	; 135
     366:	86 b9       	out	0x06, r24	; 6
     368:	80 e4       	ldi	r24, 0x40	; 64
     36a:	87 b9       	out	0x07, r24	; 7
     36c:	08 95       	ret

0000036e <ADC_Read>:
     36e:	97 b1       	in	r25, 0x07	; 7
     370:	8f 70       	andi	r24, 0x0F	; 15
     372:	98 2b       	or	r25, r24
     374:	97 b9       	out	0x07, r25	; 7
     376:	86 b1       	in	r24, 0x06	; 6
     378:	80 64       	ori	r24, 0x40	; 64
     37a:	86 b9       	out	0x06, r24	; 6
     37c:	34 9b       	sbis	0x06, 4	; 6
     37e:	fe cf       	rjmp	.-4      	; 0x37c <ADC_Read+0xe>
     380:	8a e1       	ldi	r24, 0x1A	; 26
     382:	8a 95       	dec	r24
     384:	f1 f7       	brne	.-4      	; 0x382 <ADC_Read+0x14>
     386:	00 c0       	rjmp	.+0      	; 0x388 <ADC_Read+0x1a>
     388:	24 b1       	in	r18, 0x04	; 4
     38a:	85 b1       	in	r24, 0x05	; 5
     38c:	90 e0       	ldi	r25, 0x00	; 0
     38e:	98 2f       	mov	r25, r24
     390:	88 27       	eor	r24, r24
     392:	82 0f       	add	r24, r18
     394:	91 1d       	adc	r25, r1
     396:	08 95       	ret

00000398 <PWM_init>:
     398:	89 e6       	ldi	r24, 0x69	; 105
     39a:	83 bf       	out	0x33, r24	; 51
     39c:	87 b3       	in	r24, 0x17	; 23
     39e:	88 60       	ori	r24, 0x08	; 8
     3a0:	87 bb       	out	0x17, r24	; 23
     3a2:	08 95       	ret

000003a4 <USART_Init>:
     3a4:	2a b1       	in	r18, 0x0a	; 10
     3a6:	28 69       	ori	r18, 0x98	; 152
     3a8:	2a b9       	out	0x0a, r18	; 10
     3aa:	20 b5       	in	r18, 0x20	; 32
     3ac:	26 68       	ori	r18, 0x86	; 134
     3ae:	20 bd       	out	0x20, r18	; 32
     3b0:	dc 01       	movw	r26, r24
     3b2:	cb 01       	movw	r24, r22
     3b4:	88 0f       	add	r24, r24
     3b6:	99 1f       	adc	r25, r25
     3b8:	aa 1f       	adc	r26, r26
     3ba:	bb 1f       	adc	r27, r27
     3bc:	88 0f       	add	r24, r24
     3be:	99 1f       	adc	r25, r25
     3c0:	aa 1f       	adc	r26, r26
     3c2:	bb 1f       	adc	r27, r27
     3c4:	9c 01       	movw	r18, r24
     3c6:	ad 01       	movw	r20, r26
     3c8:	22 0f       	add	r18, r18
     3ca:	33 1f       	adc	r19, r19
     3cc:	44 1f       	adc	r20, r20
     3ce:	55 1f       	adc	r21, r21
     3d0:	22 0f       	add	r18, r18
     3d2:	33 1f       	adc	r19, r19
     3d4:	44 1f       	adc	r20, r20
     3d6:	55 1f       	adc	r21, r21
     3d8:	60 e0       	ldi	r22, 0x00	; 0
     3da:	72 e1       	ldi	r23, 0x12	; 18
     3dc:	8a e7       	ldi	r24, 0x7A	; 122
     3de:	90 e0       	ldi	r25, 0x00	; 0
     3e0:	0e 94 4c 08 	call	0x1098	; 0x1098 <__udivmodsi4>
     3e4:	8f ef       	ldi	r24, 0xFF	; 255
     3e6:	82 0f       	add	r24, r18
     3e8:	89 b9       	out	0x09, r24	; 9
     3ea:	da 01       	movw	r26, r20
     3ec:	c9 01       	movw	r24, r18
     3ee:	01 97       	sbiw	r24, 0x01	; 1
     3f0:	a1 09       	sbc	r26, r1
     3f2:	b1 09       	sbc	r27, r1
     3f4:	89 2f       	mov	r24, r25
     3f6:	9a 2f       	mov	r25, r26
     3f8:	ab 2f       	mov	r26, r27
     3fa:	bb 27       	eor	r27, r27
     3fc:	80 bd       	out	0x20, r24	; 32
     3fe:	08 95       	ret

00000400 <USART_TxChar>:
     400:	5d 9b       	sbis	0x0b, 5	; 11
     402:	fe cf       	rjmp	.-4      	; 0x400 <USART_TxChar>
     404:	8c b9       	out	0x0c, r24	; 12
     406:	08 95       	ret

00000408 <get_altitude>:
	sei(); //It is a macro that executes an assembler instruction to enable interrupts.

}

void get_altitude(uint16_t alt_pointer){  //unsigned 16-bit integer - integers between 0 and 65,535
	cli(); //Command Line Interface - CLIs accept as input commands that are entered by keyboard
     408:	f8 94       	cli
	uint8_t alt_index;  //unsigned 8-bit integer- integer has a range of 0 to 255
	uint8_t index = alt_pointer+1;
     40a:	8f 5f       	subi	r24, 0xFF	; 255
	alt_index=0;
     40c:	90 e0       	ldi	r25, 0x00	; 0
	/* parse Altitude in GGA string stored in buffer */
	for( ; GGA_Buffer[index]!=','; index++){
     40e:	07 c0       	rjmp	.+14     	; 0x41e <get_altitude+0x16>
		Altitude_Buffer[alt_index]= GGA_Buffer[index];
     410:	e9 2f       	mov	r30, r25
     412:	f0 e0       	ldi	r31, 0x00	; 0
     414:	e6 54       	subi	r30, 0x46	; 70
     416:	fd 4f       	sbci	r31, 0xFD	; 253
     418:	20 83       	st	Z, r18
		alt_index++;
     41a:	9f 5f       	subi	r25, 0xFF	; 255
	cli(); //Command Line Interface - CLIs accept as input commands that are entered by keyboard
	uint8_t alt_index;  //unsigned 8-bit integer- integer has a range of 0 to 255
	uint8_t index = alt_pointer+1;
	alt_index=0;
	/* parse Altitude in GGA string stored in buffer */
	for( ; GGA_Buffer[index]!=','; index++){
     41c:	8f 5f       	subi	r24, 0xFF	; 255
     41e:	48 2f       	mov	r20, r24
     420:	50 e0       	ldi	r21, 0x00	; 0
     422:	fa 01       	movw	r30, r20
     424:	e5 55       	subi	r30, 0x55	; 85
     426:	fe 4f       	sbci	r31, 0xFE	; 254
     428:	20 81       	ld	r18, Z
     42a:	2c 32       	cpi	r18, 0x2C	; 44
     42c:	89 f7       	brne	.-30     	; 0x410 <get_altitude+0x8>
		Altitude_Buffer[alt_index]= GGA_Buffer[index];
		alt_index++;
	}
	
	Altitude_Buffer[alt_index]   = GGA_Buffer[index+1];
     42e:	e9 2f       	mov	r30, r25
     430:	f0 e0       	ldi	r31, 0x00	; 0
     432:	da 01       	movw	r26, r20
     434:	a4 55       	subi	r26, 0x54	; 84
     436:	be 4f       	sbci	r27, 0xFE	; 254
     438:	8c 91       	ld	r24, X
     43a:	e6 54       	subi	r30, 0x46	; 70
     43c:	fd 4f       	sbci	r31, 0xFD	; 253
     43e:	80 83       	st	Z, r24
	sei();//It is a macro that executes an assembler instruction to enable interrupts.
     440:	78 94       	sei
     442:	08 95       	ret

00000444 <convert_to_degrees_lat>:
}


void convert_to_degrees_lat(char *raw){
     444:	8f 92       	push	r8
     446:	9f 92       	push	r9
     448:	af 92       	push	r10
     44a:	bf 92       	push	r11
     44c:	cf 92       	push	r12
     44e:	df 92       	push	r13
     450:	ef 92       	push	r14
     452:	ff 92       	push	r15
     454:	0f 93       	push	r16
     456:	1f 93       	push	r17
	float decimal_value,temp;
	
	int32_t degrees;
	
	float position;
	value = atof(raw); /* convert string into float for conversion */
     458:	0e 94 8e 08 	call	0x111c	; 0x111c <atof>
	
	/* convert raw latitude/longitude into degree format */
	decimal_value = (value/100);
     45c:	20 e0       	ldi	r18, 0x00	; 0
     45e:	30 e0       	ldi	r19, 0x00	; 0
     460:	48 ec       	ldi	r20, 0xC8	; 200
     462:	52 e4       	ldi	r21, 0x42	; 66
     464:	0e 94 85 06 	call	0xd0a	; 0xd0a <__divsf3>
     468:	6b 01       	movw	r12, r22
     46a:	7c 01       	movw	r14, r24
	degrees = (int)(decimal_value);
     46c:	0e 94 f7 06 	call	0xdee	; 0xdee <__fixsfsi>
	temp = (decimal_value - (int)decimal_value)/0.6;
     470:	07 2e       	mov	r0, r23
     472:	00 0c       	add	r0, r0
     474:	88 0b       	sbc	r24, r24
     476:	99 0b       	sbc	r25, r25
     478:	0e 94 2f 07 	call	0xe5e	; 0xe5e <__floatsisf>
     47c:	4b 01       	movw	r8, r22
     47e:	5c 01       	movw	r10, r24
     480:	9b 01       	movw	r18, r22
     482:	ac 01       	movw	r20, r24
     484:	c7 01       	movw	r24, r14
     486:	b6 01       	movw	r22, r12
     488:	0e 94 13 06 	call	0xc26	; 0xc26 <__subsf3>
     48c:	2a e9       	ldi	r18, 0x9A	; 154
     48e:	39 e9       	ldi	r19, 0x99	; 153
     490:	49 e1       	ldi	r20, 0x19	; 25
     492:	5f e3       	ldi	r21, 0x3F	; 63
     494:	0e 94 85 06 	call	0xd0a	; 0xd0a <__divsf3>
     498:	9b 01       	movw	r18, r22
     49a:	ac 01       	movw	r20, r24
	position = (float)degrees + temp;
     49c:	c5 01       	movw	r24, r10
     49e:	b4 01       	movw	r22, r8
     4a0:	0e 94 14 06 	call	0xc28	; 0xc28 <__addsf3>
	
	dtostrf(position, 6, 4, lat_degrees_buffer); /* dtostrf is a function that convert float value into string.Here the position is a float value and it convert as a string degree buffer variable*/
     4a4:	06 ea       	ldi	r16, 0xA6	; 166
     4a6:	12 e0       	ldi	r17, 0x02	; 2
     4a8:	24 e0       	ldi	r18, 0x04	; 4
     4aa:	46 e0       	ldi	r20, 0x06	; 6
     4ac:	0e 94 6e 08 	call	0x10dc	; 0x10dc <dtostrf>
}
     4b0:	1f 91       	pop	r17
     4b2:	0f 91       	pop	r16
     4b4:	ff 90       	pop	r15
     4b6:	ef 90       	pop	r14
     4b8:	df 90       	pop	r13
     4ba:	cf 90       	pop	r12
     4bc:	bf 90       	pop	r11
     4be:	af 90       	pop	r10
     4c0:	9f 90       	pop	r9
     4c2:	8f 90       	pop	r8
     4c4:	08 95       	ret

000004c6 <get_latitude>:




void get_latitude(uint16_t lat_pointer){  //unsigned 16-bit integer - integers between 0 and 65,535
	cli(); //Command Line Interface - CLIs accept as input commands that are entered by keyboard
     4c6:	f8 94       	cli
	uint8_t lat_index; //unsigned 8-bit integer- integer has a range of 0 to 255
	uint8_t index = lat_pointer+1;//unsigned 8-bit integer- integer has a range of 0 to 255
     4c8:	8f 5f       	subi	r24, 0xFF	; 255
	lat_index=0;
     4ca:	90 e0       	ldi	r25, 0x00	; 0
	
	/* parse Latitude in GGA string stored in buffer */
	for(;GGA_Buffer[index]!=',';index++){
     4cc:	07 c0       	rjmp	.+14     	; 0x4dc <get_latitude+0x16>
		Latitude_Buffer[lat_index]= GGA_Buffer[index];
     4ce:	e9 2f       	mov	r30, r25
     4d0:	f0 e0       	ldi	r31, 0x00	; 0
     4d2:	e1 58       	subi	r30, 0x81	; 129
     4d4:	fd 4f       	sbci	r31, 0xFD	; 253
     4d6:	20 83       	st	Z, r18
		lat_index++;
     4d8:	9f 5f       	subi	r25, 0xFF	; 255
	uint8_t lat_index; //unsigned 8-bit integer- integer has a range of 0 to 255
	uint8_t index = lat_pointer+1;//unsigned 8-bit integer- integer has a range of 0 to 255
	lat_index=0;
	
	/* parse Latitude in GGA string stored in buffer */
	for(;GGA_Buffer[index]!=',';index++){
     4da:	8f 5f       	subi	r24, 0xFF	; 255
     4dc:	e8 2f       	mov	r30, r24
     4de:	f0 e0       	ldi	r31, 0x00	; 0
     4e0:	e5 55       	subi	r30, 0x55	; 85
     4e2:	fe 4f       	sbci	r31, 0xFE	; 254
     4e4:	20 81       	ld	r18, Z
     4e6:	2c 32       	cpi	r18, 0x2C	; 44
     4e8:	91 f7       	brne	.-28     	; 0x4ce <get_latitude+0x8>
		Latitude_Buffer[lat_index]= GGA_Buffer[index];
		lat_index++;
	}
	
	Latitude_Buffer[lat_index++] = GGA_Buffer[index++];
     4ea:	31 e0       	ldi	r19, 0x01	; 1
     4ec:	39 0f       	add	r19, r25
     4ee:	e9 2f       	mov	r30, r25
     4f0:	f0 e0       	ldi	r31, 0x00	; 0
     4f2:	8f 5f       	subi	r24, 0xFF	; 255
     4f4:	e1 58       	subi	r30, 0x81	; 129
     4f6:	fd 4f       	sbci	r31, 0xFD	; 253
     4f8:	20 83       	st	Z, r18
	Latitude_Buffer[lat_index]= GGA_Buffer[index];		/* get direction */
     4fa:	23 2f       	mov	r18, r19
     4fc:	30 e0       	ldi	r19, 0x00	; 0
     4fe:	e8 2f       	mov	r30, r24
     500:	f0 e0       	ldi	r31, 0x00	; 0
     502:	e5 55       	subi	r30, 0x55	; 85
     504:	fe 4f       	sbci	r31, 0xFE	; 254
     506:	80 81       	ld	r24, Z
     508:	f9 01       	movw	r30, r18
     50a:	e1 58       	subi	r30, 0x81	; 129
     50c:	fd 4f       	sbci	r31, 0xFD	; 253
     50e:	80 83       	st	Z, r24
	convert_to_degrees_lat(Latitude_Buffer);   // convert raw latitude into degree format and pass that value as string
     510:	8f e7       	ldi	r24, 0x7F	; 127
     512:	92 e0       	ldi	r25, 0x02	; 2
     514:	0e 94 22 02 	call	0x444	; 0x444 <convert_to_degrees_lat>
	sei(); //It is a macro that executes an assembler instruction to enable interrupts.
     518:	78 94       	sei
     51a:	08 95       	ret

0000051c <convert_to_degrees_long>:
	position = (float)degrees + temp;
	
	dtostrf(position, 6, 4, lat_degrees_buffer); /* dtostrf is a function that convert float value into string.Here the position is a float value and it convert as a string degree buffer variable*/
}

void convert_to_degrees_long(char *raw){
     51c:	8f 92       	push	r8
     51e:	9f 92       	push	r9
     520:	af 92       	push	r10
     522:	bf 92       	push	r11
     524:	cf 92       	push	r12
     526:	df 92       	push	r13
     528:	ef 92       	push	r14
     52a:	ff 92       	push	r15
     52c:	0f 93       	push	r16
     52e:	1f 93       	push	r17
	float decimal_value,temp;
	
	int32_t degrees;
	
	float position;
	value = atof(raw); /* convert string into float for conversion */
     530:	0e 94 8e 08 	call	0x111c	; 0x111c <atof>
	
	/* convert raw latitude/longitude into degree format */
	decimal_value = (value/100);
     534:	20 e0       	ldi	r18, 0x00	; 0
     536:	30 e0       	ldi	r19, 0x00	; 0
     538:	48 ec       	ldi	r20, 0xC8	; 200
     53a:	52 e4       	ldi	r21, 0x42	; 66
     53c:	0e 94 85 06 	call	0xd0a	; 0xd0a <__divsf3>
     540:	6b 01       	movw	r12, r22
     542:	7c 01       	movw	r14, r24
	degrees = (int)(decimal_value);
     544:	0e 94 f7 06 	call	0xdee	; 0xdee <__fixsfsi>
	temp = (decimal_value - (int)decimal_value)/0.6;
     548:	07 2e       	mov	r0, r23
     54a:	00 0c       	add	r0, r0
     54c:	88 0b       	sbc	r24, r24
     54e:	99 0b       	sbc	r25, r25
     550:	0e 94 2f 07 	call	0xe5e	; 0xe5e <__floatsisf>
     554:	4b 01       	movw	r8, r22
     556:	5c 01       	movw	r10, r24
     558:	9b 01       	movw	r18, r22
     55a:	ac 01       	movw	r20, r24
     55c:	c7 01       	movw	r24, r14
     55e:	b6 01       	movw	r22, r12
     560:	0e 94 13 06 	call	0xc26	; 0xc26 <__subsf3>
     564:	2a e9       	ldi	r18, 0x9A	; 154
     566:	39 e9       	ldi	r19, 0x99	; 153
     568:	49 e1       	ldi	r20, 0x19	; 25
     56a:	5f e3       	ldi	r21, 0x3F	; 63
     56c:	0e 94 85 06 	call	0xd0a	; 0xd0a <__divsf3>
     570:	9b 01       	movw	r18, r22
     572:	ac 01       	movw	r20, r24
	position = (float)degrees + temp;
     574:	c5 01       	movw	r24, r10
     576:	b4 01       	movw	r22, r8
     578:	0e 94 14 06 	call	0xc28	; 0xc28 <__addsf3>
	
	dtostrf(position, 6, 4, long_degrees_buffer); /* dtostrf is a function that convert float value into string.Here the position is a float value and it convert as a string degree buffer variable*/
     57c:	0d e4       	ldi	r16, 0x4D	; 77
     57e:	12 e0       	ldi	r17, 0x02	; 2
     580:	24 e0       	ldi	r18, 0x04	; 4
     582:	46 e0       	ldi	r20, 0x06	; 6
     584:	0e 94 6e 08 	call	0x10dc	; 0x10dc <dtostrf>
}
     588:	1f 91       	pop	r17
     58a:	0f 91       	pop	r16
     58c:	ff 90       	pop	r15
     58e:	ef 90       	pop	r14
     590:	df 90       	pop	r13
     592:	cf 90       	pop	r12
     594:	bf 90       	pop	r11
     596:	af 90       	pop	r10
     598:	9f 90       	pop	r9
     59a:	8f 90       	pop	r8
     59c:	08 95       	ret

0000059e <get_longitude>:
	convert_to_degrees_lat(Latitude_Buffer);   // convert raw latitude into degree format and pass that value as string
	sei(); //It is a macro that executes an assembler instruction to enable interrupts.
}

void get_longitude(uint16_t long_pointer){
	cli(); //Command Line Interface - CLIs accept as input commands that are entered by keyboard
     59e:	f8 94       	cli
	uint8_t long_index;  //unsigned 8-bit integer- integer has a range of 0 to 255
	uint8_t index = long_pointer+1;
     5a0:	8f 5f       	subi	r24, 0xFF	; 255
	long_index=0;
     5a2:	90 e0       	ldi	r25, 0x00	; 0
	
	/* parse Longitude in GGA string stored in buffer */
	for( ; GGA_Buffer[index]!=','; index++){
     5a4:	07 c0       	rjmp	.+14     	; 0x5b4 <get_longitude+0x16>
		Longitude_Buffer[long_index]= GGA_Buffer[index];
     5a6:	e9 2f       	mov	r30, r25
     5a8:	f0 e0       	ldi	r31, 0x00	; 0
     5aa:	ef 59       	subi	r30, 0x9F	; 159
     5ac:	fd 4f       	sbci	r31, 0xFD	; 253
     5ae:	20 83       	st	Z, r18
		long_index++;
     5b0:	9f 5f       	subi	r25, 0xFF	; 255
	uint8_t long_index;  //unsigned 8-bit integer- integer has a range of 0 to 255
	uint8_t index = long_pointer+1;
	long_index=0;
	
	/* parse Longitude in GGA string stored in buffer */
	for( ; GGA_Buffer[index]!=','; index++){
     5b2:	8f 5f       	subi	r24, 0xFF	; 255
     5b4:	e8 2f       	mov	r30, r24
     5b6:	f0 e0       	ldi	r31, 0x00	; 0
     5b8:	e5 55       	subi	r30, 0x55	; 85
     5ba:	fe 4f       	sbci	r31, 0xFE	; 254
     5bc:	20 81       	ld	r18, Z
     5be:	2c 32       	cpi	r18, 0x2C	; 44
     5c0:	91 f7       	brne	.-28     	; 0x5a6 <get_longitude+0x8>
		Longitude_Buffer[long_index]= GGA_Buffer[index];
		long_index++;
	}
	
	Longitude_Buffer[long_index++] = GGA_Buffer[index++];
     5c2:	31 e0       	ldi	r19, 0x01	; 1
     5c4:	39 0f       	add	r19, r25
     5c6:	e9 2f       	mov	r30, r25
     5c8:	f0 e0       	ldi	r31, 0x00	; 0
     5ca:	8f 5f       	subi	r24, 0xFF	; 255
     5cc:	ef 59       	subi	r30, 0x9F	; 159
     5ce:	fd 4f       	sbci	r31, 0xFD	; 253
     5d0:	20 83       	st	Z, r18
	Longitude_Buffer[long_index]   = GGA_Buffer[index]; /* get direction */
     5d2:	23 2f       	mov	r18, r19
     5d4:	30 e0       	ldi	r19, 0x00	; 0
     5d6:	e8 2f       	mov	r30, r24
     5d8:	f0 e0       	ldi	r31, 0x00	; 0
     5da:	e5 55       	subi	r30, 0x55	; 85
     5dc:	fe 4f       	sbci	r31, 0xFE	; 254
     5de:	80 81       	ld	r24, Z
     5e0:	f9 01       	movw	r30, r18
     5e2:	ef 59       	subi	r30, 0x9F	; 159
     5e4:	fd 4f       	sbci	r31, 0xFD	; 253
     5e6:	80 83       	st	Z, r24
	convert_to_degrees_long(Longitude_Buffer); // convert raw longitude into degree format and pass that value as string
     5e8:	81 e6       	ldi	r24, 0x61	; 97
     5ea:	92 e0       	ldi	r25, 0x02	; 2
     5ec:	0e 94 8e 02 	call	0x51c	; 0x51c <convert_to_degrees_long>
	sei(); //It is a macro that executes an assembler instruction to enable interrupts.
     5f0:	78 94       	sei
     5f2:	08 95       	ret

000005f4 <__vector_13>:
	
	dtostrf(position, 6, 4, long_degrees_buffer); /* dtostrf is a function that convert float value into string.Here the position is a float value and it convert as a string degree buffer variable*/
}

ISR (USART_RXC_vect)
{
     5f4:	1f 92       	push	r1
     5f6:	0f 92       	push	r0
     5f8:	0f b6       	in	r0, 0x3f	; 63
     5fa:	0f 92       	push	r0
     5fc:	11 24       	eor	r1, r1
     5fe:	2f 93       	push	r18
     600:	3f 93       	push	r19
     602:	4f 93       	push	r20
     604:	5f 93       	push	r21
     606:	8f 93       	push	r24
     608:	9f 93       	push	r25
     60a:	ef 93       	push	r30
     60c:	ff 93       	push	r31
	uint8_t oldsrg = SREG;  //unsigned 8-bit integer- integer has a range of 0 to 255
     60e:	9f b7       	in	r25, 0x3f	; 63
	cli();					//Command Line Interface - CLIs accept as input commands that are entered by keyboard
     610:	f8 94       	cli
	char received_char = UDR;
     612:	8c b1       	in	r24, 0x0c	; 12
	
	if(received_char =='$'){                                                    /* check for '$' */
     614:	84 32       	cpi	r24, 0x24	; 36
     616:	59 f4       	brne	.+22     	; 0x62e <__vector_13+0x3a>
		GGA_Index = 0;
     618:	10 92 7b 02 	sts	0x027B, r1	; 0x80027b <GGA_Index+0x1>
     61c:	10 92 7a 02 	sts	0x027A, r1	; 0x80027a <GGA_Index>
		CommaCounter = 0;
     620:	10 92 79 02 	sts	0x0279, r1	; 0x800279 <CommaCounter+0x1>
     624:	10 92 78 02 	sts	0x0278, r1	; 0x800278 <CommaCounter>
		IsItGGAString = false;
     628:	10 92 a6 01 	sts	0x01A6, r1	; 0x8001a6 <__data_end>
     62c:	45 c0       	rjmp	.+138    	; 0x6b8 <__vector_13+0xc4>
	}
	else if(IsItGGAString == true){                                             /* if true save GGA info. into buffer */
     62e:	20 91 a6 01 	lds	r18, 0x01A6	; 0x8001a6 <__data_end>
     632:	22 23       	and	r18, r18
     634:	29 f1       	breq	.+74     	; 0x680 <__vector_13+0x8c>
		if(received_char == ',' ) GGA_Pointers[CommaCounter++] = GGA_Index;     /* store instances of ',' in buffer */
     636:	8c 32       	cpi	r24, 0x2C	; 44
     638:	99 f4       	brne	.+38     	; 0x660 <__vector_13+0x6c>
     63a:	20 91 78 02 	lds	r18, 0x0278	; 0x800278 <CommaCounter>
     63e:	30 91 79 02 	lds	r19, 0x0279	; 0x800279 <CommaCounter+0x1>
     642:	a9 01       	movw	r20, r18
     644:	4f 5f       	subi	r20, 0xFF	; 255
     646:	5f 4f       	sbci	r21, 0xFF	; 255
     648:	50 93 79 02 	sts	0x0279, r21	; 0x800279 <CommaCounter+0x1>
     64c:	40 93 78 02 	sts	0x0278, r20	; 0x800278 <CommaCounter>
     650:	40 91 7a 02 	lds	r20, 0x027A	; 0x80027a <GGA_Index>
     654:	50 91 7b 02 	lds	r21, 0x027B	; 0x80027b <GGA_Index+0x1>
     658:	f9 01       	movw	r30, r18
     65a:	ee 56       	subi	r30, 0x6E	; 110
     65c:	fd 4f       	sbci	r31, 0xFD	; 253
     65e:	40 83       	st	Z, r20
		GGA_Buffer[GGA_Index++] = received_char;
     660:	20 91 7a 02 	lds	r18, 0x027A	; 0x80027a <GGA_Index>
     664:	30 91 7b 02 	lds	r19, 0x027B	; 0x80027b <GGA_Index+0x1>
     668:	a9 01       	movw	r20, r18
     66a:	4f 5f       	subi	r20, 0xFF	; 255
     66c:	5f 4f       	sbci	r21, 0xFF	; 255
     66e:	50 93 7b 02 	sts	0x027B, r21	; 0x80027b <GGA_Index+0x1>
     672:	40 93 7a 02 	sts	0x027A, r20	; 0x80027a <GGA_Index>
     676:	f9 01       	movw	r30, r18
     678:	e5 55       	subi	r30, 0x55	; 85
     67a:	fe 4f       	sbci	r31, 0xFE	; 254
     67c:	80 83       	st	Z, r24
     67e:	1c c0       	rjmp	.+56     	; 0x6b8 <__vector_13+0xc4>
	}
	else if(GGA_CODE[0] == 'G' && GGA_CODE[1] == 'G' && GGA_CODE[2] == 'A'){    /* check for GGA string */
     680:	20 91 7c 02 	lds	r18, 0x027C	; 0x80027c <GGA_CODE>
     684:	27 34       	cpi	r18, 0x47	; 71
     686:	89 f4       	brne	.+34     	; 0x6aa <__vector_13+0xb6>
     688:	20 91 7d 02 	lds	r18, 0x027D	; 0x80027d <GGA_CODE+0x1>
     68c:	27 34       	cpi	r18, 0x47	; 71
     68e:	69 f4       	brne	.+26     	; 0x6aa <__vector_13+0xb6>
     690:	20 91 7e 02 	lds	r18, 0x027E	; 0x80027e <GGA_CODE+0x2>
     694:	21 34       	cpi	r18, 0x41	; 65
     696:	49 f4       	brne	.+18     	; 0x6aa <__vector_13+0xb6>
		IsItGGAString = true;
     698:	81 e0       	ldi	r24, 0x01	; 1
     69a:	80 93 a6 01 	sts	0x01A6, r24	; 0x8001a6 <__data_end>
		GGA_CODE[0] = 0; GGA_CODE[1] = 0; GGA_CODE[2] = 0;
     69e:	ec e7       	ldi	r30, 0x7C	; 124
     6a0:	f2 e0       	ldi	r31, 0x02	; 2
     6a2:	10 82       	st	Z, r1
     6a4:	11 82       	std	Z+1, r1	; 0x01
     6a6:	12 82       	std	Z+2, r1	; 0x02
     6a8:	07 c0       	rjmp	.+14     	; 0x6b8 <__vector_13+0xc4>
	}
	else{
		GGA_CODE[0] = GGA_CODE[1];  GGA_CODE[1] = GGA_CODE[2]; GGA_CODE[2] = received_char;
     6aa:	ec e7       	ldi	r30, 0x7C	; 124
     6ac:	f2 e0       	ldi	r31, 0x02	; 2
     6ae:	21 81       	ldd	r18, Z+1	; 0x01
     6b0:	20 83       	st	Z, r18
     6b2:	22 81       	ldd	r18, Z+2	; 0x02
     6b4:	21 83       	std	Z+1, r18	; 0x01
     6b6:	82 83       	std	Z+2, r24	; 0x02
	}
	SREG = oldsrg;
     6b8:	9f bf       	out	0x3f, r25	; 63
}
     6ba:	ff 91       	pop	r31
     6bc:	ef 91       	pop	r30
     6be:	9f 91       	pop	r25
     6c0:	8f 91       	pop	r24
     6c2:	5f 91       	pop	r21
     6c4:	4f 91       	pop	r20
     6c6:	3f 91       	pop	r19
     6c8:	2f 91       	pop	r18
     6ca:	0f 90       	pop	r0
     6cc:	0f be       	out	0x3f, r0	; 63
     6ce:	0f 90       	pop	r0
     6d0:	1f 90       	pop	r1
     6d2:	18 95       	reti

000006d4 <sendMessage>:

void sendMessage(char* msg,char* lat,char* lngtd,char* altitude){
     6d4:	cf 92       	push	r12
     6d6:	df 92       	push	r13
     6d8:	ef 92       	push	r14
     6da:	ff 92       	push	r15
     6dc:	0f 93       	push	r16
     6de:	1f 93       	push	r17
     6e0:	cf 93       	push	r28
     6e2:	df 93       	push	r29
     6e4:	cd b7       	in	r28, 0x3d	; 61
     6e6:	de b7       	in	r29, 0x3e	; 62
     6e8:	a3 97       	sbiw	r28, 0x23	; 35
     6ea:	0f b6       	in	r0, 0x3f	; 63
     6ec:	f8 94       	cli
     6ee:	de bf       	out	0x3e, r29	; 62
     6f0:	0f be       	out	0x3f, r0	; 63
     6f2:	cd bf       	out	0x3d, r28	; 61
     6f4:	7c 01       	movw	r14, r24
     6f6:	6a 01       	movw	r12, r20
     6f8:	89 01       	movw	r16, r18
	unsigned char cmd_1[4]="AT";
     6fa:	81 e4       	ldi	r24, 0x41	; 65
     6fc:	94 e5       	ldi	r25, 0x54	; 84
     6fe:	9a 83       	std	Y+2, r25	; 0x02
     700:	89 83       	std	Y+1, r24	; 0x01
     702:	1c 82       	std	Y+4, r1	; 0x04
     704:	1b 82       	std	Y+3, r1	; 0x03
	unsigned char cmd_2[10]="AT+CMGF=1";
     706:	8a e0       	ldi	r24, 0x0A	; 10
     708:	e7 ec       	ldi	r30, 0xC7	; 199
     70a:	f0 e0       	ldi	r31, 0x00	; 0
     70c:	de 01       	movw	r26, r28
     70e:	15 96       	adiw	r26, 0x05	; 5
     710:	01 90       	ld	r0, Z+
     712:	0d 92       	st	X+, r0
     714:	8a 95       	dec	r24
     716:	e1 f7       	brne	.-8      	; 0x710 <sendMessage+0x3c>
	unsigned char cmd_3[10]="AT+CMGS=";
     718:	89 e0       	ldi	r24, 0x09	; 9
     71a:	e0 e6       	ldi	r30, 0x60	; 96
     71c:	f0 e0       	ldi	r31, 0x00	; 0
     71e:	de 01       	movw	r26, r28
     720:	1f 96       	adiw	r26, 0x0f	; 15
     722:	01 90       	ld	r0, Z+
     724:	0d 92       	st	X+, r0
     726:	8a 95       	dec	r24
     728:	e1 f7       	brne	.-8      	; 0x722 <sendMessage+0x4e>
     72a:	18 8e       	std	Y+24, r1	; 0x18
	char* cmd_4 = msg;
	strcat(cmd_4,"\r   Location\r   Latitude : ");
     72c:	d7 01       	movw	r26, r14
     72e:	0d 90       	ld	r0, X+
     730:	00 20       	and	r0, r0
     732:	e9 f7       	brne	.-6      	; 0x72e <sendMessage+0x5a>
     734:	11 97       	sbiw	r26, 0x01	; 1
     736:	8c e1       	ldi	r24, 0x1C	; 28
     738:	ea e6       	ldi	r30, 0x6A	; 106
     73a:	f0 e0       	ldi	r31, 0x00	; 0
     73c:	01 90       	ld	r0, Z+
     73e:	0d 92       	st	X+, r0
     740:	8a 95       	dec	r24
     742:	e1 f7       	brne	.-8      	; 0x73c <sendMessage+0x68>
	strcat(cmd_4,lat);
     744:	c7 01       	movw	r24, r14
     746:	0e 94 92 08 	call	0x1124	; 0x1124 <strcat>
	strcat(cmd_4,"\r   Longitude : ");
     74a:	d7 01       	movw	r26, r14
     74c:	0d 90       	ld	r0, X+
     74e:	00 20       	and	r0, r0
     750:	e9 f7       	brne	.-6      	; 0x74c <sendMessage+0x78>
     752:	11 97       	sbiw	r26, 0x01	; 1
     754:	81 e1       	ldi	r24, 0x11	; 17
     756:	e6 e8       	ldi	r30, 0x86	; 134
     758:	f0 e0       	ldi	r31, 0x00	; 0
     75a:	01 90       	ld	r0, Z+
     75c:	0d 92       	st	X+, r0
     75e:	8a 95       	dec	r24
     760:	e1 f7       	brne	.-8      	; 0x75a <sendMessage+0x86>
	strcat(cmd_4,lngtd);
     762:	b6 01       	movw	r22, r12
     764:	c7 01       	movw	r24, r14
     766:	0e 94 92 08 	call	0x1124	; 0x1124 <strcat>
	strcat(cmd_4,"\r   Altitude : ");
     76a:	d7 01       	movw	r26, r14
     76c:	0d 90       	ld	r0, X+
     76e:	00 20       	and	r0, r0
     770:	e9 f7       	brne	.-6      	; 0x76c <sendMessage+0x98>
     772:	11 97       	sbiw	r26, 0x01	; 1
     774:	80 e1       	ldi	r24, 0x10	; 16
     776:	e7 e9       	ldi	r30, 0x97	; 151
     778:	f0 e0       	ldi	r31, 0x00	; 0
     77a:	01 90       	ld	r0, Z+
     77c:	0d 92       	st	X+, r0
     77e:	8a 95       	dec	r24
     780:	e1 f7       	brne	.-8      	; 0x77a <sendMessage+0xa6>
	strcat(cmd_4,altitude);
     782:	b8 01       	movw	r22, r16
     784:	c7 01       	movw	r24, r14
     786:	0e 94 92 08 	call	0x1124	; 0x1124 <strcat>
	unsigned char num[11] = "0771234567";
     78a:	8b e0       	ldi	r24, 0x0B	; 11
     78c:	e1 ed       	ldi	r30, 0xD1	; 209
     78e:	f0 e0       	ldi	r31, 0x00	; 0
     790:	de 01       	movw	r26, r28
     792:	59 96       	adiw	r26, 0x19	; 25
     794:	01 90       	ld	r0, Z+
     796:	0d 92       	st	X+, r0
     798:	8a 95       	dec	r24
     79a:	e1 f7       	brne	.-8      	; 0x794 <sendMessage+0xc0>
	LCD_Clear();
     79c:	0e 94 a4 01 	call	0x348	; 0x348 <LCD_Clear>
	LCD_String_xy(1,0,"Message");
     7a0:	47 ea       	ldi	r20, 0xA7	; 167
     7a2:	50 e0       	ldi	r21, 0x00	; 0
     7a4:	60 e0       	ldi	r22, 0x00	; 0
     7a6:	81 e0       	ldi	r24, 0x01	; 1
     7a8:	0e 94 88 01 	call	0x310	; 0x310 <LCD_String_xy>
	LCD_Command(0xc0);
     7ac:	80 ec       	ldi	r24, 0xC0	; 192
     7ae:	0e 94 e8 00 	call	0x1d0	; 0x1d0 <LCD_Command>
	LCD_String_xy(2,3,"Forwarding");
     7b2:	4f ea       	ldi	r20, 0xAF	; 175
     7b4:	50 e0       	ldi	r21, 0x00	; 0
     7b6:	63 e0       	ldi	r22, 0x03	; 3
     7b8:	82 e0       	ldi	r24, 0x02	; 2
     7ba:	0e 94 88 01 	call	0x310	; 0x310 <LCD_String_xy>
	#else
		//round up by default
		__ticks_dc = (uint32_t)(ceil(fabs(__tmp)));
	#endif

	__builtin_avr_delay_cycles(__ticks_dc);
     7be:	2f ef       	ldi	r18, 0xFF	; 255
     7c0:	84 e3       	ldi	r24, 0x34	; 52
     7c2:	9c e0       	ldi	r25, 0x0C	; 12
     7c4:	21 50       	subi	r18, 0x01	; 1
     7c6:	80 40       	sbci	r24, 0x00	; 0
     7c8:	90 40       	sbci	r25, 0x00	; 0
     7ca:	e1 f7       	brne	.-8      	; 0x7c4 <sendMessage+0xf0>
     7cc:	00 c0       	rjmp	.+0      	; 0x7ce <sendMessage+0xfa>
     7ce:	00 00       	nop
	_delay_ms(500);
	for (int i=0;cmd_1[i]!='\0';i++) /*checking communication*/
     7d0:	00 e0       	ldi	r16, 0x00	; 0
     7d2:	10 e0       	ldi	r17, 0x00	; 0
     7d4:	0a c0       	rjmp	.+20     	; 0x7ea <sendMessage+0x116>
	{
		USART_TxChar(cmd_1[i]);
     7d6:	0e 94 00 02 	call	0x400	; 0x400 <USART_TxChar>
     7da:	8f e0       	ldi	r24, 0x0F	; 15
     7dc:	97 e2       	ldi	r25, 0x27	; 39
     7de:	01 97       	sbiw	r24, 0x01	; 1
     7e0:	f1 f7       	brne	.-4      	; 0x7de <sendMessage+0x10a>
     7e2:	00 c0       	rjmp	.+0      	; 0x7e4 <sendMessage+0x110>
     7e4:	00 00       	nop
	LCD_Clear();
	LCD_String_xy(1,0,"Message");
	LCD_Command(0xc0);
	LCD_String_xy(2,3,"Forwarding");
	_delay_ms(500);
	for (int i=0;cmd_1[i]!='\0';i++) /*checking communication*/
     7e6:	0f 5f       	subi	r16, 0xFF	; 255
     7e8:	1f 4f       	sbci	r17, 0xFF	; 255
     7ea:	e1 e0       	ldi	r30, 0x01	; 1
     7ec:	f0 e0       	ldi	r31, 0x00	; 0
     7ee:	ec 0f       	add	r30, r28
     7f0:	fd 1f       	adc	r31, r29
     7f2:	e0 0f       	add	r30, r16
     7f4:	f1 1f       	adc	r31, r17
     7f6:	80 81       	ld	r24, Z
     7f8:	81 11       	cpse	r24, r1
     7fa:	ed cf       	rjmp	.-38     	; 0x7d6 <sendMessage+0x102>
	{
		USART_TxChar(cmd_1[i]);
		_delay_ms(5);
	}
	USART_TxChar('\r'); /*carriage return ---> begining from the first line without going to next line*/
     7fc:	8d e0       	ldi	r24, 0x0D	; 13
     7fe:	0e 94 00 02 	call	0x400	; 0x400 <USART_TxChar>
     802:	8f e0       	ldi	r24, 0x0F	; 15
     804:	97 e2       	ldi	r25, 0x27	; 39
     806:	01 97       	sbiw	r24, 0x01	; 1
     808:	f1 f7       	brne	.-4      	; 0x806 <__DATA_REGION_LENGTH__+0x6>
     80a:	00 c0       	rjmp	.+0      	; 0x80c <__DATA_REGION_LENGTH__+0xc>
     80c:	00 00       	nop
	_delay_ms(5);
	
	for (int i=0;cmd_2[i]!='\0';i++) /* set the operating mode to SMS text mode*/
     80e:	00 e0       	ldi	r16, 0x00	; 0
     810:	10 e0       	ldi	r17, 0x00	; 0
     812:	0a c0       	rjmp	.+20     	; 0x828 <__DATA_REGION_LENGTH__+0x28>
	{
		USART_TxChar(cmd_2[i]);
     814:	0e 94 00 02 	call	0x400	; 0x400 <USART_TxChar>
     818:	8f e0       	ldi	r24, 0x0F	; 15
     81a:	97 e2       	ldi	r25, 0x27	; 39
     81c:	01 97       	sbiw	r24, 0x01	; 1
     81e:	f1 f7       	brne	.-4      	; 0x81c <__DATA_REGION_LENGTH__+0x1c>
     820:	00 c0       	rjmp	.+0      	; 0x822 <__DATA_REGION_LENGTH__+0x22>
     822:	00 00       	nop
		_delay_ms(5);
	}
	USART_TxChar('\r'); /*carriage return ---> begining from the first line without going to next line*/
	_delay_ms(5);
	
	for (int i=0;cmd_2[i]!='\0';i++) /* set the operating mode to SMS text mode*/
     824:	0f 5f       	subi	r16, 0xFF	; 255
     826:	1f 4f       	sbci	r17, 0xFF	; 255
     828:	e5 e0       	ldi	r30, 0x05	; 5
     82a:	f0 e0       	ldi	r31, 0x00	; 0
     82c:	ec 0f       	add	r30, r28
     82e:	fd 1f       	adc	r31, r29
     830:	e0 0f       	add	r30, r16
     832:	f1 1f       	adc	r31, r17
     834:	80 81       	ld	r24, Z
     836:	81 11       	cpse	r24, r1
     838:	ed cf       	rjmp	.-38     	; 0x814 <__DATA_REGION_LENGTH__+0x14>
	{
		USART_TxChar(cmd_2[i]);
		_delay_ms(5);
	}
	USART_TxChar('\r');
     83a:	8d e0       	ldi	r24, 0x0D	; 13
     83c:	0e 94 00 02 	call	0x400	; 0x400 <USART_TxChar>
     840:	8f e0       	ldi	r24, 0x0F	; 15
     842:	97 e2       	ldi	r25, 0x27	; 39
     844:	01 97       	sbiw	r24, 0x01	; 1
     846:	f1 f7       	brne	.-4      	; 0x844 <__DATA_REGION_LENGTH__+0x44>
     848:	00 c0       	rjmp	.+0      	; 0x84a <__DATA_REGION_LENGTH__+0x4a>
     84a:	00 00       	nop
	_delay_ms(5);
	
	for (int i=0;cmd_3[i]!='\0';i++) /* send SMS in text mode*/
     84c:	00 e0       	ldi	r16, 0x00	; 0
     84e:	10 e0       	ldi	r17, 0x00	; 0
     850:	0a c0       	rjmp	.+20     	; 0x866 <__stack+0x7>
	{
		USART_TxChar(cmd_3[i]);
     852:	0e 94 00 02 	call	0x400	; 0x400 <USART_TxChar>
     856:	8f e0       	ldi	r24, 0x0F	; 15
     858:	97 e2       	ldi	r25, 0x27	; 39
     85a:	01 97       	sbiw	r24, 0x01	; 1
     85c:	f1 f7       	brne	.-4      	; 0x85a <__DATA_REGION_LENGTH__+0x5a>
     85e:	00 c0       	rjmp	.+0      	; 0x860 <__stack+0x1>
     860:	00 00       	nop
		_delay_ms(5);
	}
	USART_TxChar('\r');
	_delay_ms(5);
	
	for (int i=0;cmd_3[i]!='\0';i++) /* send SMS in text mode*/
     862:	0f 5f       	subi	r16, 0xFF	; 255
     864:	1f 4f       	sbci	r17, 0xFF	; 255
     866:	ef e0       	ldi	r30, 0x0F	; 15
     868:	f0 e0       	ldi	r31, 0x00	; 0
     86a:	ec 0f       	add	r30, r28
     86c:	fd 1f       	adc	r31, r29
     86e:	e0 0f       	add	r30, r16
     870:	f1 1f       	adc	r31, r17
     872:	80 81       	ld	r24, Z
     874:	81 11       	cpse	r24, r1
     876:	ed cf       	rjmp	.-38     	; 0x852 <__DATA_REGION_LENGTH__+0x52>
	{
		USART_TxChar(cmd_3[i]);
		_delay_ms(5);
	}
	UDR='"';
     878:	82 e2       	ldi	r24, 0x22	; 34
     87a:	8c b9       	out	0x0c, r24	; 12
     87c:	9f ef       	ldi	r25, 0xFF	; 255
     87e:	20 e7       	ldi	r18, 0x70	; 112
     880:	82 e0       	ldi	r24, 0x02	; 2
     882:	91 50       	subi	r25, 0x01	; 1
     884:	20 40       	sbci	r18, 0x00	; 0
     886:	80 40       	sbci	r24, 0x00	; 0
     888:	e1 f7       	brne	.-8      	; 0x882 <__stack+0x23>
     88a:	00 c0       	rjmp	.+0      	; 0x88c <__stack+0x2d>
     88c:	00 00       	nop
	_delay_ms(100);
	for (int i=0;num[i]!='\0';i++) /* SMS to be sent */
     88e:	00 e0       	ldi	r16, 0x00	; 0
     890:	10 e0       	ldi	r17, 0x00	; 0
     892:	0a c0       	rjmp	.+20     	; 0x8a8 <__stack+0x49>
	{
		USART_TxChar(num[i]);
     894:	0e 94 00 02 	call	0x400	; 0x400 <USART_TxChar>
     898:	8f e0       	ldi	r24, 0x0F	; 15
     89a:	97 e2       	ldi	r25, 0x27	; 39
     89c:	01 97       	sbiw	r24, 0x01	; 1
     89e:	f1 f7       	brne	.-4      	; 0x89c <__stack+0x3d>
     8a0:	00 c0       	rjmp	.+0      	; 0x8a2 <__stack+0x43>
     8a2:	00 00       	nop
		USART_TxChar(cmd_3[i]);
		_delay_ms(5);
	}
	UDR='"';
	_delay_ms(100);
	for (int i=0;num[i]!='\0';i++) /* SMS to be sent */
     8a4:	0f 5f       	subi	r16, 0xFF	; 255
     8a6:	1f 4f       	sbci	r17, 0xFF	; 255
     8a8:	e9 e1       	ldi	r30, 0x19	; 25
     8aa:	f0 e0       	ldi	r31, 0x00	; 0
     8ac:	ec 0f       	add	r30, r28
     8ae:	fd 1f       	adc	r31, r29
     8b0:	e0 0f       	add	r30, r16
     8b2:	f1 1f       	adc	r31, r17
     8b4:	80 81       	ld	r24, Z
     8b6:	81 11       	cpse	r24, r1
     8b8:	ed cf       	rjmp	.-38     	; 0x894 <__stack+0x35>
	{
		USART_TxChar(num[i]);
		_delay_ms(5);
	}
	UDR='"';
     8ba:	82 e2       	ldi	r24, 0x22	; 34
     8bc:	8c b9       	out	0x0c, r24	; 12
     8be:	8f e0       	ldi	r24, 0x0F	; 15
     8c0:	97 e2       	ldi	r25, 0x27	; 39
     8c2:	01 97       	sbiw	r24, 0x01	; 1
     8c4:	f1 f7       	brne	.-4      	; 0x8c2 <__stack+0x63>
     8c6:	00 c0       	rjmp	.+0      	; 0x8c8 <__stack+0x69>
     8c8:	00 00       	nop
	_delay_ms(5);
	UDR='\r';
     8ca:	8d e0       	ldi	r24, 0x0D	; 13
     8cc:	8c b9       	out	0x0c, r24	; 12
     8ce:	8f e0       	ldi	r24, 0x0F	; 15
     8d0:	97 e2       	ldi	r25, 0x27	; 39
     8d2:	01 97       	sbiw	r24, 0x01	; 1
     8d4:	f1 f7       	brne	.-4      	; 0x8d2 <__stack+0x73>
     8d6:	00 c0       	rjmp	.+0      	; 0x8d8 <__stack+0x79>
     8d8:	00 00       	nop
	_delay_ms(5);

	for (int i=0;cmd_4[i]!='\0';i++) /* message */
     8da:	00 e0       	ldi	r16, 0x00	; 0
     8dc:	10 e0       	ldi	r17, 0x00	; 0
     8de:	0a c0       	rjmp	.+20     	; 0x8f4 <__stack+0x95>
	{
		USART_TxChar(cmd_4[i]);
     8e0:	0e 94 00 02 	call	0x400	; 0x400 <USART_TxChar>
     8e4:	8f e0       	ldi	r24, 0x0F	; 15
     8e6:	97 e2       	ldi	r25, 0x27	; 39
     8e8:	01 97       	sbiw	r24, 0x01	; 1
     8ea:	f1 f7       	brne	.-4      	; 0x8e8 <__stack+0x89>
     8ec:	00 c0       	rjmp	.+0      	; 0x8ee <__stack+0x8f>
     8ee:	00 00       	nop
	UDR='"';
	_delay_ms(5);
	UDR='\r';
	_delay_ms(5);

	for (int i=0;cmd_4[i]!='\0';i++) /* message */
     8f0:	0f 5f       	subi	r16, 0xFF	; 255
     8f2:	1f 4f       	sbci	r17, 0xFF	; 255
     8f4:	f7 01       	movw	r30, r14
     8f6:	e0 0f       	add	r30, r16
     8f8:	f1 1f       	adc	r31, r17
     8fa:	80 81       	ld	r24, Z
     8fc:	81 11       	cpse	r24, r1
     8fe:	f0 cf       	rjmp	.-32     	; 0x8e0 <__stack+0x81>
     900:	9f ef       	ldi	r25, 0xFF	; 255
     902:	21 ee       	ldi	r18, 0xE1	; 225
     904:	84 e0       	ldi	r24, 0x04	; 4
     906:	91 50       	subi	r25, 0x01	; 1
     908:	20 40       	sbci	r18, 0x00	; 0
     90a:	80 40       	sbci	r24, 0x00	; 0
     90c:	e1 f7       	brne	.-8      	; 0x906 <__stack+0xa7>
     90e:	00 c0       	rjmp	.+0      	; 0x910 <__stack+0xb1>
     910:	00 00       	nop
	{
		USART_TxChar(cmd_4[i]);
		_delay_ms(5);
	}
	_delay_ms(200);
	LCD_Clear();
     912:	0e 94 a4 01 	call	0x348	; 0x348 <LCD_Clear>
	LCD_String_xy(1,0,"Message sent");
     916:	4a eb       	ldi	r20, 0xBA	; 186
     918:	50 e0       	ldi	r21, 0x00	; 0
     91a:	60 e0       	ldi	r22, 0x00	; 0
     91c:	81 e0       	ldi	r24, 0x01	; 1
     91e:	0e 94 88 01 	call	0x310	; 0x310 <LCD_String_xy>
     922:	9f ef       	ldi	r25, 0xFF	; 255
     924:	22 e5       	ldi	r18, 0x52	; 82
     926:	87 e0       	ldi	r24, 0x07	; 7
     928:	91 50       	subi	r25, 0x01	; 1
     92a:	20 40       	sbci	r18, 0x00	; 0
     92c:	80 40       	sbci	r24, 0x00	; 0
     92e:	e1 f7       	brne	.-8      	; 0x928 <__stack+0xc9>
     930:	00 c0       	rjmp	.+0      	; 0x932 <__stack+0xd3>
     932:	00 00       	nop
	_delay_ms(300);
	LCD_Clear();
     934:	0e 94 a4 01 	call	0x348	; 0x348 <LCD_Clear>
     938:	a3 96       	adiw	r28, 0x23	; 35
     93a:	0f b6       	in	r0, 0x3f	; 63
     93c:	f8 94       	cli
     93e:	de bf       	out	0x3e, r29	; 62
     940:	0f be       	out	0x3f, r0	; 63
     942:	cd bf       	out	0x3d, r28	; 61
     944:	df 91       	pop	r29
     946:	cf 91       	pop	r28
     948:	1f 91       	pop	r17
     94a:	0f 91       	pop	r16
     94c:	ff 90       	pop	r15
     94e:	ef 90       	pop	r14
     950:	df 90       	pop	r13
     952:	cf 90       	pop	r12
     954:	08 95       	ret

00000956 <ringAlarm>:
	}//while end
}//main end


void ringAlarm(){
	portHigh(PORTD,buzzer);//buzzer
     956:	82 b3       	in	r24, 0x12	; 18
     958:	80 68       	ori	r24, 0x80	; 128
     95a:	82 bb       	out	0x12, r24	; 18
     95c:	08 95       	ret

0000095e <stopAlarm>:
}
void stopAlarm(){
	portLow(PORTD,buzzer);
     95e:	82 b3       	in	r24, 0x12	; 18
     960:	8f 77       	andi	r24, 0x7F	; 127
     962:	82 bb       	out	0x12, r24	; 18
     964:	08 95       	ret

00000966 <onHazardLight>:
}
void onHazardLight(){
	portHigh(PORTD,led);
     966:	82 b3       	in	r24, 0x12	; 18
     968:	80 64       	ori	r24, 0x40	; 64
     96a:	82 bb       	out	0x12, r24	; 18
     96c:	08 95       	ret

0000096e <offHazardLight>:
}
void offHazardLight(){
	portLow(PORTD,led);
     96e:	82 b3       	in	r24, 0x12	; 18
     970:	8f 7b       	andi	r24, 0xBF	; 191
     972:	82 bb       	out	0x12, r24	; 18
     974:	08 95       	ret

00000976 <playRadio>:
}
void playRadio(){
	portHigh(PORTD,musicSystem);
     976:	82 b3       	in	r24, 0x12	; 18
     978:	80 62       	ori	r24, 0x20	; 32
     97a:	82 bb       	out	0x12, r24	; 18
     97c:	08 95       	ret

0000097e <isDriverSleepingIR>:
}
int isDriverSleepingIR(){
     97e:	cf 93       	push	r28
     980:	df 93       	push	r29
	LCD_Clear();
     982:	0e 94 a4 01 	call	0x348	; 0x348 <LCD_Clear>
	LCD_String("Checking Eyes");
     986:	8c ed       	ldi	r24, 0xDC	; 220
     988:	90 e0       	ldi	r25, 0x00	; 0
     98a:	0e 94 72 01 	call	0x2e4	; 0x2e4 <LCD_String>
	//int timeInterval=40; real value due to error
	int timeInterval=5;
	int flag=0;
	for(int i=1;i<=timeInterval;i++){
     98e:	81 e0       	ldi	r24, 0x01	; 1
     990:	90 e0       	ldi	r25, 0x00	; 0
int isDriverSleepingIR(){
	LCD_Clear();
	LCD_String("Checking Eyes");
	//int timeInterval=40; real value due to error
	int timeInterval=5;
	int flag=0;
     992:	c0 e0       	ldi	r28, 0x00	; 0
     994:	d0 e0       	ldi	r29, 0x00	; 0
	for(int i=1;i<=timeInterval;i++){
     996:	0f c0       	rjmp	.+30     	; 0x9b6 <isDriverSleepingIR+0x38>
		if(pinRead(PINC,irsensor)==0x40){
     998:	9e 9b       	sbis	0x13, 6	; 19
     99a:	02 c0       	rjmp	.+4      	; 0x9a0 <isDriverSleepingIR+0x22>
			flag++;
     99c:	21 96       	adiw	r28, 0x01	; 1
     99e:	01 c0       	rjmp	.+2      	; 0x9a2 <isDriverSleepingIR+0x24>
			}else{
			flag--;
     9a0:	21 97       	sbiw	r28, 0x01	; 1
     9a2:	2f e7       	ldi	r18, 0x7F	; 127
     9a4:	38 e3       	ldi	r19, 0x38	; 56
     9a6:	41 e0       	ldi	r20, 0x01	; 1
     9a8:	21 50       	subi	r18, 0x01	; 1
     9aa:	30 40       	sbci	r19, 0x00	; 0
     9ac:	40 40       	sbci	r20, 0x00	; 0
     9ae:	e1 f7       	brne	.-8      	; 0x9a8 <isDriverSleepingIR+0x2a>
     9b0:	00 c0       	rjmp	.+0      	; 0x9b2 <isDriverSleepingIR+0x34>
     9b2:	00 00       	nop
	LCD_Clear();
	LCD_String("Checking Eyes");
	//int timeInterval=40; real value due to error
	int timeInterval=5;
	int flag=0;
	for(int i=1;i<=timeInterval;i++){
     9b4:	01 96       	adiw	r24, 0x01	; 1
     9b6:	86 30       	cpi	r24, 0x06	; 6
     9b8:	91 05       	cpc	r25, r1
     9ba:	74 f3       	brlt	.-36     	; 0x998 <isDriverSleepingIR+0x1a>
			}else{
			flag--;
		}
		_delay_ms(50);
	}
	LCD_Command(0xc0);
     9bc:	80 ec       	ldi	r24, 0xC0	; 192
     9be:	0e 94 e8 00 	call	0x1d0	; 0x1d0 <LCD_Command>
	LCD_String("  -Finished");
     9c2:	8a ee       	ldi	r24, 0xEA	; 234
     9c4:	90 e0       	ldi	r25, 0x00	; 0
     9c6:	0e 94 72 01 	call	0x2e4	; 0x2e4 <LCD_String>
	if(flag==timeInterval){
     9ca:	25 97       	sbiw	r28, 0x05	; 5
     9cc:	19 f4       	brne	.+6      	; 0x9d4 <isDriverSleepingIR+0x56>
		return 1;
     9ce:	81 e0       	ldi	r24, 0x01	; 1
     9d0:	90 e0       	ldi	r25, 0x00	; 0
     9d2:	02 c0       	rjmp	.+4      	; 0x9d8 <isDriverSleepingIR+0x5a>
	}else{
		return 0;
     9d4:	80 e0       	ldi	r24, 0x00	; 0
     9d6:	90 e0       	ldi	r25, 0x00	; 0
	}
	
}
     9d8:	df 91       	pop	r29
     9da:	cf 91       	pop	r28
     9dc:	08 95       	ret

000009de <sendLocation>:

void sendLocation(char* message){
     9de:	0f 93       	push	r16
     9e0:	1f 93       	push	r17
     9e2:	cf 93       	push	r28
     9e4:	df 93       	push	r29
     9e6:	8c 01       	movw	r16, r24
	get_latitude(GGA_Pointers[0]);char* lat=lat_degrees_buffer;
     9e8:	c2 e9       	ldi	r28, 0x92	; 146
     9ea:	d2 e0       	ldi	r29, 0x02	; 2
     9ec:	88 81       	ld	r24, Y
     9ee:	90 e0       	ldi	r25, 0x00	; 0
     9f0:	0e 94 63 02 	call	0x4c6	; 0x4c6 <get_latitude>
	get_longitude(GGA_Pointers[2]);char* lngtd=long_degrees_buffer;
     9f4:	8a 81       	ldd	r24, Y+2	; 0x02
     9f6:	90 e0       	ldi	r25, 0x00	; 0
     9f8:	0e 94 cf 02 	call	0x59e	; 0x59e <get_longitude>
	get_altitude(GGA_Pointers[7]);char* altitude=Altitude_Buffer;
     9fc:	8f 81       	ldd	r24, Y+7	; 0x07
     9fe:	90 e0       	ldi	r25, 0x00	; 0
     a00:	0e 94 04 02 	call	0x408	; 0x408 <get_altitude>
	PORTD=0x04;// change signal using mux
     a04:	84 e0       	ldi	r24, 0x04	; 4
     a06:	82 bb       	out	0x12, r24	; 18
	sendMessage(message,lat,lngtd,altitude);
     a08:	2a eb       	ldi	r18, 0xBA	; 186
     a0a:	32 e0       	ldi	r19, 0x02	; 2
     a0c:	4d e4       	ldi	r20, 0x4D	; 77
     a0e:	52 e0       	ldi	r21, 0x02	; 2
     a10:	66 ea       	ldi	r22, 0xA6	; 166
     a12:	72 e0       	ldi	r23, 0x02	; 2
     a14:	c8 01       	movw	r24, r16
     a16:	0e 94 6a 03 	call	0x6d4	; 0x6d4 <sendMessage>
	PORTD=0x00;// turn back to normal
     a1a:	12 ba       	out	0x12, r1	; 18
     a1c:	df 91       	pop	r29
     a1e:	cf 91       	pop	r28
     a20:	1f 91       	pop	r17
     a22:	0f 91       	pop	r16
     a24:	08 95       	ret

00000a26 <main>:
#define F_CPU 8000000UL
#define SREG   _SFR_IO8(0x3f)
#include "headerfiles.h"
int main(void){
	DDRD=0xE4;
     a26:	84 ee       	ldi	r24, 0xE4	; 228
     a28:	81 bb       	out	0x11, r24	; 17
	LCD_Init();LCD_String("Initializing..");_delay_ms(50);LCD_Clear();
     a2a:	0e 94 4e 01 	call	0x29c	; 0x29c <LCD_Init>
     a2e:	86 ef       	ldi	r24, 0xF6	; 246
     a30:	90 e0       	ldi	r25, 0x00	; 0
     a32:	0e 94 72 01 	call	0x2e4	; 0x2e4 <LCD_String>
     a36:	2f e7       	ldi	r18, 0x7F	; 127
     a38:	38 e3       	ldi	r19, 0x38	; 56
     a3a:	41 e0       	ldi	r20, 0x01	; 1
     a3c:	21 50       	subi	r18, 0x01	; 1
     a3e:	30 40       	sbci	r19, 0x00	; 0
     a40:	40 40       	sbci	r20, 0x00	; 0
     a42:	e1 f7       	brne	.-8      	; 0xa3c <main+0x16>
     a44:	00 c0       	rjmp	.+0      	; 0xa46 <main+0x20>
     a46:	00 00       	nop
     a48:	0e 94 a4 01 	call	0x348	; 0x348 <LCD_Clear>
	I2C_Init();
     a4c:	0e 94 e4 00 	call	0x1c8	; 0x1c8 <I2C_Init>
	PWM_init();
     a50:	0e 94 cc 01 	call	0x398	; 0x398 <PWM_init>
	GGA_Index=0;
     a54:	10 92 7b 02 	sts	0x027B, r1	; 0x80027b <GGA_Index+0x1>
     a58:	10 92 7a 02 	sts	0x027A, r1	; 0x80027a <GGA_Index>
	USART_Init(9600);
     a5c:	60 e8       	ldi	r22, 0x80	; 128
     a5e:	75 e2       	ldi	r23, 0x25	; 37
     a60:	80 e0       	ldi	r24, 0x00	; 0
     a62:	90 e0       	ldi	r25, 0x00	; 0
     a64:	0e 94 d2 01 	call	0x3a4	; 0x3a4 <USART_Init>
	sei();
     a68:	78 94       	sei
	start:
	LCD_String("Welcome");_delay_ms(50);LCD_Clear();
     a6a:	85 e0       	ldi	r24, 0x05	; 5
     a6c:	91 e0       	ldi	r25, 0x01	; 1
     a6e:	0e 94 72 01 	call	0x2e4	; 0x2e4 <LCD_String>
     a72:	8f e7       	ldi	r24, 0x7F	; 127
     a74:	98 e3       	ldi	r25, 0x38	; 56
     a76:	21 e0       	ldi	r18, 0x01	; 1
     a78:	81 50       	subi	r24, 0x01	; 1
     a7a:	90 40       	sbci	r25, 0x00	; 0
     a7c:	20 40       	sbci	r18, 0x00	; 0
     a7e:	e1 f7       	brne	.-8      	; 0xa78 <main+0x52>
     a80:	00 c0       	rjmp	.+0      	; 0xa82 <main+0x5c>
     a82:	00 00       	nop
     a84:	0e 94 a4 01 	call	0x348	; 0x348 <LCD_Clear>
	while (1){
		
		//flame detection
		if(pinRead(PINC,flame)==0x10){
     a88:	9c 9b       	sbis	0x13, 4	; 19
     a8a:	1e c0       	rjmp	.+60     	; 0xac8 <main+0xa2>
			LCD_Clear();
     a8c:	0e 94 a4 01 	call	0x348	; 0x348 <LCD_Clear>
			LCD_String("Flame Detected !");
     a90:	8d e0       	ldi	r24, 0x0D	; 13
     a92:	91 e0       	ldi	r25, 0x01	; 1
     a94:	0e 94 72 01 	call	0x2e4	; 0x2e4 <LCD_String>
			ringAlarm();
     a98:	0e 94 ab 04 	call	0x956	; 0x956 <ringAlarm>
			onHazardLight();
     a9c:	0e 94 b3 04 	call	0x966	; 0x966 <onHazardLight>
     aa0:	3f ef       	ldi	r19, 0xFF	; 255
     aa2:	44 e3       	ldi	r20, 0x34	; 52
     aa4:	8c e0       	ldi	r24, 0x0C	; 12
     aa6:	31 50       	subi	r19, 0x01	; 1
     aa8:	40 40       	sbci	r20, 0x00	; 0
     aaa:	80 40       	sbci	r24, 0x00	; 0
     aac:	e1 f7       	brne	.-8      	; 0xaa6 <main+0x80>
     aae:	00 c0       	rjmp	.+0      	; 0xab0 <main+0x8a>
     ab0:	00 00       	nop
			_delay_ms(500);
			stopAlarm();
     ab2:	0e 94 af 04 	call	0x95e	; 0x95e <stopAlarm>
			offHazardLight();
     ab6:	0e 94 b7 04 	call	0x96e	; 0x96e <offHazardLight>
			LCD_Clear();
     aba:	0e 94 a4 01 	call	0x348	; 0x348 <LCD_Clear>
			sendLocation("Flame is Detected");
     abe:	8e e1       	ldi	r24, 0x1E	; 30
     ac0:	91 e0       	ldi	r25, 0x01	; 1
     ac2:	0e 94 ef 04 	call	0x9de	; 0x9de <sendLocation>
     ac6:	e0 cf       	rjmp	.-64     	; 0xa88 <main+0x62>
		}
		//else 1 start
		else{
			//set wheel speed vehicle
			ADC_Init();
     ac8:	0e 94 b1 01 	call	0x362	; 0x362 <ADC_Init>
			int val=ADC_Read(0);float speed=(val/1024.0)*255.0;OCR0=(int)speed;
     acc:	80 e0       	ldi	r24, 0x00	; 0
     ace:	0e 94 b7 01 	call	0x36e	; 0x36e <ADC_Read>
     ad2:	bc 01       	movw	r22, r24
     ad4:	99 0f       	add	r25, r25
     ad6:	88 0b       	sbc	r24, r24
     ad8:	99 0b       	sbc	r25, r25
     ada:	0e 94 2f 07 	call	0xe5e	; 0xe5e <__floatsisf>
     ade:	20 e0       	ldi	r18, 0x00	; 0
     ae0:	30 e0       	ldi	r19, 0x00	; 0
     ae2:	40 e8       	ldi	r20, 0x80	; 128
     ae4:	5a e3       	ldi	r21, 0x3A	; 58
     ae6:	0e 94 df 07 	call	0xfbe	; 0xfbe <__mulsf3>
     aea:	20 e0       	ldi	r18, 0x00	; 0
     aec:	30 e0       	ldi	r19, 0x00	; 0
     aee:	4f e7       	ldi	r20, 0x7F	; 127
     af0:	53 e4       	ldi	r21, 0x43	; 67
     af2:	0e 94 df 07 	call	0xfbe	; 0xfbe <__mulsf3>
     af6:	0e 94 f7 06 	call	0xdee	; 0xdee <__fixsfsi>
     afa:	6c bf       	out	0x3c, r22	; 60
			//get pressure
			int pressure = ADC_Read(1);
     afc:	81 e0       	ldi	r24, 0x01	; 1
     afe:	0e 94 b7 01 	call	0x36e	; 0x36e <ADC_Read>
			//char z[5];itoa(val,z,10);
			//char h[5];itoa(pressure,h,10);
			//LCD_String(z);LCD_Command(0xc0);LCD_String(h);
			//_delay_ms(100);
			//LCD_Clear();
			if (pressure > 109){// if value gt 109 vehicle is moving in proteus 21
     b02:	8e 36       	cpi	r24, 0x6E	; 110
     b04:	91 05       	cpc	r25, r1
     b06:	0c f4       	brge	.+2      	; 0xb0a <main+0xe4>
     b08:	77 c0       	rjmp	.+238    	; 0xbf8 <main+0x1d2>
				LCD_Clear();
     b0a:	0e 94 a4 01 	call	0x348	; 0x348 <LCD_Clear>
				LCD_String("Driving mode");
     b0e:	80 e3       	ldi	r24, 0x30	; 48
     b10:	91 e0       	ldi	r25, 0x01	; 1
     b12:	0e 94 72 01 	call	0x2e4	; 0x2e4 <LCD_String>
				//------------------------------------------------------------
				if(pinRead(PINC,alcohol)==0x20){
     b16:	9d 9b       	sbis	0x13, 5	; 19
     b18:	1a c0       	rjmp	.+52     	; 0xb4e <main+0x128>
							LCD_Clear();
     b1a:	0e 94 a4 01 	call	0x348	; 0x348 <LCD_Clear>
							LCD_String("Alcohol Detected");
     b1e:	8d e3       	ldi	r24, 0x3D	; 61
     b20:	91 e0       	ldi	r25, 0x01	; 1
     b22:	0e 94 72 01 	call	0x2e4	; 0x2e4 <LCD_String>
							ringAlarm();
     b26:	0e 94 ab 04 	call	0x956	; 0x956 <ringAlarm>
     b2a:	9f ef       	ldi	r25, 0xFF	; 255
     b2c:	20 e7       	ldi	r18, 0x70	; 112
     b2e:	32 e0       	ldi	r19, 0x02	; 2
     b30:	91 50       	subi	r25, 0x01	; 1
     b32:	20 40       	sbci	r18, 0x00	; 0
     b34:	30 40       	sbci	r19, 0x00	; 0
     b36:	e1 f7       	brne	.-8      	; 0xb30 <main+0x10a>
     b38:	00 c0       	rjmp	.+0      	; 0xb3a <main+0x114>
     b3a:	00 00       	nop
							_delay_ms(100);
							stopAlarm();
     b3c:	0e 94 af 04 	call	0x95e	; 0x95e <stopAlarm>
							LCD_Clear();
     b40:	0e 94 a4 01 	call	0x348	; 0x348 <LCD_Clear>
							sendLocation("Alcohol Detected");
     b44:	8d e3       	ldi	r24, 0x3D	; 61
     b46:	91 e0       	ldi	r25, 0x01	; 1
     b48:	0e 94 ef 04 	call	0x9de	; 0x9de <sendLocation>
     b4c:	9d cf       	rjmp	.-198    	; 0xa88 <main+0x62>
				}else{
					if(isDriverSleepingIR()&& 1){
     b4e:	0e 94 bf 04 	call	0x97e	; 0x97e <isDriverSleepingIR>
     b52:	89 2b       	or	r24, r25
     b54:	09 f4       	brne	.+2      	; 0xb58 <main+0x132>
     b56:	98 cf       	rjmp	.-208    	; 0xa88 <main+0x62>
						LCD_Clear();
     b58:	0e 94 a4 01 	call	0x348	; 0x348 <LCD_Clear>
						LCD_String("Sleeping");
     b5c:	87 e8       	ldi	r24, 0x87	; 135
     b5e:	91 e0       	ldi	r25, 0x01	; 1
     b60:	0e 94 72 01 	call	0x2e4	; 0x2e4 <LCD_String>
						ringAlarm();
     b64:	0e 94 ab 04 	call	0x956	; 0x956 <ringAlarm>
						onHazardLight();
     b68:	0e 94 b3 04 	call	0x966	; 0x966 <onHazardLight>
						LCD_Command(0xc0);
     b6c:	80 ec       	ldi	r24, 0xC0	; 192
     b6e:	0e 94 e8 00 	call	0x1d0	; 0x1d0 <LCD_Command>
						LCD_String("Waiting..");
     b72:	8e e4       	ldi	r24, 0x4E	; 78
     b74:	91 e0       	ldi	r25, 0x01	; 1
     b76:	0e 94 72 01 	call	0x2e4	; 0x2e4 <LCD_String>
						//for(int i=1;i<=20;i++){
						int x;
						for(x=1;x<=4;x++){
     b7a:	81 e0       	ldi	r24, 0x01	; 1
     b7c:	90 e0       	ldi	r25, 0x00	; 0
     b7e:	13 c0       	rjmp	.+38     	; 0xba6 <main+0x180>
							if(pinRead(PINC,3)==0x08){
     b80:	9b 9b       	sbis	0x13, 3	; 19
     b82:	07 c0       	rjmp	.+14     	; 0xb92 <main+0x16c>
								stopAlarm();
     b84:	0e 94 af 04 	call	0x95e	; 0x95e <stopAlarm>
								offHazardLight();
     b88:	0e 94 b7 04 	call	0x96e	; 0x96e <offHazardLight>
								LCD_Clear();
     b8c:	0e 94 a4 01 	call	0x348	; 0x348 <LCD_Clear>
								goto start;
     b90:	6c cf       	rjmp	.-296    	; 0xa6a <main+0x44>
     b92:	4f e3       	ldi	r20, 0x3F	; 63
     b94:	2d e0       	ldi	r18, 0x0D	; 13
     b96:	33 e0       	ldi	r19, 0x03	; 3
     b98:	41 50       	subi	r20, 0x01	; 1
     b9a:	20 40       	sbci	r18, 0x00	; 0
     b9c:	30 40       	sbci	r19, 0x00	; 0
     b9e:	e1 f7       	brne	.-8      	; 0xb98 <main+0x172>
     ba0:	00 c0       	rjmp	.+0      	; 0xba2 <main+0x17c>
     ba2:	00 00       	nop
						onHazardLight();
						LCD_Command(0xc0);
						LCD_String("Waiting..");
						//for(int i=1;i<=20;i++){
						int x;
						for(x=1;x<=4;x++){
     ba4:	01 96       	adiw	r24, 0x01	; 1
     ba6:	85 30       	cpi	r24, 0x05	; 5
     ba8:	91 05       	cpc	r25, r1
     baa:	54 f3       	brlt	.-44     	; 0xb80 <main+0x15a>
								LCD_Clear();
								goto start;
							}
							_delay_ms(125);
						}
						LCD_Clear();
     bac:	0e 94 a4 01 	call	0x348	; 0x348 <LCD_Clear>
						LCD_String("Waiting");
     bb0:	88 e5       	ldi	r24, 0x58	; 88
     bb2:	91 e0       	ldi	r25, 0x01	; 1
     bb4:	0e 94 72 01 	call	0x2e4	; 0x2e4 <LCD_String>
						LCD_Command(0xc0);
     bb8:	80 ec       	ldi	r24, 0xC0	; 192
     bba:	0e 94 e8 00 	call	0x1d0	; 0x1d0 <LCD_Command>
						LCD_String("Complete");
     bbe:	80 e6       	ldi	r24, 0x60	; 96
     bc0:	91 e0       	ldi	r25, 0x01	; 1
     bc2:	0e 94 72 01 	call	0x2e4	; 0x2e4 <LCD_String>
						offHazardLight();
     bc6:	0e 94 b7 04 	call	0x96e	; 0x96e <offHazardLight>
						stopAlarm();
     bca:	0e 94 af 04 	call	0x95e	; 0x95e <stopAlarm>
						OCR0=0;
     bce:	1c be       	out	0x3c, r1	; 60
						LCD_Clear();
     bd0:	0e 94 a4 01 	call	0x348	; 0x348 <LCD_Clear>
						LCD_String("Speed is");
     bd4:	89 e6       	ldi	r24, 0x69	; 105
     bd6:	91 e0       	ldi	r25, 0x01	; 1
     bd8:	0e 94 72 01 	call	0x2e4	; 0x2e4 <LCD_String>
						LCD_Command(0xc0);
     bdc:	80 ec       	ldi	r24, 0xC0	; 192
     bde:	0e 94 e8 00 	call	0x1d0	; 0x1d0 <LCD_Command>
						LCD_String("Reducing..");
     be2:	82 e7       	ldi	r24, 0x72	; 114
     be4:	91 e0       	ldi	r25, 0x01	; 1
     be6:	0e 94 72 01 	call	0x2e4	; 0x2e4 <LCD_String>
						sendLocation("Driver is Sleeping");
     bea:	8d e7       	ldi	r24, 0x7D	; 125
     bec:	91 e0       	ldi	r25, 0x01	; 1
     bee:	0e 94 ef 04 	call	0x9de	; 0x9de <sendLocation>
						playRadio();
     bf2:	0e 94 bb 04 	call	0x976	; 0x976 <playRadio>
     bf6:	ff cf       	rjmp	.-2      	; 0xbf6 <main+0x1d0>
						while(1){}//let motor to slowdown fully
					}
				}
				//------------------------------------------------------------
			}else{
				LCD_String("Vehicle is");
     bf8:	80 e9       	ldi	r24, 0x90	; 144
     bfa:	91 e0       	ldi	r25, 0x01	; 1
     bfc:	0e 94 72 01 	call	0x2e4	; 0x2e4 <LCD_String>
				LCD_Command(0xc0);
     c00:	80 ec       	ldi	r24, 0xC0	; 192
     c02:	0e 94 e8 00 	call	0x1d0	; 0x1d0 <LCD_Command>
				LCD_String("not moving");
     c06:	8b e9       	ldi	r24, 0x9B	; 155
     c08:	91 e0       	ldi	r25, 0x01	; 1
     c0a:	0e 94 72 01 	call	0x2e4	; 0x2e4 <LCD_String>
     c0e:	4f e7       	ldi	r20, 0x7F	; 127
     c10:	88 e3       	ldi	r24, 0x38	; 56
     c12:	91 e0       	ldi	r25, 0x01	; 1
     c14:	41 50       	subi	r20, 0x01	; 1
     c16:	80 40       	sbci	r24, 0x00	; 0
     c18:	90 40       	sbci	r25, 0x00	; 0
     c1a:	e1 f7       	brne	.-8      	; 0xc14 <main+0x1ee>
     c1c:	00 c0       	rjmp	.+0      	; 0xc1e <main+0x1f8>
     c1e:	00 00       	nop
				_delay_ms(50);
				LCD_Clear();
     c20:	0e 94 a4 01 	call	0x348	; 0x348 <LCD_Clear>
     c24:	31 cf       	rjmp	.-414    	; 0xa88 <main+0x62>

00000c26 <__subsf3>:
     c26:	50 58       	subi	r21, 0x80	; 128

00000c28 <__addsf3>:
     c28:	bb 27       	eor	r27, r27
     c2a:	aa 27       	eor	r26, r26
     c2c:	0e 94 2b 06 	call	0xc56	; 0xc56 <__addsf3x>
     c30:	0c 94 a5 07 	jmp	0xf4a	; 0xf4a <__fp_round>
     c34:	0e 94 97 07 	call	0xf2e	; 0xf2e <__fp_pscA>
     c38:	38 f0       	brcs	.+14     	; 0xc48 <__addsf3+0x20>
     c3a:	0e 94 9e 07 	call	0xf3c	; 0xf3c <__fp_pscB>
     c3e:	20 f0       	brcs	.+8      	; 0xc48 <__addsf3+0x20>
     c40:	39 f4       	brne	.+14     	; 0xc50 <__addsf3+0x28>
     c42:	9f 3f       	cpi	r25, 0xFF	; 255
     c44:	19 f4       	brne	.+6      	; 0xc4c <__addsf3+0x24>
     c46:	26 f4       	brtc	.+8      	; 0xc50 <__addsf3+0x28>
     c48:	0c 94 94 07 	jmp	0xf28	; 0xf28 <__fp_nan>
     c4c:	0e f4       	brtc	.+2      	; 0xc50 <__addsf3+0x28>
     c4e:	e0 95       	com	r30
     c50:	e7 fb       	bst	r30, 7
     c52:	0c 94 8e 07 	jmp	0xf1c	; 0xf1c <__fp_inf>

00000c56 <__addsf3x>:
     c56:	e9 2f       	mov	r30, r25
     c58:	0e 94 b6 07 	call	0xf6c	; 0xf6c <__fp_split3>
     c5c:	58 f3       	brcs	.-42     	; 0xc34 <__addsf3+0xc>
     c5e:	ba 17       	cp	r27, r26
     c60:	62 07       	cpc	r22, r18
     c62:	73 07       	cpc	r23, r19
     c64:	84 07       	cpc	r24, r20
     c66:	95 07       	cpc	r25, r21
     c68:	20 f0       	brcs	.+8      	; 0xc72 <__addsf3x+0x1c>
     c6a:	79 f4       	brne	.+30     	; 0xc8a <__addsf3x+0x34>
     c6c:	a6 f5       	brtc	.+104    	; 0xcd6 <__addsf3x+0x80>
     c6e:	0c 94 d8 07 	jmp	0xfb0	; 0xfb0 <__fp_zero>
     c72:	0e f4       	brtc	.+2      	; 0xc76 <__addsf3x+0x20>
     c74:	e0 95       	com	r30
     c76:	0b 2e       	mov	r0, r27
     c78:	ba 2f       	mov	r27, r26
     c7a:	a0 2d       	mov	r26, r0
     c7c:	0b 01       	movw	r0, r22
     c7e:	b9 01       	movw	r22, r18
     c80:	90 01       	movw	r18, r0
     c82:	0c 01       	movw	r0, r24
     c84:	ca 01       	movw	r24, r20
     c86:	a0 01       	movw	r20, r0
     c88:	11 24       	eor	r1, r1
     c8a:	ff 27       	eor	r31, r31
     c8c:	59 1b       	sub	r21, r25
     c8e:	99 f0       	breq	.+38     	; 0xcb6 <__addsf3x+0x60>
     c90:	59 3f       	cpi	r21, 0xF9	; 249
     c92:	50 f4       	brcc	.+20     	; 0xca8 <__addsf3x+0x52>
     c94:	50 3e       	cpi	r21, 0xE0	; 224
     c96:	68 f1       	brcs	.+90     	; 0xcf2 <__addsf3x+0x9c>
     c98:	1a 16       	cp	r1, r26
     c9a:	f0 40       	sbci	r31, 0x00	; 0
     c9c:	a2 2f       	mov	r26, r18
     c9e:	23 2f       	mov	r18, r19
     ca0:	34 2f       	mov	r19, r20
     ca2:	44 27       	eor	r20, r20
     ca4:	58 5f       	subi	r21, 0xF8	; 248
     ca6:	f3 cf       	rjmp	.-26     	; 0xc8e <__addsf3x+0x38>
     ca8:	46 95       	lsr	r20
     caa:	37 95       	ror	r19
     cac:	27 95       	ror	r18
     cae:	a7 95       	ror	r26
     cb0:	f0 40       	sbci	r31, 0x00	; 0
     cb2:	53 95       	inc	r21
     cb4:	c9 f7       	brne	.-14     	; 0xca8 <__addsf3x+0x52>
     cb6:	7e f4       	brtc	.+30     	; 0xcd6 <__addsf3x+0x80>
     cb8:	1f 16       	cp	r1, r31
     cba:	ba 0b       	sbc	r27, r26
     cbc:	62 0b       	sbc	r22, r18
     cbe:	73 0b       	sbc	r23, r19
     cc0:	84 0b       	sbc	r24, r20
     cc2:	ba f0       	brmi	.+46     	; 0xcf2 <__addsf3x+0x9c>
     cc4:	91 50       	subi	r25, 0x01	; 1
     cc6:	a1 f0       	breq	.+40     	; 0xcf0 <__addsf3x+0x9a>
     cc8:	ff 0f       	add	r31, r31
     cca:	bb 1f       	adc	r27, r27
     ccc:	66 1f       	adc	r22, r22
     cce:	77 1f       	adc	r23, r23
     cd0:	88 1f       	adc	r24, r24
     cd2:	c2 f7       	brpl	.-16     	; 0xcc4 <__addsf3x+0x6e>
     cd4:	0e c0       	rjmp	.+28     	; 0xcf2 <__addsf3x+0x9c>
     cd6:	ba 0f       	add	r27, r26
     cd8:	62 1f       	adc	r22, r18
     cda:	73 1f       	adc	r23, r19
     cdc:	84 1f       	adc	r24, r20
     cde:	48 f4       	brcc	.+18     	; 0xcf2 <__addsf3x+0x9c>
     ce0:	87 95       	ror	r24
     ce2:	77 95       	ror	r23
     ce4:	67 95       	ror	r22
     ce6:	b7 95       	ror	r27
     ce8:	f7 95       	ror	r31
     cea:	9e 3f       	cpi	r25, 0xFE	; 254
     cec:	08 f0       	brcs	.+2      	; 0xcf0 <__addsf3x+0x9a>
     cee:	b0 cf       	rjmp	.-160    	; 0xc50 <__addsf3+0x28>
     cf0:	93 95       	inc	r25
     cf2:	88 0f       	add	r24, r24
     cf4:	08 f0       	brcs	.+2      	; 0xcf8 <__addsf3x+0xa2>
     cf6:	99 27       	eor	r25, r25
     cf8:	ee 0f       	add	r30, r30
     cfa:	97 95       	ror	r25
     cfc:	87 95       	ror	r24
     cfe:	08 95       	ret

00000d00 <__cmpsf2>:
     d00:	0e 94 6a 07 	call	0xed4	; 0xed4 <__fp_cmp>
     d04:	08 f4       	brcc	.+2      	; 0xd08 <__cmpsf2+0x8>
     d06:	81 e0       	ldi	r24, 0x01	; 1
     d08:	08 95       	ret

00000d0a <__divsf3>:
     d0a:	0e 94 99 06 	call	0xd32	; 0xd32 <__divsf3x>
     d0e:	0c 94 a5 07 	jmp	0xf4a	; 0xf4a <__fp_round>
     d12:	0e 94 9e 07 	call	0xf3c	; 0xf3c <__fp_pscB>
     d16:	58 f0       	brcs	.+22     	; 0xd2e <__divsf3+0x24>
     d18:	0e 94 97 07 	call	0xf2e	; 0xf2e <__fp_pscA>
     d1c:	40 f0       	brcs	.+16     	; 0xd2e <__divsf3+0x24>
     d1e:	29 f4       	brne	.+10     	; 0xd2a <__divsf3+0x20>
     d20:	5f 3f       	cpi	r21, 0xFF	; 255
     d22:	29 f0       	breq	.+10     	; 0xd2e <__divsf3+0x24>
     d24:	0c 94 8e 07 	jmp	0xf1c	; 0xf1c <__fp_inf>
     d28:	51 11       	cpse	r21, r1
     d2a:	0c 94 d9 07 	jmp	0xfb2	; 0xfb2 <__fp_szero>
     d2e:	0c 94 94 07 	jmp	0xf28	; 0xf28 <__fp_nan>

00000d32 <__divsf3x>:
     d32:	0e 94 b6 07 	call	0xf6c	; 0xf6c <__fp_split3>
     d36:	68 f3       	brcs	.-38     	; 0xd12 <__divsf3+0x8>

00000d38 <__divsf3_pse>:
     d38:	99 23       	and	r25, r25
     d3a:	b1 f3       	breq	.-20     	; 0xd28 <__divsf3+0x1e>
     d3c:	55 23       	and	r21, r21
     d3e:	91 f3       	breq	.-28     	; 0xd24 <__divsf3+0x1a>
     d40:	95 1b       	sub	r25, r21
     d42:	55 0b       	sbc	r21, r21
     d44:	bb 27       	eor	r27, r27
     d46:	aa 27       	eor	r26, r26
     d48:	62 17       	cp	r22, r18
     d4a:	73 07       	cpc	r23, r19
     d4c:	84 07       	cpc	r24, r20
     d4e:	38 f0       	brcs	.+14     	; 0xd5e <__divsf3_pse+0x26>
     d50:	9f 5f       	subi	r25, 0xFF	; 255
     d52:	5f 4f       	sbci	r21, 0xFF	; 255
     d54:	22 0f       	add	r18, r18
     d56:	33 1f       	adc	r19, r19
     d58:	44 1f       	adc	r20, r20
     d5a:	aa 1f       	adc	r26, r26
     d5c:	a9 f3       	breq	.-22     	; 0xd48 <__divsf3_pse+0x10>
     d5e:	35 d0       	rcall	.+106    	; 0xdca <__divsf3_pse+0x92>
     d60:	0e 2e       	mov	r0, r30
     d62:	3a f0       	brmi	.+14     	; 0xd72 <__divsf3_pse+0x3a>
     d64:	e0 e8       	ldi	r30, 0x80	; 128
     d66:	32 d0       	rcall	.+100    	; 0xdcc <__divsf3_pse+0x94>
     d68:	91 50       	subi	r25, 0x01	; 1
     d6a:	50 40       	sbci	r21, 0x00	; 0
     d6c:	e6 95       	lsr	r30
     d6e:	00 1c       	adc	r0, r0
     d70:	ca f7       	brpl	.-14     	; 0xd64 <__divsf3_pse+0x2c>
     d72:	2b d0       	rcall	.+86     	; 0xdca <__divsf3_pse+0x92>
     d74:	fe 2f       	mov	r31, r30
     d76:	29 d0       	rcall	.+82     	; 0xdca <__divsf3_pse+0x92>
     d78:	66 0f       	add	r22, r22
     d7a:	77 1f       	adc	r23, r23
     d7c:	88 1f       	adc	r24, r24
     d7e:	bb 1f       	adc	r27, r27
     d80:	26 17       	cp	r18, r22
     d82:	37 07       	cpc	r19, r23
     d84:	48 07       	cpc	r20, r24
     d86:	ab 07       	cpc	r26, r27
     d88:	b0 e8       	ldi	r27, 0x80	; 128
     d8a:	09 f0       	breq	.+2      	; 0xd8e <__divsf3_pse+0x56>
     d8c:	bb 0b       	sbc	r27, r27
     d8e:	80 2d       	mov	r24, r0
     d90:	bf 01       	movw	r22, r30
     d92:	ff 27       	eor	r31, r31
     d94:	93 58       	subi	r25, 0x83	; 131
     d96:	5f 4f       	sbci	r21, 0xFF	; 255
     d98:	3a f0       	brmi	.+14     	; 0xda8 <__divsf3_pse+0x70>
     d9a:	9e 3f       	cpi	r25, 0xFE	; 254
     d9c:	51 05       	cpc	r21, r1
     d9e:	78 f0       	brcs	.+30     	; 0xdbe <__divsf3_pse+0x86>
     da0:	0c 94 8e 07 	jmp	0xf1c	; 0xf1c <__fp_inf>
     da4:	0c 94 d9 07 	jmp	0xfb2	; 0xfb2 <__fp_szero>
     da8:	5f 3f       	cpi	r21, 0xFF	; 255
     daa:	e4 f3       	brlt	.-8      	; 0xda4 <__divsf3_pse+0x6c>
     dac:	98 3e       	cpi	r25, 0xE8	; 232
     dae:	d4 f3       	brlt	.-12     	; 0xda4 <__divsf3_pse+0x6c>
     db0:	86 95       	lsr	r24
     db2:	77 95       	ror	r23
     db4:	67 95       	ror	r22
     db6:	b7 95       	ror	r27
     db8:	f7 95       	ror	r31
     dba:	9f 5f       	subi	r25, 0xFF	; 255
     dbc:	c9 f7       	brne	.-14     	; 0xdb0 <__divsf3_pse+0x78>
     dbe:	88 0f       	add	r24, r24
     dc0:	91 1d       	adc	r25, r1
     dc2:	96 95       	lsr	r25
     dc4:	87 95       	ror	r24
     dc6:	97 f9       	bld	r25, 7
     dc8:	08 95       	ret
     dca:	e1 e0       	ldi	r30, 0x01	; 1
     dcc:	66 0f       	add	r22, r22
     dce:	77 1f       	adc	r23, r23
     dd0:	88 1f       	adc	r24, r24
     dd2:	bb 1f       	adc	r27, r27
     dd4:	62 17       	cp	r22, r18
     dd6:	73 07       	cpc	r23, r19
     dd8:	84 07       	cpc	r24, r20
     dda:	ba 07       	cpc	r27, r26
     ddc:	20 f0       	brcs	.+8      	; 0xde6 <__divsf3_pse+0xae>
     dde:	62 1b       	sub	r22, r18
     de0:	73 0b       	sbc	r23, r19
     de2:	84 0b       	sbc	r24, r20
     de4:	ba 0b       	sbc	r27, r26
     de6:	ee 1f       	adc	r30, r30
     de8:	88 f7       	brcc	.-30     	; 0xdcc <__divsf3_pse+0x94>
     dea:	e0 95       	com	r30
     dec:	08 95       	ret

00000dee <__fixsfsi>:
     dee:	0e 94 fe 06 	call	0xdfc	; 0xdfc <__fixunssfsi>
     df2:	68 94       	set
     df4:	b1 11       	cpse	r27, r1
     df6:	0c 94 d9 07 	jmp	0xfb2	; 0xfb2 <__fp_szero>
     dfa:	08 95       	ret

00000dfc <__fixunssfsi>:
     dfc:	0e 94 be 07 	call	0xf7c	; 0xf7c <__fp_splitA>
     e00:	88 f0       	brcs	.+34     	; 0xe24 <__fixunssfsi+0x28>
     e02:	9f 57       	subi	r25, 0x7F	; 127
     e04:	98 f0       	brcs	.+38     	; 0xe2c <__fixunssfsi+0x30>
     e06:	b9 2f       	mov	r27, r25
     e08:	99 27       	eor	r25, r25
     e0a:	b7 51       	subi	r27, 0x17	; 23
     e0c:	b0 f0       	brcs	.+44     	; 0xe3a <__fixunssfsi+0x3e>
     e0e:	e1 f0       	breq	.+56     	; 0xe48 <__fixunssfsi+0x4c>
     e10:	66 0f       	add	r22, r22
     e12:	77 1f       	adc	r23, r23
     e14:	88 1f       	adc	r24, r24
     e16:	99 1f       	adc	r25, r25
     e18:	1a f0       	brmi	.+6      	; 0xe20 <__fixunssfsi+0x24>
     e1a:	ba 95       	dec	r27
     e1c:	c9 f7       	brne	.-14     	; 0xe10 <__fixunssfsi+0x14>
     e1e:	14 c0       	rjmp	.+40     	; 0xe48 <__fixunssfsi+0x4c>
     e20:	b1 30       	cpi	r27, 0x01	; 1
     e22:	91 f0       	breq	.+36     	; 0xe48 <__fixunssfsi+0x4c>
     e24:	0e 94 d8 07 	call	0xfb0	; 0xfb0 <__fp_zero>
     e28:	b1 e0       	ldi	r27, 0x01	; 1
     e2a:	08 95       	ret
     e2c:	0c 94 d8 07 	jmp	0xfb0	; 0xfb0 <__fp_zero>
     e30:	67 2f       	mov	r22, r23
     e32:	78 2f       	mov	r23, r24
     e34:	88 27       	eor	r24, r24
     e36:	b8 5f       	subi	r27, 0xF8	; 248
     e38:	39 f0       	breq	.+14     	; 0xe48 <__fixunssfsi+0x4c>
     e3a:	b9 3f       	cpi	r27, 0xF9	; 249
     e3c:	cc f3       	brlt	.-14     	; 0xe30 <__fixunssfsi+0x34>
     e3e:	86 95       	lsr	r24
     e40:	77 95       	ror	r23
     e42:	67 95       	ror	r22
     e44:	b3 95       	inc	r27
     e46:	d9 f7       	brne	.-10     	; 0xe3e <__fixunssfsi+0x42>
     e48:	3e f4       	brtc	.+14     	; 0xe58 <__fixunssfsi+0x5c>
     e4a:	90 95       	com	r25
     e4c:	80 95       	com	r24
     e4e:	70 95       	com	r23
     e50:	61 95       	neg	r22
     e52:	7f 4f       	sbci	r23, 0xFF	; 255
     e54:	8f 4f       	sbci	r24, 0xFF	; 255
     e56:	9f 4f       	sbci	r25, 0xFF	; 255
     e58:	08 95       	ret

00000e5a <__floatunsisf>:
     e5a:	e8 94       	clt
     e5c:	09 c0       	rjmp	.+18     	; 0xe70 <__floatsisf+0x12>

00000e5e <__floatsisf>:
     e5e:	97 fb       	bst	r25, 7
     e60:	3e f4       	brtc	.+14     	; 0xe70 <__floatsisf+0x12>
     e62:	90 95       	com	r25
     e64:	80 95       	com	r24
     e66:	70 95       	com	r23
     e68:	61 95       	neg	r22
     e6a:	7f 4f       	sbci	r23, 0xFF	; 255
     e6c:	8f 4f       	sbci	r24, 0xFF	; 255
     e6e:	9f 4f       	sbci	r25, 0xFF	; 255
     e70:	99 23       	and	r25, r25
     e72:	a9 f0       	breq	.+42     	; 0xe9e <__floatsisf+0x40>
     e74:	f9 2f       	mov	r31, r25
     e76:	96 e9       	ldi	r25, 0x96	; 150
     e78:	bb 27       	eor	r27, r27
     e7a:	93 95       	inc	r25
     e7c:	f6 95       	lsr	r31
     e7e:	87 95       	ror	r24
     e80:	77 95       	ror	r23
     e82:	67 95       	ror	r22
     e84:	b7 95       	ror	r27
     e86:	f1 11       	cpse	r31, r1
     e88:	f8 cf       	rjmp	.-16     	; 0xe7a <__floatsisf+0x1c>
     e8a:	fa f4       	brpl	.+62     	; 0xeca <__floatsisf+0x6c>
     e8c:	bb 0f       	add	r27, r27
     e8e:	11 f4       	brne	.+4      	; 0xe94 <__floatsisf+0x36>
     e90:	60 ff       	sbrs	r22, 0
     e92:	1b c0       	rjmp	.+54     	; 0xeca <__floatsisf+0x6c>
     e94:	6f 5f       	subi	r22, 0xFF	; 255
     e96:	7f 4f       	sbci	r23, 0xFF	; 255
     e98:	8f 4f       	sbci	r24, 0xFF	; 255
     e9a:	9f 4f       	sbci	r25, 0xFF	; 255
     e9c:	16 c0       	rjmp	.+44     	; 0xeca <__floatsisf+0x6c>
     e9e:	88 23       	and	r24, r24
     ea0:	11 f0       	breq	.+4      	; 0xea6 <__floatsisf+0x48>
     ea2:	96 e9       	ldi	r25, 0x96	; 150
     ea4:	11 c0       	rjmp	.+34     	; 0xec8 <__floatsisf+0x6a>
     ea6:	77 23       	and	r23, r23
     ea8:	21 f0       	breq	.+8      	; 0xeb2 <__floatsisf+0x54>
     eaa:	9e e8       	ldi	r25, 0x8E	; 142
     eac:	87 2f       	mov	r24, r23
     eae:	76 2f       	mov	r23, r22
     eb0:	05 c0       	rjmp	.+10     	; 0xebc <__floatsisf+0x5e>
     eb2:	66 23       	and	r22, r22
     eb4:	71 f0       	breq	.+28     	; 0xed2 <__floatsisf+0x74>
     eb6:	96 e8       	ldi	r25, 0x86	; 134
     eb8:	86 2f       	mov	r24, r22
     eba:	70 e0       	ldi	r23, 0x00	; 0
     ebc:	60 e0       	ldi	r22, 0x00	; 0
     ebe:	2a f0       	brmi	.+10     	; 0xeca <__floatsisf+0x6c>
     ec0:	9a 95       	dec	r25
     ec2:	66 0f       	add	r22, r22
     ec4:	77 1f       	adc	r23, r23
     ec6:	88 1f       	adc	r24, r24
     ec8:	da f7       	brpl	.-10     	; 0xec0 <__floatsisf+0x62>
     eca:	88 0f       	add	r24, r24
     ecc:	96 95       	lsr	r25
     ece:	87 95       	ror	r24
     ed0:	97 f9       	bld	r25, 7
     ed2:	08 95       	ret

00000ed4 <__fp_cmp>:
     ed4:	99 0f       	add	r25, r25
     ed6:	00 08       	sbc	r0, r0
     ed8:	55 0f       	add	r21, r21
     eda:	aa 0b       	sbc	r26, r26
     edc:	e0 e8       	ldi	r30, 0x80	; 128
     ede:	fe ef       	ldi	r31, 0xFE	; 254
     ee0:	16 16       	cp	r1, r22
     ee2:	17 06       	cpc	r1, r23
     ee4:	e8 07       	cpc	r30, r24
     ee6:	f9 07       	cpc	r31, r25
     ee8:	c0 f0       	brcs	.+48     	; 0xf1a <__fp_cmp+0x46>
     eea:	12 16       	cp	r1, r18
     eec:	13 06       	cpc	r1, r19
     eee:	e4 07       	cpc	r30, r20
     ef0:	f5 07       	cpc	r31, r21
     ef2:	98 f0       	brcs	.+38     	; 0xf1a <__fp_cmp+0x46>
     ef4:	62 1b       	sub	r22, r18
     ef6:	73 0b       	sbc	r23, r19
     ef8:	84 0b       	sbc	r24, r20
     efa:	95 0b       	sbc	r25, r21
     efc:	39 f4       	brne	.+14     	; 0xf0c <__fp_cmp+0x38>
     efe:	0a 26       	eor	r0, r26
     f00:	61 f0       	breq	.+24     	; 0xf1a <__fp_cmp+0x46>
     f02:	23 2b       	or	r18, r19
     f04:	24 2b       	or	r18, r20
     f06:	25 2b       	or	r18, r21
     f08:	21 f4       	brne	.+8      	; 0xf12 <__fp_cmp+0x3e>
     f0a:	08 95       	ret
     f0c:	0a 26       	eor	r0, r26
     f0e:	09 f4       	brne	.+2      	; 0xf12 <__fp_cmp+0x3e>
     f10:	a1 40       	sbci	r26, 0x01	; 1
     f12:	a6 95       	lsr	r26
     f14:	8f ef       	ldi	r24, 0xFF	; 255
     f16:	81 1d       	adc	r24, r1
     f18:	81 1d       	adc	r24, r1
     f1a:	08 95       	ret

00000f1c <__fp_inf>:
     f1c:	97 f9       	bld	r25, 7
     f1e:	9f 67       	ori	r25, 0x7F	; 127
     f20:	80 e8       	ldi	r24, 0x80	; 128
     f22:	70 e0       	ldi	r23, 0x00	; 0
     f24:	60 e0       	ldi	r22, 0x00	; 0
     f26:	08 95       	ret

00000f28 <__fp_nan>:
     f28:	9f ef       	ldi	r25, 0xFF	; 255
     f2a:	80 ec       	ldi	r24, 0xC0	; 192
     f2c:	08 95       	ret

00000f2e <__fp_pscA>:
     f2e:	00 24       	eor	r0, r0
     f30:	0a 94       	dec	r0
     f32:	16 16       	cp	r1, r22
     f34:	17 06       	cpc	r1, r23
     f36:	18 06       	cpc	r1, r24
     f38:	09 06       	cpc	r0, r25
     f3a:	08 95       	ret

00000f3c <__fp_pscB>:
     f3c:	00 24       	eor	r0, r0
     f3e:	0a 94       	dec	r0
     f40:	12 16       	cp	r1, r18
     f42:	13 06       	cpc	r1, r19
     f44:	14 06       	cpc	r1, r20
     f46:	05 06       	cpc	r0, r21
     f48:	08 95       	ret

00000f4a <__fp_round>:
     f4a:	09 2e       	mov	r0, r25
     f4c:	03 94       	inc	r0
     f4e:	00 0c       	add	r0, r0
     f50:	11 f4       	brne	.+4      	; 0xf56 <__fp_round+0xc>
     f52:	88 23       	and	r24, r24
     f54:	52 f0       	brmi	.+20     	; 0xf6a <__fp_round+0x20>
     f56:	bb 0f       	add	r27, r27
     f58:	40 f4       	brcc	.+16     	; 0xf6a <__fp_round+0x20>
     f5a:	bf 2b       	or	r27, r31
     f5c:	11 f4       	brne	.+4      	; 0xf62 <__fp_round+0x18>
     f5e:	60 ff       	sbrs	r22, 0
     f60:	04 c0       	rjmp	.+8      	; 0xf6a <__fp_round+0x20>
     f62:	6f 5f       	subi	r22, 0xFF	; 255
     f64:	7f 4f       	sbci	r23, 0xFF	; 255
     f66:	8f 4f       	sbci	r24, 0xFF	; 255
     f68:	9f 4f       	sbci	r25, 0xFF	; 255
     f6a:	08 95       	ret

00000f6c <__fp_split3>:
     f6c:	57 fd       	sbrc	r21, 7
     f6e:	90 58       	subi	r25, 0x80	; 128
     f70:	44 0f       	add	r20, r20
     f72:	55 1f       	adc	r21, r21
     f74:	59 f0       	breq	.+22     	; 0xf8c <__fp_splitA+0x10>
     f76:	5f 3f       	cpi	r21, 0xFF	; 255
     f78:	71 f0       	breq	.+28     	; 0xf96 <__fp_splitA+0x1a>
     f7a:	47 95       	ror	r20

00000f7c <__fp_splitA>:
     f7c:	88 0f       	add	r24, r24
     f7e:	97 fb       	bst	r25, 7
     f80:	99 1f       	adc	r25, r25
     f82:	61 f0       	breq	.+24     	; 0xf9c <__fp_splitA+0x20>
     f84:	9f 3f       	cpi	r25, 0xFF	; 255
     f86:	79 f0       	breq	.+30     	; 0xfa6 <__fp_splitA+0x2a>
     f88:	87 95       	ror	r24
     f8a:	08 95       	ret
     f8c:	12 16       	cp	r1, r18
     f8e:	13 06       	cpc	r1, r19
     f90:	14 06       	cpc	r1, r20
     f92:	55 1f       	adc	r21, r21
     f94:	f2 cf       	rjmp	.-28     	; 0xf7a <__fp_split3+0xe>
     f96:	46 95       	lsr	r20
     f98:	f1 df       	rcall	.-30     	; 0xf7c <__fp_splitA>
     f9a:	08 c0       	rjmp	.+16     	; 0xfac <__fp_splitA+0x30>
     f9c:	16 16       	cp	r1, r22
     f9e:	17 06       	cpc	r1, r23
     fa0:	18 06       	cpc	r1, r24
     fa2:	99 1f       	adc	r25, r25
     fa4:	f1 cf       	rjmp	.-30     	; 0xf88 <__fp_splitA+0xc>
     fa6:	86 95       	lsr	r24
     fa8:	71 05       	cpc	r23, r1
     faa:	61 05       	cpc	r22, r1
     fac:	08 94       	sec
     fae:	08 95       	ret

00000fb0 <__fp_zero>:
     fb0:	e8 94       	clt

00000fb2 <__fp_szero>:
     fb2:	bb 27       	eor	r27, r27
     fb4:	66 27       	eor	r22, r22
     fb6:	77 27       	eor	r23, r23
     fb8:	cb 01       	movw	r24, r22
     fba:	97 f9       	bld	r25, 7
     fbc:	08 95       	ret

00000fbe <__mulsf3>:
     fbe:	0e 94 f2 07 	call	0xfe4	; 0xfe4 <__mulsf3x>
     fc2:	0c 94 a5 07 	jmp	0xf4a	; 0xf4a <__fp_round>
     fc6:	0e 94 97 07 	call	0xf2e	; 0xf2e <__fp_pscA>
     fca:	38 f0       	brcs	.+14     	; 0xfda <__mulsf3+0x1c>
     fcc:	0e 94 9e 07 	call	0xf3c	; 0xf3c <__fp_pscB>
     fd0:	20 f0       	brcs	.+8      	; 0xfda <__mulsf3+0x1c>
     fd2:	95 23       	and	r25, r21
     fd4:	11 f0       	breq	.+4      	; 0xfda <__mulsf3+0x1c>
     fd6:	0c 94 8e 07 	jmp	0xf1c	; 0xf1c <__fp_inf>
     fda:	0c 94 94 07 	jmp	0xf28	; 0xf28 <__fp_nan>
     fde:	11 24       	eor	r1, r1
     fe0:	0c 94 d9 07 	jmp	0xfb2	; 0xfb2 <__fp_szero>

00000fe4 <__mulsf3x>:
     fe4:	0e 94 b6 07 	call	0xf6c	; 0xf6c <__fp_split3>
     fe8:	70 f3       	brcs	.-36     	; 0xfc6 <__mulsf3+0x8>

00000fea <__mulsf3_pse>:
     fea:	95 9f       	mul	r25, r21
     fec:	c1 f3       	breq	.-16     	; 0xfde <__mulsf3+0x20>
     fee:	95 0f       	add	r25, r21
     ff0:	50 e0       	ldi	r21, 0x00	; 0
     ff2:	55 1f       	adc	r21, r21
     ff4:	62 9f       	mul	r22, r18
     ff6:	f0 01       	movw	r30, r0
     ff8:	72 9f       	mul	r23, r18
     ffa:	bb 27       	eor	r27, r27
     ffc:	f0 0d       	add	r31, r0
     ffe:	b1 1d       	adc	r27, r1
    1000:	63 9f       	mul	r22, r19
    1002:	aa 27       	eor	r26, r26
    1004:	f0 0d       	add	r31, r0
    1006:	b1 1d       	adc	r27, r1
    1008:	aa 1f       	adc	r26, r26
    100a:	64 9f       	mul	r22, r20
    100c:	66 27       	eor	r22, r22
    100e:	b0 0d       	add	r27, r0
    1010:	a1 1d       	adc	r26, r1
    1012:	66 1f       	adc	r22, r22
    1014:	82 9f       	mul	r24, r18
    1016:	22 27       	eor	r18, r18
    1018:	b0 0d       	add	r27, r0
    101a:	a1 1d       	adc	r26, r1
    101c:	62 1f       	adc	r22, r18
    101e:	73 9f       	mul	r23, r19
    1020:	b0 0d       	add	r27, r0
    1022:	a1 1d       	adc	r26, r1
    1024:	62 1f       	adc	r22, r18
    1026:	83 9f       	mul	r24, r19
    1028:	a0 0d       	add	r26, r0
    102a:	61 1d       	adc	r22, r1
    102c:	22 1f       	adc	r18, r18
    102e:	74 9f       	mul	r23, r20
    1030:	33 27       	eor	r19, r19
    1032:	a0 0d       	add	r26, r0
    1034:	61 1d       	adc	r22, r1
    1036:	23 1f       	adc	r18, r19
    1038:	84 9f       	mul	r24, r20
    103a:	60 0d       	add	r22, r0
    103c:	21 1d       	adc	r18, r1
    103e:	82 2f       	mov	r24, r18
    1040:	76 2f       	mov	r23, r22
    1042:	6a 2f       	mov	r22, r26
    1044:	11 24       	eor	r1, r1
    1046:	9f 57       	subi	r25, 0x7F	; 127
    1048:	50 40       	sbci	r21, 0x00	; 0
    104a:	9a f0       	brmi	.+38     	; 0x1072 <__mulsf3_pse+0x88>
    104c:	f1 f0       	breq	.+60     	; 0x108a <__mulsf3_pse+0xa0>
    104e:	88 23       	and	r24, r24
    1050:	4a f0       	brmi	.+18     	; 0x1064 <__mulsf3_pse+0x7a>
    1052:	ee 0f       	add	r30, r30
    1054:	ff 1f       	adc	r31, r31
    1056:	bb 1f       	adc	r27, r27
    1058:	66 1f       	adc	r22, r22
    105a:	77 1f       	adc	r23, r23
    105c:	88 1f       	adc	r24, r24
    105e:	91 50       	subi	r25, 0x01	; 1
    1060:	50 40       	sbci	r21, 0x00	; 0
    1062:	a9 f7       	brne	.-22     	; 0x104e <__mulsf3_pse+0x64>
    1064:	9e 3f       	cpi	r25, 0xFE	; 254
    1066:	51 05       	cpc	r21, r1
    1068:	80 f0       	brcs	.+32     	; 0x108a <__mulsf3_pse+0xa0>
    106a:	0c 94 8e 07 	jmp	0xf1c	; 0xf1c <__fp_inf>
    106e:	0c 94 d9 07 	jmp	0xfb2	; 0xfb2 <__fp_szero>
    1072:	5f 3f       	cpi	r21, 0xFF	; 255
    1074:	e4 f3       	brlt	.-8      	; 0x106e <__mulsf3_pse+0x84>
    1076:	98 3e       	cpi	r25, 0xE8	; 232
    1078:	d4 f3       	brlt	.-12     	; 0x106e <__mulsf3_pse+0x84>
    107a:	86 95       	lsr	r24
    107c:	77 95       	ror	r23
    107e:	67 95       	ror	r22
    1080:	b7 95       	ror	r27
    1082:	f7 95       	ror	r31
    1084:	e7 95       	ror	r30
    1086:	9f 5f       	subi	r25, 0xFF	; 255
    1088:	c1 f7       	brne	.-16     	; 0x107a <__mulsf3_pse+0x90>
    108a:	fe 2b       	or	r31, r30
    108c:	88 0f       	add	r24, r24
    108e:	91 1d       	adc	r25, r1
    1090:	96 95       	lsr	r25
    1092:	87 95       	ror	r24
    1094:	97 f9       	bld	r25, 7
    1096:	08 95       	ret

00001098 <__udivmodsi4>:
    1098:	a1 e2       	ldi	r26, 0x21	; 33
    109a:	1a 2e       	mov	r1, r26
    109c:	aa 1b       	sub	r26, r26
    109e:	bb 1b       	sub	r27, r27
    10a0:	fd 01       	movw	r30, r26
    10a2:	0d c0       	rjmp	.+26     	; 0x10be <__udivmodsi4_ep>

000010a4 <__udivmodsi4_loop>:
    10a4:	aa 1f       	adc	r26, r26
    10a6:	bb 1f       	adc	r27, r27
    10a8:	ee 1f       	adc	r30, r30
    10aa:	ff 1f       	adc	r31, r31
    10ac:	a2 17       	cp	r26, r18
    10ae:	b3 07       	cpc	r27, r19
    10b0:	e4 07       	cpc	r30, r20
    10b2:	f5 07       	cpc	r31, r21
    10b4:	20 f0       	brcs	.+8      	; 0x10be <__udivmodsi4_ep>
    10b6:	a2 1b       	sub	r26, r18
    10b8:	b3 0b       	sbc	r27, r19
    10ba:	e4 0b       	sbc	r30, r20
    10bc:	f5 0b       	sbc	r31, r21

000010be <__udivmodsi4_ep>:
    10be:	66 1f       	adc	r22, r22
    10c0:	77 1f       	adc	r23, r23
    10c2:	88 1f       	adc	r24, r24
    10c4:	99 1f       	adc	r25, r25
    10c6:	1a 94       	dec	r1
    10c8:	69 f7       	brne	.-38     	; 0x10a4 <__udivmodsi4_loop>
    10ca:	60 95       	com	r22
    10cc:	70 95       	com	r23
    10ce:	80 95       	com	r24
    10d0:	90 95       	com	r25
    10d2:	9b 01       	movw	r18, r22
    10d4:	ac 01       	movw	r20, r24
    10d6:	bd 01       	movw	r22, r26
    10d8:	cf 01       	movw	r24, r30
    10da:	08 95       	ret

000010dc <dtostrf>:
    10dc:	ef 92       	push	r14
    10de:	0f 93       	push	r16
    10e0:	1f 93       	push	r17
    10e2:	cf 93       	push	r28
    10e4:	df 93       	push	r29
    10e6:	e8 01       	movw	r28, r16
    10e8:	47 fd       	sbrc	r20, 7
    10ea:	02 c0       	rjmp	.+4      	; 0x10f0 <dtostrf+0x14>
    10ec:	34 e0       	ldi	r19, 0x04	; 4
    10ee:	01 c0       	rjmp	.+2      	; 0x10f2 <dtostrf+0x16>
    10f0:	34 e1       	ldi	r19, 0x14	; 20
    10f2:	04 2e       	mov	r0, r20
    10f4:	00 0c       	add	r0, r0
    10f6:	55 0b       	sbc	r21, r21
    10f8:	57 ff       	sbrs	r21, 7
    10fa:	03 c0       	rjmp	.+6      	; 0x1102 <dtostrf+0x26>
    10fc:	51 95       	neg	r21
    10fe:	41 95       	neg	r20
    1100:	51 09       	sbc	r21, r1
    1102:	e3 2e       	mov	r14, r19
    1104:	02 2f       	mov	r16, r18
    1106:	24 2f       	mov	r18, r20
    1108:	ae 01       	movw	r20, r28
    110a:	0e 94 9d 08 	call	0x113a	; 0x113a <dtoa_prf>
    110e:	ce 01       	movw	r24, r28
    1110:	df 91       	pop	r29
    1112:	cf 91       	pop	r28
    1114:	1f 91       	pop	r17
    1116:	0f 91       	pop	r16
    1118:	ef 90       	pop	r14
    111a:	08 95       	ret

0000111c <atof>:
    111c:	66 27       	eor	r22, r22
    111e:	77 27       	eor	r23, r23
    1120:	0c 94 f7 09 	jmp	0x13ee	; 0x13ee <strtod>

00001124 <strcat>:
    1124:	fb 01       	movw	r30, r22
    1126:	dc 01       	movw	r26, r24
    1128:	0d 90       	ld	r0, X+
    112a:	00 20       	and	r0, r0
    112c:	e9 f7       	brne	.-6      	; 0x1128 <strcat+0x4>
    112e:	11 97       	sbiw	r26, 0x01	; 1
    1130:	01 90       	ld	r0, Z+
    1132:	0d 92       	st	X+, r0
    1134:	00 20       	and	r0, r0
    1136:	e1 f7       	brne	.-8      	; 0x1130 <strcat+0xc>
    1138:	08 95       	ret

0000113a <dtoa_prf>:
    113a:	a9 e0       	ldi	r26, 0x09	; 9
    113c:	b0 e0       	ldi	r27, 0x00	; 0
    113e:	e3 ea       	ldi	r30, 0xA3	; 163
    1140:	f8 e0       	ldi	r31, 0x08	; 8
    1142:	0c 94 52 0c 	jmp	0x18a4	; 0x18a4 <__prologue_saves__+0xc>
    1146:	6a 01       	movw	r12, r20
    1148:	12 2f       	mov	r17, r18
    114a:	b0 2e       	mov	r11, r16
    114c:	2b e3       	ldi	r18, 0x3B	; 59
    114e:	20 17       	cp	r18, r16
    1150:	20 f0       	brcs	.+8      	; 0x115a <dtoa_prf+0x20>
    1152:	ff 24       	eor	r15, r15
    1154:	f3 94       	inc	r15
    1156:	f0 0e       	add	r15, r16
    1158:	02 c0       	rjmp	.+4      	; 0x115e <dtoa_prf+0x24>
    115a:	2c e3       	ldi	r18, 0x3C	; 60
    115c:	f2 2e       	mov	r15, r18
    115e:	0f 2d       	mov	r16, r15
    1160:	27 e0       	ldi	r18, 0x07	; 7
    1162:	ae 01       	movw	r20, r28
    1164:	4f 5f       	subi	r20, 0xFF	; 255
    1166:	5f 4f       	sbci	r21, 0xFF	; 255
    1168:	0e 94 45 0b 	call	0x168a	; 0x168a <__ftoa_engine>
    116c:	bc 01       	movw	r22, r24
    116e:	49 81       	ldd	r20, Y+1	; 0x01
    1170:	84 2f       	mov	r24, r20
    1172:	89 70       	andi	r24, 0x09	; 9
    1174:	81 30       	cpi	r24, 0x01	; 1
    1176:	31 f0       	breq	.+12     	; 0x1184 <dtoa_prf+0x4a>
    1178:	e1 fc       	sbrc	r14, 1
    117a:	06 c0       	rjmp	.+12     	; 0x1188 <dtoa_prf+0x4e>
    117c:	e0 fe       	sbrs	r14, 0
    117e:	06 c0       	rjmp	.+12     	; 0x118c <dtoa_prf+0x52>
    1180:	90 e2       	ldi	r25, 0x20	; 32
    1182:	05 c0       	rjmp	.+10     	; 0x118e <dtoa_prf+0x54>
    1184:	9d e2       	ldi	r25, 0x2D	; 45
    1186:	03 c0       	rjmp	.+6      	; 0x118e <dtoa_prf+0x54>
    1188:	9b e2       	ldi	r25, 0x2B	; 43
    118a:	01 c0       	rjmp	.+2      	; 0x118e <dtoa_prf+0x54>
    118c:	90 e0       	ldi	r25, 0x00	; 0
    118e:	5e 2d       	mov	r21, r14
    1190:	50 71       	andi	r21, 0x10	; 16
    1192:	43 ff       	sbrs	r20, 3
    1194:	3c c0       	rjmp	.+120    	; 0x120e <dtoa_prf+0xd4>
    1196:	91 11       	cpse	r25, r1
    1198:	02 c0       	rjmp	.+4      	; 0x119e <dtoa_prf+0x64>
    119a:	83 e0       	ldi	r24, 0x03	; 3
    119c:	01 c0       	rjmp	.+2      	; 0x11a0 <dtoa_prf+0x66>
    119e:	84 e0       	ldi	r24, 0x04	; 4
    11a0:	81 17       	cp	r24, r17
    11a2:	18 f4       	brcc	.+6      	; 0x11aa <dtoa_prf+0x70>
    11a4:	21 2f       	mov	r18, r17
    11a6:	28 1b       	sub	r18, r24
    11a8:	01 c0       	rjmp	.+2      	; 0x11ac <dtoa_prf+0x72>
    11aa:	20 e0       	ldi	r18, 0x00	; 0
    11ac:	51 11       	cpse	r21, r1
    11ae:	0b c0       	rjmp	.+22     	; 0x11c6 <dtoa_prf+0x8c>
    11b0:	f6 01       	movw	r30, r12
    11b2:	82 2f       	mov	r24, r18
    11b4:	30 e2       	ldi	r19, 0x20	; 32
    11b6:	88 23       	and	r24, r24
    11b8:	19 f0       	breq	.+6      	; 0x11c0 <dtoa_prf+0x86>
    11ba:	31 93       	st	Z+, r19
    11bc:	81 50       	subi	r24, 0x01	; 1
    11be:	fb cf       	rjmp	.-10     	; 0x11b6 <dtoa_prf+0x7c>
    11c0:	c2 0e       	add	r12, r18
    11c2:	d1 1c       	adc	r13, r1
    11c4:	20 e0       	ldi	r18, 0x00	; 0
    11c6:	99 23       	and	r25, r25
    11c8:	29 f0       	breq	.+10     	; 0x11d4 <dtoa_prf+0x9a>
    11ca:	d6 01       	movw	r26, r12
    11cc:	9c 93       	st	X, r25
    11ce:	f6 01       	movw	r30, r12
    11d0:	31 96       	adiw	r30, 0x01	; 1
    11d2:	6f 01       	movw	r12, r30
    11d4:	c6 01       	movw	r24, r12
    11d6:	03 96       	adiw	r24, 0x03	; 3
    11d8:	e2 fe       	sbrs	r14, 2
    11da:	0a c0       	rjmp	.+20     	; 0x11f0 <dtoa_prf+0xb6>
    11dc:	3e e4       	ldi	r19, 0x4E	; 78
    11de:	d6 01       	movw	r26, r12
    11e0:	3c 93       	st	X, r19
    11e2:	41 e4       	ldi	r20, 0x41	; 65
    11e4:	11 96       	adiw	r26, 0x01	; 1
    11e6:	4c 93       	st	X, r20
    11e8:	11 97       	sbiw	r26, 0x01	; 1
    11ea:	12 96       	adiw	r26, 0x02	; 2
    11ec:	3c 93       	st	X, r19
    11ee:	06 c0       	rjmp	.+12     	; 0x11fc <dtoa_prf+0xc2>
    11f0:	3e e6       	ldi	r19, 0x6E	; 110
    11f2:	f6 01       	movw	r30, r12
    11f4:	30 83       	st	Z, r19
    11f6:	41 e6       	ldi	r20, 0x61	; 97
    11f8:	41 83       	std	Z+1, r20	; 0x01
    11fa:	32 83       	std	Z+2, r19	; 0x02
    11fc:	fc 01       	movw	r30, r24
    11fe:	32 2f       	mov	r19, r18
    1200:	40 e2       	ldi	r20, 0x20	; 32
    1202:	33 23       	and	r19, r19
    1204:	09 f4       	brne	.+2      	; 0x1208 <dtoa_prf+0xce>
    1206:	42 c0       	rjmp	.+132    	; 0x128c <dtoa_prf+0x152>
    1208:	41 93       	st	Z+, r20
    120a:	31 50       	subi	r19, 0x01	; 1
    120c:	fa cf       	rjmp	.-12     	; 0x1202 <dtoa_prf+0xc8>
    120e:	42 ff       	sbrs	r20, 2
    1210:	44 c0       	rjmp	.+136    	; 0x129a <dtoa_prf+0x160>
    1212:	91 11       	cpse	r25, r1
    1214:	02 c0       	rjmp	.+4      	; 0x121a <dtoa_prf+0xe0>
    1216:	83 e0       	ldi	r24, 0x03	; 3
    1218:	01 c0       	rjmp	.+2      	; 0x121c <dtoa_prf+0xe2>
    121a:	84 e0       	ldi	r24, 0x04	; 4
    121c:	81 17       	cp	r24, r17
    121e:	18 f4       	brcc	.+6      	; 0x1226 <dtoa_prf+0xec>
    1220:	21 2f       	mov	r18, r17
    1222:	28 1b       	sub	r18, r24
    1224:	01 c0       	rjmp	.+2      	; 0x1228 <dtoa_prf+0xee>
    1226:	20 e0       	ldi	r18, 0x00	; 0
    1228:	51 11       	cpse	r21, r1
    122a:	0b c0       	rjmp	.+22     	; 0x1242 <dtoa_prf+0x108>
    122c:	f6 01       	movw	r30, r12
    122e:	82 2f       	mov	r24, r18
    1230:	30 e2       	ldi	r19, 0x20	; 32
    1232:	88 23       	and	r24, r24
    1234:	19 f0       	breq	.+6      	; 0x123c <dtoa_prf+0x102>
    1236:	31 93       	st	Z+, r19
    1238:	81 50       	subi	r24, 0x01	; 1
    123a:	fb cf       	rjmp	.-10     	; 0x1232 <dtoa_prf+0xf8>
    123c:	c2 0e       	add	r12, r18
    123e:	d1 1c       	adc	r13, r1
    1240:	20 e0       	ldi	r18, 0x00	; 0
    1242:	99 23       	and	r25, r25
    1244:	29 f0       	breq	.+10     	; 0x1250 <dtoa_prf+0x116>
    1246:	d6 01       	movw	r26, r12
    1248:	9c 93       	st	X, r25
    124a:	f6 01       	movw	r30, r12
    124c:	31 96       	adiw	r30, 0x01	; 1
    124e:	6f 01       	movw	r12, r30
    1250:	c6 01       	movw	r24, r12
    1252:	03 96       	adiw	r24, 0x03	; 3
    1254:	e2 fe       	sbrs	r14, 2
    1256:	0b c0       	rjmp	.+22     	; 0x126e <dtoa_prf+0x134>
    1258:	39 e4       	ldi	r19, 0x49	; 73
    125a:	d6 01       	movw	r26, r12
    125c:	3c 93       	st	X, r19
    125e:	3e e4       	ldi	r19, 0x4E	; 78
    1260:	11 96       	adiw	r26, 0x01	; 1
    1262:	3c 93       	st	X, r19
    1264:	11 97       	sbiw	r26, 0x01	; 1
    1266:	36 e4       	ldi	r19, 0x46	; 70
    1268:	12 96       	adiw	r26, 0x02	; 2
    126a:	3c 93       	st	X, r19
    126c:	07 c0       	rjmp	.+14     	; 0x127c <dtoa_prf+0x142>
    126e:	39 e6       	ldi	r19, 0x69	; 105
    1270:	f6 01       	movw	r30, r12
    1272:	30 83       	st	Z, r19
    1274:	3e e6       	ldi	r19, 0x6E	; 110
    1276:	31 83       	std	Z+1, r19	; 0x01
    1278:	36 e6       	ldi	r19, 0x66	; 102
    127a:	32 83       	std	Z+2, r19	; 0x02
    127c:	fc 01       	movw	r30, r24
    127e:	32 2f       	mov	r19, r18
    1280:	40 e2       	ldi	r20, 0x20	; 32
    1282:	33 23       	and	r19, r19
    1284:	19 f0       	breq	.+6      	; 0x128c <dtoa_prf+0x152>
    1286:	41 93       	st	Z+, r20
    1288:	31 50       	subi	r19, 0x01	; 1
    128a:	fb cf       	rjmp	.-10     	; 0x1282 <dtoa_prf+0x148>
    128c:	fc 01       	movw	r30, r24
    128e:	e2 0f       	add	r30, r18
    1290:	f1 1d       	adc	r31, r1
    1292:	10 82       	st	Z, r1
    1294:	8e ef       	ldi	r24, 0xFE	; 254
    1296:	9f ef       	ldi	r25, 0xFF	; 255
    1298:	a6 c0       	rjmp	.+332    	; 0x13e6 <dtoa_prf+0x2ac>
    129a:	21 e0       	ldi	r18, 0x01	; 1
    129c:	30 e0       	ldi	r19, 0x00	; 0
    129e:	91 11       	cpse	r25, r1
    12a0:	02 c0       	rjmp	.+4      	; 0x12a6 <dtoa_prf+0x16c>
    12a2:	20 e0       	ldi	r18, 0x00	; 0
    12a4:	30 e0       	ldi	r19, 0x00	; 0
    12a6:	16 16       	cp	r1, r22
    12a8:	17 06       	cpc	r1, r23
    12aa:	1c f4       	brge	.+6      	; 0x12b2 <dtoa_prf+0x178>
    12ac:	fb 01       	movw	r30, r22
    12ae:	31 96       	adiw	r30, 0x01	; 1
    12b0:	02 c0       	rjmp	.+4      	; 0x12b6 <dtoa_prf+0x17c>
    12b2:	e1 e0       	ldi	r30, 0x01	; 1
    12b4:	f0 e0       	ldi	r31, 0x00	; 0
    12b6:	2e 0f       	add	r18, r30
    12b8:	3f 1f       	adc	r19, r31
    12ba:	bb 20       	and	r11, r11
    12bc:	21 f0       	breq	.+8      	; 0x12c6 <dtoa_prf+0x18c>
    12be:	eb 2d       	mov	r30, r11
    12c0:	f0 e0       	ldi	r31, 0x00	; 0
    12c2:	31 96       	adiw	r30, 0x01	; 1
    12c4:	02 c0       	rjmp	.+4      	; 0x12ca <dtoa_prf+0x190>
    12c6:	e0 e0       	ldi	r30, 0x00	; 0
    12c8:	f0 e0       	ldi	r31, 0x00	; 0
    12ca:	2e 0f       	add	r18, r30
    12cc:	3f 1f       	adc	r19, r31
    12ce:	e1 2f       	mov	r30, r17
    12d0:	f0 e0       	ldi	r31, 0x00	; 0
    12d2:	2e 17       	cp	r18, r30
    12d4:	3f 07       	cpc	r19, r31
    12d6:	1c f4       	brge	.+6      	; 0x12de <dtoa_prf+0x1a4>
    12d8:	12 1b       	sub	r17, r18
    12da:	21 2f       	mov	r18, r17
    12dc:	01 c0       	rjmp	.+2      	; 0x12e0 <dtoa_prf+0x1a6>
    12de:	20 e0       	ldi	r18, 0x00	; 0
    12e0:	8e 2d       	mov	r24, r14
    12e2:	88 71       	andi	r24, 0x18	; 24
    12e4:	59 f4       	brne	.+22     	; 0x12fc <dtoa_prf+0x1c2>
    12e6:	f6 01       	movw	r30, r12
    12e8:	82 2f       	mov	r24, r18
    12ea:	30 e2       	ldi	r19, 0x20	; 32
    12ec:	88 23       	and	r24, r24
    12ee:	19 f0       	breq	.+6      	; 0x12f6 <dtoa_prf+0x1bc>
    12f0:	31 93       	st	Z+, r19
    12f2:	81 50       	subi	r24, 0x01	; 1
    12f4:	fb cf       	rjmp	.-10     	; 0x12ec <dtoa_prf+0x1b2>
    12f6:	c2 0e       	add	r12, r18
    12f8:	d1 1c       	adc	r13, r1
    12fa:	20 e0       	ldi	r18, 0x00	; 0
    12fc:	99 23       	and	r25, r25
    12fe:	29 f0       	breq	.+10     	; 0x130a <dtoa_prf+0x1d0>
    1300:	d6 01       	movw	r26, r12
    1302:	9c 93       	st	X, r25
    1304:	f6 01       	movw	r30, r12
    1306:	31 96       	adiw	r30, 0x01	; 1
    1308:	6f 01       	movw	r12, r30
    130a:	51 11       	cpse	r21, r1
    130c:	0b c0       	rjmp	.+22     	; 0x1324 <dtoa_prf+0x1ea>
    130e:	f6 01       	movw	r30, r12
    1310:	82 2f       	mov	r24, r18
    1312:	90 e3       	ldi	r25, 0x30	; 48
    1314:	88 23       	and	r24, r24
    1316:	19 f0       	breq	.+6      	; 0x131e <dtoa_prf+0x1e4>
    1318:	91 93       	st	Z+, r25
    131a:	81 50       	subi	r24, 0x01	; 1
    131c:	fb cf       	rjmp	.-10     	; 0x1314 <dtoa_prf+0x1da>
    131e:	c2 0e       	add	r12, r18
    1320:	d1 1c       	adc	r13, r1
    1322:	20 e0       	ldi	r18, 0x00	; 0
    1324:	0f 2d       	mov	r16, r15
    1326:	06 0f       	add	r16, r22
    1328:	9a 81       	ldd	r25, Y+2	; 0x02
    132a:	34 2f       	mov	r19, r20
    132c:	30 71       	andi	r19, 0x10	; 16
    132e:	44 ff       	sbrs	r20, 4
    1330:	03 c0       	rjmp	.+6      	; 0x1338 <dtoa_prf+0x1fe>
    1332:	91 33       	cpi	r25, 0x31	; 49
    1334:	09 f4       	brne	.+2      	; 0x1338 <dtoa_prf+0x1fe>
    1336:	01 50       	subi	r16, 0x01	; 1
    1338:	10 16       	cp	r1, r16
    133a:	24 f4       	brge	.+8      	; 0x1344 <dtoa_prf+0x20a>
    133c:	09 30       	cpi	r16, 0x09	; 9
    133e:	18 f0       	brcs	.+6      	; 0x1346 <dtoa_prf+0x20c>
    1340:	08 e0       	ldi	r16, 0x08	; 8
    1342:	01 c0       	rjmp	.+2      	; 0x1346 <dtoa_prf+0x20c>
    1344:	01 e0       	ldi	r16, 0x01	; 1
    1346:	ab 01       	movw	r20, r22
    1348:	77 ff       	sbrs	r23, 7
    134a:	02 c0       	rjmp	.+4      	; 0x1350 <dtoa_prf+0x216>
    134c:	40 e0       	ldi	r20, 0x00	; 0
    134e:	50 e0       	ldi	r21, 0x00	; 0
    1350:	fb 01       	movw	r30, r22
    1352:	e4 1b       	sub	r30, r20
    1354:	f5 0b       	sbc	r31, r21
    1356:	a1 e0       	ldi	r26, 0x01	; 1
    1358:	b0 e0       	ldi	r27, 0x00	; 0
    135a:	ac 0f       	add	r26, r28
    135c:	bd 1f       	adc	r27, r29
    135e:	ea 0f       	add	r30, r26
    1360:	fb 1f       	adc	r31, r27
    1362:	8e e2       	ldi	r24, 0x2E	; 46
    1364:	a8 2e       	mov	r10, r24
    1366:	4b 01       	movw	r8, r22
    1368:	80 1a       	sub	r8, r16
    136a:	91 08       	sbc	r9, r1
    136c:	0b 2d       	mov	r16, r11
    136e:	10 e0       	ldi	r17, 0x00	; 0
    1370:	11 95       	neg	r17
    1372:	01 95       	neg	r16
    1374:	11 09       	sbc	r17, r1
    1376:	4f 3f       	cpi	r20, 0xFF	; 255
    1378:	bf ef       	ldi	r27, 0xFF	; 255
    137a:	5b 07       	cpc	r21, r27
    137c:	21 f4       	brne	.+8      	; 0x1386 <dtoa_prf+0x24c>
    137e:	d6 01       	movw	r26, r12
    1380:	ac 92       	st	X, r10
    1382:	11 96       	adiw	r26, 0x01	; 1
    1384:	6d 01       	movw	r12, r26
    1386:	64 17       	cp	r22, r20
    1388:	75 07       	cpc	r23, r21
    138a:	2c f0       	brlt	.+10     	; 0x1396 <dtoa_prf+0x25c>
    138c:	84 16       	cp	r8, r20
    138e:	95 06       	cpc	r9, r21
    1390:	14 f4       	brge	.+4      	; 0x1396 <dtoa_prf+0x25c>
    1392:	81 81       	ldd	r24, Z+1	; 0x01
    1394:	01 c0       	rjmp	.+2      	; 0x1398 <dtoa_prf+0x25e>
    1396:	80 e3       	ldi	r24, 0x30	; 48
    1398:	41 50       	subi	r20, 0x01	; 1
    139a:	51 09       	sbc	r21, r1
    139c:	31 96       	adiw	r30, 0x01	; 1
    139e:	d6 01       	movw	r26, r12
    13a0:	11 96       	adiw	r26, 0x01	; 1
    13a2:	7d 01       	movw	r14, r26
    13a4:	40 17       	cp	r20, r16
    13a6:	51 07       	cpc	r21, r17
    13a8:	24 f0       	brlt	.+8      	; 0x13b2 <dtoa_prf+0x278>
    13aa:	d6 01       	movw	r26, r12
    13ac:	8c 93       	st	X, r24
    13ae:	67 01       	movw	r12, r14
    13b0:	e2 cf       	rjmp	.-60     	; 0x1376 <dtoa_prf+0x23c>
    13b2:	64 17       	cp	r22, r20
    13b4:	75 07       	cpc	r23, r21
    13b6:	39 f4       	brne	.+14     	; 0x13c6 <dtoa_prf+0x28c>
    13b8:	96 33       	cpi	r25, 0x36	; 54
    13ba:	20 f4       	brcc	.+8      	; 0x13c4 <dtoa_prf+0x28a>
    13bc:	95 33       	cpi	r25, 0x35	; 53
    13be:	19 f4       	brne	.+6      	; 0x13c6 <dtoa_prf+0x28c>
    13c0:	31 11       	cpse	r19, r1
    13c2:	01 c0       	rjmp	.+2      	; 0x13c6 <dtoa_prf+0x28c>
    13c4:	81 e3       	ldi	r24, 0x31	; 49
    13c6:	f6 01       	movw	r30, r12
    13c8:	80 83       	st	Z, r24
    13ca:	f7 01       	movw	r30, r14
    13cc:	82 2f       	mov	r24, r18
    13ce:	90 e2       	ldi	r25, 0x20	; 32
    13d0:	88 23       	and	r24, r24
    13d2:	19 f0       	breq	.+6      	; 0x13da <dtoa_prf+0x2a0>
    13d4:	91 93       	st	Z+, r25
    13d6:	81 50       	subi	r24, 0x01	; 1
    13d8:	fb cf       	rjmp	.-10     	; 0x13d0 <dtoa_prf+0x296>
    13da:	f7 01       	movw	r30, r14
    13dc:	e2 0f       	add	r30, r18
    13de:	f1 1d       	adc	r31, r1
    13e0:	10 82       	st	Z, r1
    13e2:	80 e0       	ldi	r24, 0x00	; 0
    13e4:	90 e0       	ldi	r25, 0x00	; 0
    13e6:	29 96       	adiw	r28, 0x09	; 9
    13e8:	ec e0       	ldi	r30, 0x0C	; 12
    13ea:	0c 94 6e 0c 	jmp	0x18dc	; 0x18dc <__epilogue_restores__+0xc>

000013ee <strtod>:
    13ee:	a0 e0       	ldi	r26, 0x00	; 0
    13f0:	b0 e0       	ldi	r27, 0x00	; 0
    13f2:	ed ef       	ldi	r30, 0xFD	; 253
    13f4:	f9 e0       	ldi	r31, 0x09	; 9
    13f6:	0c 94 52 0c 	jmp	0x18a4	; 0x18a4 <__prologue_saves__+0xc>
    13fa:	ec 01       	movw	r28, r24
    13fc:	6b 01       	movw	r12, r22
    13fe:	61 15       	cp	r22, r1
    1400:	71 05       	cpc	r23, r1
    1402:	19 f0       	breq	.+6      	; 0x140a <strtod+0x1c>
    1404:	fb 01       	movw	r30, r22
    1406:	91 83       	std	Z+1, r25	; 0x01
    1408:	80 83       	st	Z, r24
    140a:	7e 01       	movw	r14, r28
    140c:	ff ef       	ldi	r31, 0xFF	; 255
    140e:	ef 1a       	sub	r14, r31
    1410:	ff 0a       	sbc	r15, r31
    1412:	08 81       	ld	r16, Y
    1414:	80 2f       	mov	r24, r16
    1416:	90 e0       	ldi	r25, 0x00	; 0
    1418:	0e 94 1d 0c 	call	0x183a	; 0x183a <isspace>
    141c:	89 2b       	or	r24, r25
    141e:	11 f0       	breq	.+4      	; 0x1424 <strtod+0x36>
    1420:	e7 01       	movw	r28, r14
    1422:	f3 cf       	rjmp	.-26     	; 0x140a <strtod+0x1c>
    1424:	0d 32       	cpi	r16, 0x2D	; 45
    1426:	39 f4       	brne	.+14     	; 0x1436 <strtod+0x48>
    1428:	7e 01       	movw	r14, r28
    142a:	82 e0       	ldi	r24, 0x02	; 2
    142c:	e8 0e       	add	r14, r24
    142e:	f1 1c       	adc	r15, r1
    1430:	09 81       	ldd	r16, Y+1	; 0x01
    1432:	11 e0       	ldi	r17, 0x01	; 1
    1434:	08 c0       	rjmp	.+16     	; 0x1446 <strtod+0x58>
    1436:	0b 32       	cpi	r16, 0x2B	; 43
    1438:	29 f4       	brne	.+10     	; 0x1444 <strtod+0x56>
    143a:	7e 01       	movw	r14, r28
    143c:	92 e0       	ldi	r25, 0x02	; 2
    143e:	e9 0e       	add	r14, r25
    1440:	f1 1c       	adc	r15, r1
    1442:	09 81       	ldd	r16, Y+1	; 0x01
    1444:	10 e0       	ldi	r17, 0x00	; 0
    1446:	e7 01       	movw	r28, r14
    1448:	21 97       	sbiw	r28, 0x01	; 1
    144a:	43 e0       	ldi	r20, 0x03	; 3
    144c:	50 e0       	ldi	r21, 0x00	; 0
    144e:	6c e5       	ldi	r22, 0x5C	; 92
    1450:	70 e0       	ldi	r23, 0x00	; 0
    1452:	ce 01       	movw	r24, r28
    1454:	0e 94 26 0c 	call	0x184c	; 0x184c <strncasecmp_P>
    1458:	89 2b       	or	r24, r25
    145a:	c1 f4       	brne	.+48     	; 0x148c <strtod+0x9e>
    145c:	23 96       	adiw	r28, 0x03	; 3
    145e:	45 e0       	ldi	r20, 0x05	; 5
    1460:	50 e0       	ldi	r21, 0x00	; 0
    1462:	67 e5       	ldi	r22, 0x57	; 87
    1464:	70 e0       	ldi	r23, 0x00	; 0
    1466:	ce 01       	movw	r24, r28
    1468:	0e 94 26 0c 	call	0x184c	; 0x184c <strncasecmp_P>
    146c:	89 2b       	or	r24, r25
    146e:	09 f4       	brne	.+2      	; 0x1472 <strtod+0x84>
    1470:	25 96       	adiw	r28, 0x05	; 5
    1472:	c1 14       	cp	r12, r1
    1474:	d1 04       	cpc	r13, r1
    1476:	19 f0       	breq	.+6      	; 0x147e <strtod+0x90>
    1478:	f6 01       	movw	r30, r12
    147a:	d1 83       	std	Z+1, r29	; 0x01
    147c:	c0 83       	st	Z, r28
    147e:	11 11       	cpse	r17, r1
    1480:	f6 c0       	rjmp	.+492    	; 0x166e <strtod+0x280>
    1482:	60 e0       	ldi	r22, 0x00	; 0
    1484:	70 e0       	ldi	r23, 0x00	; 0
    1486:	80 e8       	ldi	r24, 0x80	; 128
    1488:	9f e7       	ldi	r25, 0x7F	; 127
    148a:	fa c0       	rjmp	.+500    	; 0x1680 <strtod+0x292>
    148c:	43 e0       	ldi	r20, 0x03	; 3
    148e:	50 e0       	ldi	r21, 0x00	; 0
    1490:	64 e5       	ldi	r22, 0x54	; 84
    1492:	70 e0       	ldi	r23, 0x00	; 0
    1494:	ce 01       	movw	r24, r28
    1496:	0e 94 26 0c 	call	0x184c	; 0x184c <strncasecmp_P>
    149a:	89 2b       	or	r24, r25
    149c:	59 f4       	brne	.+22     	; 0x14b4 <strtod+0xc6>
    149e:	c1 14       	cp	r12, r1
    14a0:	d1 04       	cpc	r13, r1
    14a2:	09 f4       	brne	.+2      	; 0x14a6 <strtod+0xb8>
    14a4:	e9 c0       	rjmp	.+466    	; 0x1678 <strtod+0x28a>
    14a6:	f2 e0       	ldi	r31, 0x02	; 2
    14a8:	ef 0e       	add	r14, r31
    14aa:	f1 1c       	adc	r15, r1
    14ac:	f6 01       	movw	r30, r12
    14ae:	f1 82       	std	Z+1, r15	; 0x01
    14b0:	e0 82       	st	Z, r14
    14b2:	e2 c0       	rjmp	.+452    	; 0x1678 <strtod+0x28a>
    14b4:	20 e0       	ldi	r18, 0x00	; 0
    14b6:	30 e0       	ldi	r19, 0x00	; 0
    14b8:	a9 01       	movw	r20, r18
    14ba:	c0 e0       	ldi	r28, 0x00	; 0
    14bc:	d0 e0       	ldi	r29, 0x00	; 0
    14be:	f7 01       	movw	r30, r14
    14c0:	80 ed       	ldi	r24, 0xD0	; 208
    14c2:	a8 2e       	mov	r10, r24
    14c4:	a0 0e       	add	r10, r16
    14c6:	89 e0       	ldi	r24, 0x09	; 9
    14c8:	8a 15       	cp	r24, r10
    14ca:	30 f1       	brcs	.+76     	; 0x1518 <strtod+0x12a>
    14cc:	91 2f       	mov	r25, r17
    14ce:	92 60       	ori	r25, 0x02	; 2
    14d0:	b9 2e       	mov	r11, r25
    14d2:	81 2f       	mov	r24, r17
    14d4:	88 70       	andi	r24, 0x08	; 8
    14d6:	12 ff       	sbrs	r17, 2
    14d8:	04 c0       	rjmp	.+8      	; 0x14e2 <strtod+0xf4>
    14da:	81 11       	cpse	r24, r1
    14dc:	24 c0       	rjmp	.+72     	; 0x1526 <strtod+0x138>
    14de:	21 96       	adiw	r28, 0x01	; 1
    14e0:	22 c0       	rjmp	.+68     	; 0x1526 <strtod+0x138>
    14e2:	81 11       	cpse	r24, r1
    14e4:	21 97       	sbiw	r28, 0x01	; 1
    14e6:	a5 e0       	ldi	r26, 0x05	; 5
    14e8:	b0 e0       	ldi	r27, 0x00	; 0
    14ea:	0e 94 41 0c 	call	0x1882	; 0x1882 <__muluhisi3>
    14ee:	dc 01       	movw	r26, r24
    14f0:	cb 01       	movw	r24, r22
    14f2:	88 0f       	add	r24, r24
    14f4:	99 1f       	adc	r25, r25
    14f6:	aa 1f       	adc	r26, r26
    14f8:	bb 1f       	adc	r27, r27
    14fa:	9c 01       	movw	r18, r24
    14fc:	ad 01       	movw	r20, r26
    14fe:	2a 0d       	add	r18, r10
    1500:	31 1d       	adc	r19, r1
    1502:	41 1d       	adc	r20, r1
    1504:	51 1d       	adc	r21, r1
    1506:	28 39       	cpi	r18, 0x98	; 152
    1508:	89 e9       	ldi	r24, 0x99	; 153
    150a:	38 07       	cpc	r19, r24
    150c:	48 07       	cpc	r20, r24
    150e:	89 e1       	ldi	r24, 0x19	; 25
    1510:	58 07       	cpc	r21, r24
    1512:	48 f0       	brcs	.+18     	; 0x1526 <strtod+0x138>
    1514:	16 60       	ori	r17, 0x06	; 6
    1516:	06 c0       	rjmp	.+12     	; 0x1524 <strtod+0x136>
    1518:	9e ef       	ldi	r25, 0xFE	; 254
    151a:	a9 12       	cpse	r10, r25
    151c:	0a c0       	rjmp	.+20     	; 0x1532 <strtod+0x144>
    151e:	13 fd       	sbrc	r17, 3
    1520:	40 c0       	rjmp	.+128    	; 0x15a2 <strtod+0x1b4>
    1522:	18 60       	ori	r17, 0x08	; 8
    1524:	b1 2e       	mov	r11, r17
    1526:	8f ef       	ldi	r24, 0xFF	; 255
    1528:	e8 1a       	sub	r14, r24
    152a:	f8 0a       	sbc	r15, r24
    152c:	00 81       	ld	r16, Z
    152e:	1b 2d       	mov	r17, r11
    1530:	c6 cf       	rjmp	.-116    	; 0x14be <strtod+0xd0>
    1532:	80 2f       	mov	r24, r16
    1534:	8f 7d       	andi	r24, 0xDF	; 223
    1536:	85 34       	cpi	r24, 0x45	; 69
    1538:	a1 f5       	brne	.+104    	; 0x15a2 <strtod+0x1b4>
    153a:	80 81       	ld	r24, Z
    153c:	8d 32       	cpi	r24, 0x2D	; 45
    153e:	11 f4       	brne	.+4      	; 0x1544 <strtod+0x156>
    1540:	10 61       	ori	r17, 0x10	; 16
    1542:	06 c0       	rjmp	.+12     	; 0x1550 <strtod+0x162>
    1544:	8b 32       	cpi	r24, 0x2B	; 43
    1546:	21 f0       	breq	.+8      	; 0x1550 <strtod+0x162>
    1548:	31 96       	adiw	r30, 0x01	; 1
    154a:	61 e0       	ldi	r22, 0x01	; 1
    154c:	70 e0       	ldi	r23, 0x00	; 0
    154e:	04 c0       	rjmp	.+8      	; 0x1558 <strtod+0x16a>
    1550:	81 81       	ldd	r24, Z+1	; 0x01
    1552:	32 96       	adiw	r30, 0x02	; 2
    1554:	62 e0       	ldi	r22, 0x02	; 2
    1556:	70 e0       	ldi	r23, 0x00	; 0
    1558:	80 53       	subi	r24, 0x30	; 48
    155a:	8a 30       	cpi	r24, 0x0A	; 10
    155c:	18 f0       	brcs	.+6      	; 0x1564 <strtod+0x176>
    155e:	e6 1b       	sub	r30, r22
    1560:	f7 0b       	sbc	r31, r23
    1562:	1f c0       	rjmp	.+62     	; 0x15a2 <strtod+0x1b4>
    1564:	60 e0       	ldi	r22, 0x00	; 0
    1566:	70 e0       	ldi	r23, 0x00	; 0
    1568:	60 38       	cpi	r22, 0x80	; 128
    156a:	9c e0       	ldi	r25, 0x0C	; 12
    156c:	79 07       	cpc	r23, r25
    156e:	5c f4       	brge	.+22     	; 0x1586 <strtod+0x198>
    1570:	db 01       	movw	r26, r22
    1572:	aa 0f       	add	r26, r26
    1574:	bb 1f       	adc	r27, r27
    1576:	aa 0f       	add	r26, r26
    1578:	bb 1f       	adc	r27, r27
    157a:	6a 0f       	add	r22, r26
    157c:	7b 1f       	adc	r23, r27
    157e:	66 0f       	add	r22, r22
    1580:	77 1f       	adc	r23, r23
    1582:	68 0f       	add	r22, r24
    1584:	71 1d       	adc	r23, r1
    1586:	31 96       	adiw	r30, 0x01	; 1
    1588:	df 01       	movw	r26, r30
    158a:	11 97       	sbiw	r26, 0x01	; 1
    158c:	8c 91       	ld	r24, X
    158e:	80 53       	subi	r24, 0x30	; 48
    1590:	8a 30       	cpi	r24, 0x0A	; 10
    1592:	50 f3       	brcs	.-44     	; 0x1568 <strtod+0x17a>
    1594:	14 ff       	sbrs	r17, 4
    1596:	03 c0       	rjmp	.+6      	; 0x159e <strtod+0x1b0>
    1598:	71 95       	neg	r23
    159a:	61 95       	neg	r22
    159c:	71 09       	sbc	r23, r1
    159e:	c6 0f       	add	r28, r22
    15a0:	d7 1f       	adc	r29, r23
    15a2:	11 ff       	sbrs	r17, 1
    15a4:	08 c0       	rjmp	.+16     	; 0x15b6 <strtod+0x1c8>
    15a6:	c1 14       	cp	r12, r1
    15a8:	d1 04       	cpc	r13, r1
    15aa:	29 f0       	breq	.+10     	; 0x15b6 <strtod+0x1c8>
    15ac:	cf 01       	movw	r24, r30
    15ae:	01 97       	sbiw	r24, 0x01	; 1
    15b0:	f6 01       	movw	r30, r12
    15b2:	91 83       	std	Z+1, r25	; 0x01
    15b4:	80 83       	st	Z, r24
    15b6:	ca 01       	movw	r24, r20
    15b8:	b9 01       	movw	r22, r18
    15ba:	0e 94 2d 07 	call	0xe5a	; 0xe5a <__floatunsisf>
    15be:	21 2f       	mov	r18, r17
    15c0:	23 70       	andi	r18, 0x03	; 3
    15c2:	23 30       	cpi	r18, 0x03	; 3
    15c4:	19 f0       	breq	.+6      	; 0x15cc <strtod+0x1de>
    15c6:	4b 01       	movw	r8, r22
    15c8:	5c 01       	movw	r10, r24
    15ca:	06 c0       	rjmp	.+12     	; 0x15d8 <strtod+0x1ea>
    15cc:	4b 01       	movw	r8, r22
    15ce:	5c 01       	movw	r10, r24
    15d0:	b7 fa       	bst	r11, 7
    15d2:	b0 94       	com	r11
    15d4:	b7 f8       	bld	r11, 7
    15d6:	b0 94       	com	r11
    15d8:	20 e0       	ldi	r18, 0x00	; 0
    15da:	30 e0       	ldi	r19, 0x00	; 0
    15dc:	a9 01       	movw	r20, r18
    15de:	c5 01       	movw	r24, r10
    15e0:	b4 01       	movw	r22, r8
    15e2:	0e 94 80 06 	call	0xd00	; 0xd00 <__cmpsf2>
    15e6:	88 23       	and	r24, r24
    15e8:	09 f4       	brne	.+2      	; 0x15ec <strtod+0x1fe>
    15ea:	3e c0       	rjmp	.+124    	; 0x1668 <strtod+0x27a>
    15ec:	d7 ff       	sbrs	r29, 7
    15ee:	06 c0       	rjmp	.+12     	; 0x15fc <strtod+0x20e>
    15f0:	d1 95       	neg	r29
    15f2:	c1 95       	neg	r28
    15f4:	d1 09       	sbc	r29, r1
    15f6:	03 e7       	ldi	r16, 0x73	; 115
    15f8:	10 e0       	ldi	r17, 0x00	; 0
    15fa:	02 c0       	rjmp	.+4      	; 0x1600 <strtod+0x212>
    15fc:	0b e8       	ldi	r16, 0x8B	; 139
    15fe:	10 e0       	ldi	r17, 0x00	; 0
    1600:	68 01       	movw	r12, r16
    1602:	f8 e1       	ldi	r31, 0x18	; 24
    1604:	cf 1a       	sub	r12, r31
    1606:	d1 08       	sbc	r13, r1
    1608:	90 e2       	ldi	r25, 0x20	; 32
    160a:	e9 2e       	mov	r14, r25
    160c:	f1 2c       	mov	r15, r1
    160e:	ce 15       	cp	r28, r14
    1610:	df 05       	cpc	r29, r15
    1612:	74 f0       	brlt	.+28     	; 0x1630 <strtod+0x242>
    1614:	f8 01       	movw	r30, r16
    1616:	25 91       	lpm	r18, Z+
    1618:	35 91       	lpm	r19, Z+
    161a:	45 91       	lpm	r20, Z+
    161c:	54 91       	lpm	r21, Z
    161e:	c5 01       	movw	r24, r10
    1620:	b4 01       	movw	r22, r8
    1622:	0e 94 df 07 	call	0xfbe	; 0xfbe <__mulsf3>
    1626:	4b 01       	movw	r8, r22
    1628:	5c 01       	movw	r10, r24
    162a:	ce 19       	sub	r28, r14
    162c:	df 09       	sbc	r29, r15
    162e:	ef cf       	rjmp	.-34     	; 0x160e <strtod+0x220>
    1630:	04 50       	subi	r16, 0x04	; 4
    1632:	11 09       	sbc	r17, r1
    1634:	f5 94       	asr	r15
    1636:	e7 94       	ror	r14
    1638:	0c 15       	cp	r16, r12
    163a:	1d 05       	cpc	r17, r13
    163c:	41 f7       	brne	.-48     	; 0x160e <strtod+0x220>
    163e:	8a 2d       	mov	r24, r10
    1640:	88 0f       	add	r24, r24
    1642:	8b 2d       	mov	r24, r11
    1644:	88 1f       	adc	r24, r24
    1646:	8f 3f       	cpi	r24, 0xFF	; 255
    1648:	49 f0       	breq	.+18     	; 0x165c <strtod+0x26e>
    164a:	20 e0       	ldi	r18, 0x00	; 0
    164c:	30 e0       	ldi	r19, 0x00	; 0
    164e:	a9 01       	movw	r20, r18
    1650:	c5 01       	movw	r24, r10
    1652:	b4 01       	movw	r22, r8
    1654:	0e 94 80 06 	call	0xd00	; 0xd00 <__cmpsf2>
    1658:	81 11       	cpse	r24, r1
    165a:	06 c0       	rjmp	.+12     	; 0x1668 <strtod+0x27a>
    165c:	82 e2       	ldi	r24, 0x22	; 34
    165e:	90 e0       	ldi	r25, 0x00	; 0
    1660:	90 93 c3 02 	sts	0x02C3, r25	; 0x8002c3 <errno+0x1>
    1664:	80 93 c2 02 	sts	0x02C2, r24	; 0x8002c2 <errno>
    1668:	c5 01       	movw	r24, r10
    166a:	b4 01       	movw	r22, r8
    166c:	09 c0       	rjmp	.+18     	; 0x1680 <strtod+0x292>
    166e:	60 e0       	ldi	r22, 0x00	; 0
    1670:	70 e0       	ldi	r23, 0x00	; 0
    1672:	80 e8       	ldi	r24, 0x80	; 128
    1674:	9f ef       	ldi	r25, 0xFF	; 255
    1676:	04 c0       	rjmp	.+8      	; 0x1680 <strtod+0x292>
    1678:	60 e0       	ldi	r22, 0x00	; 0
    167a:	70 e0       	ldi	r23, 0x00	; 0
    167c:	80 ec       	ldi	r24, 0xC0	; 192
    167e:	9f e7       	ldi	r25, 0x7F	; 127
    1680:	cd b7       	in	r28, 0x3d	; 61
    1682:	de b7       	in	r29, 0x3e	; 62
    1684:	ec e0       	ldi	r30, 0x0C	; 12
    1686:	0c 94 6e 0c 	jmp	0x18dc	; 0x18dc <__epilogue_restores__+0xc>

0000168a <__ftoa_engine>:
    168a:	28 30       	cpi	r18, 0x08	; 8
    168c:	08 f0       	brcs	.+2      	; 0x1690 <__ftoa_engine+0x6>
    168e:	27 e0       	ldi	r18, 0x07	; 7
    1690:	33 27       	eor	r19, r19
    1692:	da 01       	movw	r26, r20
    1694:	99 0f       	add	r25, r25
    1696:	31 1d       	adc	r19, r1
    1698:	87 fd       	sbrc	r24, 7
    169a:	91 60       	ori	r25, 0x01	; 1
    169c:	00 96       	adiw	r24, 0x00	; 0
    169e:	61 05       	cpc	r22, r1
    16a0:	71 05       	cpc	r23, r1
    16a2:	39 f4       	brne	.+14     	; 0x16b2 <__ftoa_engine+0x28>
    16a4:	32 60       	ori	r19, 0x02	; 2
    16a6:	2e 5f       	subi	r18, 0xFE	; 254
    16a8:	3d 93       	st	X+, r19
    16aa:	30 e3       	ldi	r19, 0x30	; 48
    16ac:	2a 95       	dec	r18
    16ae:	e1 f7       	brne	.-8      	; 0x16a8 <__ftoa_engine+0x1e>
    16b0:	08 95       	ret
    16b2:	9f 3f       	cpi	r25, 0xFF	; 255
    16b4:	30 f0       	brcs	.+12     	; 0x16c2 <__ftoa_engine+0x38>
    16b6:	80 38       	cpi	r24, 0x80	; 128
    16b8:	71 05       	cpc	r23, r1
    16ba:	61 05       	cpc	r22, r1
    16bc:	09 f0       	breq	.+2      	; 0x16c0 <__ftoa_engine+0x36>
    16be:	3c 5f       	subi	r19, 0xFC	; 252
    16c0:	3c 5f       	subi	r19, 0xFC	; 252
    16c2:	3d 93       	st	X+, r19
    16c4:	91 30       	cpi	r25, 0x01	; 1
    16c6:	08 f0       	brcs	.+2      	; 0x16ca <__ftoa_engine+0x40>
    16c8:	80 68       	ori	r24, 0x80	; 128
    16ca:	91 1d       	adc	r25, r1
    16cc:	df 93       	push	r29
    16ce:	cf 93       	push	r28
    16d0:	1f 93       	push	r17
    16d2:	0f 93       	push	r16
    16d4:	ff 92       	push	r15
    16d6:	ef 92       	push	r14
    16d8:	19 2f       	mov	r17, r25
    16da:	98 7f       	andi	r25, 0xF8	; 248
    16dc:	96 95       	lsr	r25
    16de:	e9 2f       	mov	r30, r25
    16e0:	96 95       	lsr	r25
    16e2:	96 95       	lsr	r25
    16e4:	e9 0f       	add	r30, r25
    16e6:	ff 27       	eor	r31, r31
    16e8:	e7 51       	subi	r30, 0x17	; 23
    16ea:	ff 4f       	sbci	r31, 0xFF	; 255
    16ec:	99 27       	eor	r25, r25
    16ee:	33 27       	eor	r19, r19
    16f0:	ee 24       	eor	r14, r14
    16f2:	ff 24       	eor	r15, r15
    16f4:	a7 01       	movw	r20, r14
    16f6:	e7 01       	movw	r28, r14
    16f8:	05 90       	lpm	r0, Z+
    16fa:	08 94       	sec
    16fc:	07 94       	ror	r0
    16fe:	28 f4       	brcc	.+10     	; 0x170a <__ftoa_engine+0x80>
    1700:	36 0f       	add	r19, r22
    1702:	e7 1e       	adc	r14, r23
    1704:	f8 1e       	adc	r15, r24
    1706:	49 1f       	adc	r20, r25
    1708:	51 1d       	adc	r21, r1
    170a:	66 0f       	add	r22, r22
    170c:	77 1f       	adc	r23, r23
    170e:	88 1f       	adc	r24, r24
    1710:	99 1f       	adc	r25, r25
    1712:	06 94       	lsr	r0
    1714:	a1 f7       	brne	.-24     	; 0x16fe <__ftoa_engine+0x74>
    1716:	05 90       	lpm	r0, Z+
    1718:	07 94       	ror	r0
    171a:	28 f4       	brcc	.+10     	; 0x1726 <__ftoa_engine+0x9c>
    171c:	e7 0e       	add	r14, r23
    171e:	f8 1e       	adc	r15, r24
    1720:	49 1f       	adc	r20, r25
    1722:	56 1f       	adc	r21, r22
    1724:	c1 1d       	adc	r28, r1
    1726:	77 0f       	add	r23, r23
    1728:	88 1f       	adc	r24, r24
    172a:	99 1f       	adc	r25, r25
    172c:	66 1f       	adc	r22, r22
    172e:	06 94       	lsr	r0
    1730:	a1 f7       	brne	.-24     	; 0x171a <__ftoa_engine+0x90>
    1732:	05 90       	lpm	r0, Z+
    1734:	07 94       	ror	r0
    1736:	28 f4       	brcc	.+10     	; 0x1742 <__ftoa_engine+0xb8>
    1738:	f8 0e       	add	r15, r24
    173a:	49 1f       	adc	r20, r25
    173c:	56 1f       	adc	r21, r22
    173e:	c7 1f       	adc	r28, r23
    1740:	d1 1d       	adc	r29, r1
    1742:	88 0f       	add	r24, r24
    1744:	99 1f       	adc	r25, r25
    1746:	66 1f       	adc	r22, r22
    1748:	77 1f       	adc	r23, r23
    174a:	06 94       	lsr	r0
    174c:	a1 f7       	brne	.-24     	; 0x1736 <__ftoa_engine+0xac>
    174e:	05 90       	lpm	r0, Z+
    1750:	07 94       	ror	r0
    1752:	20 f4       	brcc	.+8      	; 0x175c <__ftoa_engine+0xd2>
    1754:	49 0f       	add	r20, r25
    1756:	56 1f       	adc	r21, r22
    1758:	c7 1f       	adc	r28, r23
    175a:	d8 1f       	adc	r29, r24
    175c:	99 0f       	add	r25, r25
    175e:	66 1f       	adc	r22, r22
    1760:	77 1f       	adc	r23, r23
    1762:	88 1f       	adc	r24, r24
    1764:	06 94       	lsr	r0
    1766:	a9 f7       	brne	.-22     	; 0x1752 <__ftoa_engine+0xc8>
    1768:	84 91       	lpm	r24, Z
    176a:	10 95       	com	r17
    176c:	17 70       	andi	r17, 0x07	; 7
    176e:	41 f0       	breq	.+16     	; 0x1780 <__ftoa_engine+0xf6>
    1770:	d6 95       	lsr	r29
    1772:	c7 95       	ror	r28
    1774:	57 95       	ror	r21
    1776:	47 95       	ror	r20
    1778:	f7 94       	ror	r15
    177a:	e7 94       	ror	r14
    177c:	1a 95       	dec	r17
    177e:	c1 f7       	brne	.-16     	; 0x1770 <__ftoa_engine+0xe6>
    1780:	ef e8       	ldi	r30, 0x8F	; 143
    1782:	f0 e0       	ldi	r31, 0x00	; 0
    1784:	68 94       	set
    1786:	15 90       	lpm	r1, Z+
    1788:	15 91       	lpm	r17, Z+
    178a:	35 91       	lpm	r19, Z+
    178c:	65 91       	lpm	r22, Z+
    178e:	95 91       	lpm	r25, Z+
    1790:	05 90       	lpm	r0, Z+
    1792:	7f e2       	ldi	r23, 0x2F	; 47
    1794:	73 95       	inc	r23
    1796:	e1 18       	sub	r14, r1
    1798:	f1 0a       	sbc	r15, r17
    179a:	43 0b       	sbc	r20, r19
    179c:	56 0b       	sbc	r21, r22
    179e:	c9 0b       	sbc	r28, r25
    17a0:	d0 09       	sbc	r29, r0
    17a2:	c0 f7       	brcc	.-16     	; 0x1794 <__ftoa_engine+0x10a>
    17a4:	e1 0c       	add	r14, r1
    17a6:	f1 1e       	adc	r15, r17
    17a8:	43 1f       	adc	r20, r19
    17aa:	56 1f       	adc	r21, r22
    17ac:	c9 1f       	adc	r28, r25
    17ae:	d0 1d       	adc	r29, r0
    17b0:	7e f4       	brtc	.+30     	; 0x17d0 <__ftoa_engine+0x146>
    17b2:	70 33       	cpi	r23, 0x30	; 48
    17b4:	11 f4       	brne	.+4      	; 0x17ba <__ftoa_engine+0x130>
    17b6:	8a 95       	dec	r24
    17b8:	e6 cf       	rjmp	.-52     	; 0x1786 <__ftoa_engine+0xfc>
    17ba:	e8 94       	clt
    17bc:	01 50       	subi	r16, 0x01	; 1
    17be:	30 f0       	brcs	.+12     	; 0x17cc <__ftoa_engine+0x142>
    17c0:	08 0f       	add	r16, r24
    17c2:	0a f4       	brpl	.+2      	; 0x17c6 <__ftoa_engine+0x13c>
    17c4:	00 27       	eor	r16, r16
    17c6:	02 17       	cp	r16, r18
    17c8:	08 f4       	brcc	.+2      	; 0x17cc <__ftoa_engine+0x142>
    17ca:	20 2f       	mov	r18, r16
    17cc:	23 95       	inc	r18
    17ce:	02 2f       	mov	r16, r18
    17d0:	7a 33       	cpi	r23, 0x3A	; 58
    17d2:	28 f0       	brcs	.+10     	; 0x17de <__ftoa_engine+0x154>
    17d4:	79 e3       	ldi	r23, 0x39	; 57
    17d6:	7d 93       	st	X+, r23
    17d8:	2a 95       	dec	r18
    17da:	e9 f7       	brne	.-6      	; 0x17d6 <__ftoa_engine+0x14c>
    17dc:	10 c0       	rjmp	.+32     	; 0x17fe <__ftoa_engine+0x174>
    17de:	7d 93       	st	X+, r23
    17e0:	2a 95       	dec	r18
    17e2:	89 f6       	brne	.-94     	; 0x1786 <__ftoa_engine+0xfc>
    17e4:	06 94       	lsr	r0
    17e6:	97 95       	ror	r25
    17e8:	67 95       	ror	r22
    17ea:	37 95       	ror	r19
    17ec:	17 95       	ror	r17
    17ee:	17 94       	ror	r1
    17f0:	e1 18       	sub	r14, r1
    17f2:	f1 0a       	sbc	r15, r17
    17f4:	43 0b       	sbc	r20, r19
    17f6:	56 0b       	sbc	r21, r22
    17f8:	c9 0b       	sbc	r28, r25
    17fa:	d0 09       	sbc	r29, r0
    17fc:	98 f0       	brcs	.+38     	; 0x1824 <__ftoa_engine+0x19a>
    17fe:	23 95       	inc	r18
    1800:	7e 91       	ld	r23, -X
    1802:	73 95       	inc	r23
    1804:	7a 33       	cpi	r23, 0x3A	; 58
    1806:	08 f0       	brcs	.+2      	; 0x180a <__ftoa_engine+0x180>
    1808:	70 e3       	ldi	r23, 0x30	; 48
    180a:	7c 93       	st	X, r23
    180c:	20 13       	cpse	r18, r16
    180e:	b8 f7       	brcc	.-18     	; 0x17fe <__ftoa_engine+0x174>
    1810:	7e 91       	ld	r23, -X
    1812:	70 61       	ori	r23, 0x10	; 16
    1814:	7d 93       	st	X+, r23
    1816:	30 f0       	brcs	.+12     	; 0x1824 <__ftoa_engine+0x19a>
    1818:	83 95       	inc	r24
    181a:	71 e3       	ldi	r23, 0x31	; 49
    181c:	7d 93       	st	X+, r23
    181e:	70 e3       	ldi	r23, 0x30	; 48
    1820:	2a 95       	dec	r18
    1822:	e1 f7       	brne	.-8      	; 0x181c <__ftoa_engine+0x192>
    1824:	11 24       	eor	r1, r1
    1826:	ef 90       	pop	r14
    1828:	ff 90       	pop	r15
    182a:	0f 91       	pop	r16
    182c:	1f 91       	pop	r17
    182e:	cf 91       	pop	r28
    1830:	df 91       	pop	r29
    1832:	99 27       	eor	r25, r25
    1834:	87 fd       	sbrc	r24, 7
    1836:	90 95       	com	r25
    1838:	08 95       	ret

0000183a <isspace>:
    183a:	91 11       	cpse	r25, r1
    183c:	0c 94 3e 0c 	jmp	0x187c	; 0x187c <__ctype_isfalse>
    1840:	80 32       	cpi	r24, 0x20	; 32
    1842:	19 f0       	breq	.+6      	; 0x184a <isspace+0x10>
    1844:	89 50       	subi	r24, 0x09	; 9
    1846:	85 50       	subi	r24, 0x05	; 5
    1848:	c8 f7       	brcc	.-14     	; 0x183c <isspace+0x2>
    184a:	08 95       	ret

0000184c <strncasecmp_P>:
    184c:	fb 01       	movw	r30, r22
    184e:	dc 01       	movw	r26, r24
    1850:	41 50       	subi	r20, 0x01	; 1
    1852:	50 40       	sbci	r21, 0x00	; 0
    1854:	88 f0       	brcs	.+34     	; 0x1878 <strncasecmp_P+0x2c>
    1856:	8d 91       	ld	r24, X+
    1858:	81 34       	cpi	r24, 0x41	; 65
    185a:	1c f0       	brlt	.+6      	; 0x1862 <strncasecmp_P+0x16>
    185c:	8b 35       	cpi	r24, 0x5B	; 91
    185e:	0c f4       	brge	.+2      	; 0x1862 <strncasecmp_P+0x16>
    1860:	80 5e       	subi	r24, 0xE0	; 224
    1862:	65 91       	lpm	r22, Z+
    1864:	61 34       	cpi	r22, 0x41	; 65
    1866:	1c f0       	brlt	.+6      	; 0x186e <strncasecmp_P+0x22>
    1868:	6b 35       	cpi	r22, 0x5B	; 91
    186a:	0c f4       	brge	.+2      	; 0x186e <strncasecmp_P+0x22>
    186c:	60 5e       	subi	r22, 0xE0	; 224
    186e:	86 1b       	sub	r24, r22
    1870:	61 11       	cpse	r22, r1
    1872:	71 f3       	breq	.-36     	; 0x1850 <strncasecmp_P+0x4>
    1874:	99 0b       	sbc	r25, r25
    1876:	08 95       	ret
    1878:	88 1b       	sub	r24, r24
    187a:	fc cf       	rjmp	.-8      	; 0x1874 <strncasecmp_P+0x28>

0000187c <__ctype_isfalse>:
    187c:	99 27       	eor	r25, r25
    187e:	88 27       	eor	r24, r24

00001880 <__ctype_istrue>:
    1880:	08 95       	ret

00001882 <__muluhisi3>:
    1882:	0e 94 83 0c 	call	0x1906	; 0x1906 <__umulhisi3>
    1886:	a5 9f       	mul	r26, r21
    1888:	90 0d       	add	r25, r0
    188a:	b4 9f       	mul	r27, r20
    188c:	90 0d       	add	r25, r0
    188e:	a4 9f       	mul	r26, r20
    1890:	80 0d       	add	r24, r0
    1892:	91 1d       	adc	r25, r1
    1894:	11 24       	eor	r1, r1
    1896:	08 95       	ret

00001898 <__prologue_saves__>:
    1898:	2f 92       	push	r2
    189a:	3f 92       	push	r3
    189c:	4f 92       	push	r4
    189e:	5f 92       	push	r5
    18a0:	6f 92       	push	r6
    18a2:	7f 92       	push	r7
    18a4:	8f 92       	push	r8
    18a6:	9f 92       	push	r9
    18a8:	af 92       	push	r10
    18aa:	bf 92       	push	r11
    18ac:	cf 92       	push	r12
    18ae:	df 92       	push	r13
    18b0:	ef 92       	push	r14
    18b2:	ff 92       	push	r15
    18b4:	0f 93       	push	r16
    18b6:	1f 93       	push	r17
    18b8:	cf 93       	push	r28
    18ba:	df 93       	push	r29
    18bc:	cd b7       	in	r28, 0x3d	; 61
    18be:	de b7       	in	r29, 0x3e	; 62
    18c0:	ca 1b       	sub	r28, r26
    18c2:	db 0b       	sbc	r29, r27
    18c4:	0f b6       	in	r0, 0x3f	; 63
    18c6:	f8 94       	cli
    18c8:	de bf       	out	0x3e, r29	; 62
    18ca:	0f be       	out	0x3f, r0	; 63
    18cc:	cd bf       	out	0x3d, r28	; 61
    18ce:	09 94       	ijmp

000018d0 <__epilogue_restores__>:
    18d0:	2a 88       	ldd	r2, Y+18	; 0x12
    18d2:	39 88       	ldd	r3, Y+17	; 0x11
    18d4:	48 88       	ldd	r4, Y+16	; 0x10
    18d6:	5f 84       	ldd	r5, Y+15	; 0x0f
    18d8:	6e 84       	ldd	r6, Y+14	; 0x0e
    18da:	7d 84       	ldd	r7, Y+13	; 0x0d
    18dc:	8c 84       	ldd	r8, Y+12	; 0x0c
    18de:	9b 84       	ldd	r9, Y+11	; 0x0b
    18e0:	aa 84       	ldd	r10, Y+10	; 0x0a
    18e2:	b9 84       	ldd	r11, Y+9	; 0x09
    18e4:	c8 84       	ldd	r12, Y+8	; 0x08
    18e6:	df 80       	ldd	r13, Y+7	; 0x07
    18e8:	ee 80       	ldd	r14, Y+6	; 0x06
    18ea:	fd 80       	ldd	r15, Y+5	; 0x05
    18ec:	0c 81       	ldd	r16, Y+4	; 0x04
    18ee:	1b 81       	ldd	r17, Y+3	; 0x03
    18f0:	aa 81       	ldd	r26, Y+2	; 0x02
    18f2:	b9 81       	ldd	r27, Y+1	; 0x01
    18f4:	ce 0f       	add	r28, r30
    18f6:	d1 1d       	adc	r29, r1
    18f8:	0f b6       	in	r0, 0x3f	; 63
    18fa:	f8 94       	cli
    18fc:	de bf       	out	0x3e, r29	; 62
    18fe:	0f be       	out	0x3f, r0	; 63
    1900:	cd bf       	out	0x3d, r28	; 61
    1902:	ed 01       	movw	r28, r26
    1904:	08 95       	ret

00001906 <__umulhisi3>:
    1906:	a2 9f       	mul	r26, r18
    1908:	b0 01       	movw	r22, r0
    190a:	b3 9f       	mul	r27, r19
    190c:	c0 01       	movw	r24, r0
    190e:	a3 9f       	mul	r26, r19
    1910:	70 0d       	add	r23, r0
    1912:	81 1d       	adc	r24, r1
    1914:	11 24       	eor	r1, r1
    1916:	91 1d       	adc	r25, r1
    1918:	b2 9f       	mul	r27, r18
    191a:	70 0d       	add	r23, r0
    191c:	81 1d       	adc	r24, r1
    191e:	11 24       	eor	r1, r1
    1920:	91 1d       	adc	r25, r1
    1922:	08 95       	ret

00001924 <_exit>:
    1924:	f8 94       	cli

00001926 <__stop_program>:
    1926:	ff cf       	rjmp	.-2      	; 0x1926 <__stop_program>
