
FullCode.elf:     file format elf32-avr

Sections:
Idx Name          Size      VMA       LMA       File off  Algn
  0 .text         00001b28  00000000  00000000  00000094  2**1
                  CONTENTS, ALLOC, LOAD, READONLY, CODE
  1 .data         00000084  00800060  00001b28  00001bbc  2**0
                  CONTENTS, ALLOC, LOAD, DATA
  2 .bss          0000010a  008000e4  008000e4  00001c40  2**0
                  ALLOC
  3 .comment      0000005c  00000000  00000000  00001c40  2**0
                  CONTENTS, READONLY
  4 .note.gnu.avr.deviceinfo 0000003c  00000000  00000000  00001c9c  2**2
                  CONTENTS, READONLY
  5 .debug_aranges 00000198  00000000  00000000  00001cd8  2**0
                  CONTENTS, READONLY, DEBUGGING
  6 .debug_info   00001f71  00000000  00000000  00001e70  2**0
                  CONTENTS, READONLY, DEBUGGING
  7 .debug_abbrev 00000996  00000000  00000000  00003de1  2**0
                  CONTENTS, READONLY, DEBUGGING
  8 .debug_line   000010a6  00000000  00000000  00004777  2**0
                  CONTENTS, READONLY, DEBUGGING
  9 .debug_frame  00000420  00000000  00000000  00005820  2**2
                  CONTENTS, READONLY, DEBUGGING
 10 .debug_str    0000075d  00000000  00000000  00005c40  2**0
                  CONTENTS, READONLY, DEBUGGING
 11 .debug_loc    00001410  00000000  00000000  0000639d  2**0
                  CONTENTS, READONLY, DEBUGGING
 12 .debug_ranges 00000168  00000000  00000000  000077ad  2**0
                  CONTENTS, READONLY, DEBUGGING

Disassembly of section .text:

00000000 <__vectors>:
       0:	0c 94 c5 00 	jmp	0x18a	; 0x18a <__ctors_end>
       4:	0c 94 e2 00 	jmp	0x1c4	; 0x1c4 <__bad_interrupt>
       8:	0c 94 e2 00 	jmp	0x1c4	; 0x1c4 <__bad_interrupt>
       c:	0c 94 e2 00 	jmp	0x1c4	; 0x1c4 <__bad_interrupt>
      10:	0c 94 e2 00 	jmp	0x1c4	; 0x1c4 <__bad_interrupt>
      14:	0c 94 e2 00 	jmp	0x1c4	; 0x1c4 <__bad_interrupt>
      18:	0c 94 e2 00 	jmp	0x1c4	; 0x1c4 <__bad_interrupt>
      1c:	0c 94 e2 00 	jmp	0x1c4	; 0x1c4 <__bad_interrupt>
      20:	0c 94 e2 00 	jmp	0x1c4	; 0x1c4 <__bad_interrupt>
      24:	0c 94 e2 00 	jmp	0x1c4	; 0x1c4 <__bad_interrupt>
      28:	0c 94 e2 00 	jmp	0x1c4	; 0x1c4 <__bad_interrupt>
      2c:	0c 94 e2 00 	jmp	0x1c4	; 0x1c4 <__bad_interrupt>
      30:	0c 94 e2 00 	jmp	0x1c4	; 0x1c4 <__bad_interrupt>
      34:	0c 94 9d 02 	jmp	0x53a	; 0x53a <__vector_13>
      38:	0c 94 e2 00 	jmp	0x1c4	; 0x1c4 <__bad_interrupt>
      3c:	0c 94 e2 00 	jmp	0x1c4	; 0x1c4 <__bad_interrupt>
      40:	0c 94 e2 00 	jmp	0x1c4	; 0x1c4 <__bad_interrupt>
      44:	0c 94 e2 00 	jmp	0x1c4	; 0x1c4 <__bad_interrupt>
      48:	0c 94 e2 00 	jmp	0x1c4	; 0x1c4 <__bad_interrupt>
      4c:	0c 94 e2 00 	jmp	0x1c4	; 0x1c4 <__bad_interrupt>
      50:	0c 94 e2 00 	jmp	0x1c4	; 0x1c4 <__bad_interrupt>

00000054 <__trampolines_end>:
      54:	4e 41       	sbci	r20, 0x1E	; 30
      56:	4e 49       	Address 0x00000056 is out of bounds.
.word	0xffff	; ????

00000057 <pstr_inity>:
      57:	49 4e 49 54 59                                      INITY

0000005c <pstr_inf>:
      5c:	49 4e 46                                            INF

0000005f <pwr_m10>:
      5f:	cd cc cc 3d 0a d7 23 3c 17 b7 d1 38 77 cc 2b 32     ...=..#<...8w.+2
      6f:	95 95 e6 24 1f b1 4f 0a                             ...$..O.

00000077 <pwr_p10>:
      77:	00 00 20 41 00 00 c8 42 00 40 1c 46 20 bc be 4c     .. A...B.@.F ..L
      87:	ca 1b 0e 5a ae c5 9d 74 00 40 7a 10 f3 5a 00 a0     ...Z...t.@z..Z..
      97:	72 4e 18 09 00 10 a5 d4 e8 00 00 e8 76 48 17 00     rN..........vH..
      a7:	00 e4 0b 54 02 00 00 ca 9a 3b 00 00 00 e1 f5 05     ...T.....;......
      b7:	00 00 80 96 98 00 00 00 40 42 0f 00 00 00 a0 86     ........@B......
      c7:	01 00 00 00 10 27 00 00 00 00 e8 03 00 00 00 00     .....'..........
      d7:	64 00 00 00 00 00 0a 00 00 00 00 00 01 00 00 00     d...............
      e7:	00 00 2c 76 d8 88 dc 67 4f 08 23 df c1 df ae 59     ..,v...gO.#....Y
      f7:	e1 b1 b7 96 e5 e3 e4 53 c6 3a e6 51 99 76 96 e8     .......S.:.Q.v..
     107:	e6 c2 84 26 eb 89 8c 9b 62 ed 40 7c 6f fc ef bc     ...&....b.@|o...
     117:	9c 9f 40 f2 ba a5 6f a5 f4 90 05 5a 2a f7 5c 93     ..@...o....Z*.\.
     127:	6b 6c f9 67 6d c1 1b fc e0 e4 0d 47 fe f5 20 e6     kl.gm......G.. .
     137:	b5 00 d0 ed 90 2e 03 00 94 35 77 05 00 80 84 1e     .........5w.....
     147:	08 00 00 20 4e 0a 00 00 00 c8 0c 33 33 33 33 0f     ... N......3333.
     157:	98 6e 12 83 11 41 ef 8d 21 14 89 3b e6 55 16 cf     .n...A..!..;.U..
     167:	fe e6 db 18 d1 84 4b 38 1b f7 7c 1d 90 1d a4 bb     ......K8..|.....
     177:	e4 24 20 32 84 72 5e 22 81 00 c9 f1 24 ec a1 e5     .$ 2.r^"....$...
     187:	3d 27 00                                            ='.

0000018a <__ctors_end>:
     18a:	11 24       	eor	r1, r1
     18c:	1f be       	out	0x3f, r1	; 63
     18e:	cf e5       	ldi	r28, 0x5F	; 95
     190:	d8 e0       	ldi	r29, 0x08	; 8
     192:	de bf       	out	0x3e, r29	; 62
     194:	cd bf       	out	0x3d, r28	; 61

00000196 <__do_copy_data>:
     196:	10 e0       	ldi	r17, 0x00	; 0
     198:	a0 e6       	ldi	r26, 0x60	; 96
     19a:	b0 e0       	ldi	r27, 0x00	; 0
     19c:	e8 e2       	ldi	r30, 0x28	; 40
     19e:	fb e1       	ldi	r31, 0x1B	; 27
     1a0:	02 c0       	rjmp	.+4      	; 0x1a6 <__do_copy_data+0x10>
     1a2:	05 90       	lpm	r0, Z+
     1a4:	0d 92       	st	X+, r0
     1a6:	a4 3e       	cpi	r26, 0xE4	; 228
     1a8:	b1 07       	cpc	r27, r17
     1aa:	d9 f7       	brne	.-10     	; 0x1a2 <__do_copy_data+0xc>

000001ac <__do_clear_bss>:
     1ac:	21 e0       	ldi	r18, 0x01	; 1
     1ae:	a4 ee       	ldi	r26, 0xE4	; 228
     1b0:	b0 e0       	ldi	r27, 0x00	; 0
     1b2:	01 c0       	rjmp	.+2      	; 0x1b6 <.do_clear_bss_start>

000001b4 <.do_clear_bss_loop>:
     1b4:	1d 92       	st	X+, r1

000001b6 <.do_clear_bss_start>:
     1b6:	ae 3e       	cpi	r26, 0xEE	; 238
     1b8:	b2 07       	cpc	r27, r18
     1ba:	e1 f7       	brne	.-8      	; 0x1b4 <.do_clear_bss_loop>
     1bc:	0e 94 cb 05 	call	0xb96	; 0xb96 <main>
     1c0:	0c 94 92 0d 	jmp	0x1b24	; 0x1b24 <_exit>

000001c4 <__bad_interrupt>:
     1c4:	0c 94 00 00 	jmp	0	; 0x0 <__vectors>

000001c8 <I2C_Init>:
	return 1;												/* If yes then return 1 to indicate ack received i.e. ready to accept data byte */
	if (status == 0x20)										/* Check weather SLA+W transmitted & nack received or not? */
	return 2;												/* If yes then return 2 to indicate nack received i.e. device is busy */
	else
	return 3;												/* Else return 3 to indicate SLA+W failed */
}
     1c8:	11 b8       	out	0x01, r1	; 1
     1ca:	80 e2       	ldi	r24, 0x20	; 32
     1cc:	80 b9       	out	0x00, r24	; 0
     1ce:	08 95       	ret

000001d0 <I2C_Repeated_Start>:

uint8_t I2C_Repeated_Start(char slave_read_address)			/* I2C repeated start function */
{
	uint8_t status;											/* Declare variable */
	TWCR = (1<<TWSTA)|(1<<TWEN)|(1<<TWINT);					/* Enable TWI, generate start condition and clear interrupt flag */
     1d0:	94 ea       	ldi	r25, 0xA4	; 164
     1d2:	96 bf       	out	0x36, r25	; 54
	while (!(TWCR & (1<<TWINT)));							/* Wait until TWI finish its current job (start condition) */
     1d4:	06 b6       	in	r0, 0x36	; 54
     1d6:	07 fe       	sbrs	r0, 7
     1d8:	fd cf       	rjmp	.-6      	; 0x1d4 <I2C_Repeated_Start+0x4>
	status = TWSR & 0xF8;									/* Read TWI status register with masking lower three bits */
     1da:	91 b1       	in	r25, 0x01	; 1
     1dc:	98 7f       	andi	r25, 0xF8	; 248
	if (status != 0x10)										/* Check weather repeated start condition transmitted successfully or not? */
     1de:	90 31       	cpi	r25, 0x10	; 16
     1e0:	71 f4       	brne	.+28     	; 0x1fe <I2C_Repeated_Start+0x2e>
	return 0;												/* If no then return 0 to indicate repeated start condition fail */
	TWDR = slave_read_address;								/* If yes then write SLA+R in TWI data register */
     1e2:	83 b9       	out	0x03, r24	; 3
	TWCR = (1<<TWEN)|(1<<TWINT);							/* Enable TWI and clear interrupt flag */
     1e4:	84 e8       	ldi	r24, 0x84	; 132
     1e6:	86 bf       	out	0x36, r24	; 54
	while (!(TWCR & (1<<TWINT)));							/* Wait until TWI finish its current job (Write operation) */
     1e8:	06 b6       	in	r0, 0x36	; 54
     1ea:	07 fe       	sbrs	r0, 7
     1ec:	fd cf       	rjmp	.-6      	; 0x1e8 <I2C_Repeated_Start+0x18>
	status = TWSR & 0xF8;									/* Read TWI status register with masking lower three bits */
     1ee:	81 b1       	in	r24, 0x01	; 1
     1f0:	88 7f       	andi	r24, 0xF8	; 248
	if (status == 0x40)										/* Check weather SLA+R transmitted & ack received or not? */
     1f2:	80 34       	cpi	r24, 0x40	; 64
     1f4:	31 f0       	breq	.+12     	; 0x202 <I2C_Repeated_Start+0x32>
	return 1;												/* If yes then return 1 to indicate ack received */ 
	if (status == 0x20)										/* Check weather SLA+R transmitted & nack received or not? */
     1f6:	80 32       	cpi	r24, 0x20	; 32
     1f8:	31 f4       	brne	.+12     	; 0x206 <I2C_Repeated_Start+0x36>
	return 2;												/* If yes then return 2 to indicate nack received i.e. device is busy */
     1fa:	82 e0       	ldi	r24, 0x02	; 2
     1fc:	08 95       	ret
	uint8_t status;											/* Declare variable */
	TWCR = (1<<TWSTA)|(1<<TWEN)|(1<<TWINT);					/* Enable TWI, generate start condition and clear interrupt flag */
	while (!(TWCR & (1<<TWINT)));							/* Wait until TWI finish its current job (start condition) */
	status = TWSR & 0xF8;									/* Read TWI status register with masking lower three bits */
	if (status != 0x10)										/* Check weather repeated start condition transmitted successfully or not? */
	return 0;												/* If no then return 0 to indicate repeated start condition fail */
     1fe:	80 e0       	ldi	r24, 0x00	; 0
     200:	08 95       	ret
	TWDR = slave_read_address;								/* If yes then write SLA+R in TWI data register */
	TWCR = (1<<TWEN)|(1<<TWINT);							/* Enable TWI and clear interrupt flag */
	while (!(TWCR & (1<<TWINT)));							/* Wait until TWI finish its current job (Write operation) */
	status = TWSR & 0xF8;									/* Read TWI status register with masking lower three bits */
	if (status == 0x40)										/* Check weather SLA+R transmitted & ack received or not? */
	return 1;												/* If yes then return 1 to indicate ack received */ 
     202:	81 e0       	ldi	r24, 0x01	; 1
     204:	08 95       	ret
	if (status == 0x20)										/* Check weather SLA+R transmitted & nack received or not? */
	return 2;												/* If yes then return 2 to indicate nack received i.e. device is busy */
	else
	return 3;												/* Else return 3 to indicate SLA+W failed */
     206:	83 e0       	ldi	r24, 0x03	; 3
}
     208:	08 95       	ret

0000020a <I2C_Stop>:

void I2C_Stop()												/* I2C stop function */
{
	TWCR=(1<<TWSTO)|(1<<TWINT)|(1<<TWEN);					/* Enable TWI, generate stop condition and clear interrupt flag */
     20a:	84 e9       	ldi	r24, 0x94	; 148
     20c:	86 bf       	out	0x36, r24	; 54
	while(TWCR & (1<<TWSTO));								/* Wait until stop condition execution */ 
     20e:	06 b6       	in	r0, 0x36	; 54
     210:	04 fc       	sbrc	r0, 4
     212:	fd cf       	rjmp	.-6      	; 0x20e <I2C_Stop+0x4>
}
     214:	08 95       	ret

00000216 <I2C_Start_Wait>:

void I2C_Start_Wait(char slave_write_address)				/* I2C start wait function */
{
     216:	cf 93       	push	r28
     218:	c8 2f       	mov	r28, r24
	uint8_t status;											/* Declare variable */
	while (1)
	{
		TWCR = (1<<TWSTA)|(1<<TWEN)|(1<<TWINT);				/* Enable TWI, generate start condition and clear interrupt flag */
     21a:	84 ea       	ldi	r24, 0xA4	; 164
     21c:	86 bf       	out	0x36, r24	; 54
		while (!(TWCR & (1<<TWINT)));						/* Wait until TWI finish its current job (start condition) */
     21e:	06 b6       	in	r0, 0x36	; 54
     220:	07 fe       	sbrs	r0, 7
     222:	fd cf       	rjmp	.-6      	; 0x21e <I2C_Start_Wait+0x8>
		status = TWSR & 0xF8;								/* Read TWI status register with masking lower three bits */
     224:	81 b1       	in	r24, 0x01	; 1
     226:	88 7f       	andi	r24, 0xF8	; 248
		if (status != 0x08)									/* Check weather start condition transmitted successfully or not? */
     228:	88 30       	cpi	r24, 0x08	; 8
     22a:	b9 f7       	brne	.-18     	; 0x21a <I2C_Start_Wait+0x4>
		continue;											/* If no then continue with start loop again */
		TWDR = slave_write_address;							/* If yes then write SLA+W in TWI data register */
     22c:	c3 b9       	out	0x03, r28	; 3
		TWCR = (1<<TWEN)|(1<<TWINT);						/* Enable TWI and clear interrupt flag */
     22e:	84 e8       	ldi	r24, 0x84	; 132
     230:	86 bf       	out	0x36, r24	; 54
		while (!(TWCR & (1<<TWINT)));						/* Wait until TWI finish its current job (Write operation) */
     232:	06 b6       	in	r0, 0x36	; 54
     234:	07 fe       	sbrs	r0, 7
     236:	fd cf       	rjmp	.-6      	; 0x232 <I2C_Start_Wait+0x1c>
		status = TWSR & 0xF8;								/* Read TWI status register with masking lower three bits */
     238:	81 b1       	in	r24, 0x01	; 1
     23a:	88 7f       	andi	r24, 0xF8	; 248
		if (status != 0x18 )								/* Check weather SLA+W transmitted & ack received or not? */
     23c:	88 31       	cpi	r24, 0x18	; 24
     23e:	19 f0       	breq	.+6      	; 0x246 <I2C_Start_Wait+0x30>
		{
			I2C_Stop();										/* If not then generate stop condition */
     240:	0e 94 05 01 	call	0x20a	; 0x20a <I2C_Stop>
			continue;										/* continue with start loop again */
     244:	ea cf       	rjmp	.-44     	; 0x21a <I2C_Start_Wait+0x4>
		}
		break;												/* If yes then break loop */
	}
}
     246:	cf 91       	pop	r28
     248:	08 95       	ret

0000024a <I2C_Write>:

uint8_t I2C_Write(char data)								/* I2C write function */
{
	uint8_t status;											/* Declare variable */
	TWDR = data;											/* Copy data in TWI data register */
     24a:	83 b9       	out	0x03, r24	; 3
	TWCR = (1<<TWEN)|(1<<TWINT);							/* Enable TWI and clear interrupt flag */
     24c:	84 e8       	ldi	r24, 0x84	; 132
     24e:	86 bf       	out	0x36, r24	; 54
	while (!(TWCR & (1<<TWINT)));							/* Wait until TWI finish its current job (Write operation) */
     250:	06 b6       	in	r0, 0x36	; 54
     252:	07 fe       	sbrs	r0, 7
     254:	fd cf       	rjmp	.-6      	; 0x250 <I2C_Write+0x6>
	status = TWSR & 0xF8;									/* Read TWI status register with masking lower three bits */
     256:	81 b1       	in	r24, 0x01	; 1
     258:	88 7f       	andi	r24, 0xF8	; 248
	if (status == 0x28)										/* Check weather data transmitted & ack received or not? */
     25a:	88 32       	cpi	r24, 0x28	; 40
     25c:	21 f0       	breq	.+8      	; 0x266 <I2C_Write+0x1c>
	return 0;												/* If yes then return 0 to indicate ack received */
	if (status == 0x30)										/* Check weather data transmitted & nack received or not? */
     25e:	80 33       	cpi	r24, 0x30	; 48
     260:	21 f4       	brne	.+8      	; 0x26a <I2C_Write+0x20>
	return 1;												/* If yes then return 1 to indicate nack received */
     262:	81 e0       	ldi	r24, 0x01	; 1
     264:	08 95       	ret
	TWDR = data;											/* Copy data in TWI data register */
	TWCR = (1<<TWEN)|(1<<TWINT);							/* Enable TWI and clear interrupt flag */
	while (!(TWCR & (1<<TWINT)));							/* Wait until TWI finish its current job (Write operation) */
	status = TWSR & 0xF8;									/* Read TWI status register with masking lower three bits */
	if (status == 0x28)										/* Check weather data transmitted & ack received or not? */
	return 0;												/* If yes then return 0 to indicate ack received */
     266:	80 e0       	ldi	r24, 0x00	; 0
     268:	08 95       	ret
	if (status == 0x30)										/* Check weather data transmitted & nack received or not? */
	return 1;												/* If yes then return 1 to indicate nack received */
	else
	return 2;												/* Else return 2 to indicate data transmission failed */
     26a:	82 e0       	ldi	r24, 0x02	; 2
}
     26c:	08 95       	ret

0000026e <I2C_Read_Ack>:

char I2C_Read_Ack()										/* I2C read ack function */
{
	TWCR=(1<<TWEN)|(1<<TWINT)|(1<<TWEA);					/* Enable TWI, generation of ack and clear interrupt flag */
     26e:	84 ec       	ldi	r24, 0xC4	; 196
     270:	86 bf       	out	0x36, r24	; 54
	while (!(TWCR & (1<<TWINT)));							/* Wait until TWI finish its current job (read operation) */
     272:	06 b6       	in	r0, 0x36	; 54
     274:	07 fe       	sbrs	r0, 7
     276:	fd cf       	rjmp	.-6      	; 0x272 <I2C_Read_Ack+0x4>
	return TWDR;											/* Return received data */
     278:	83 b1       	in	r24, 0x03	; 3
}	
     27a:	08 95       	ret

0000027c <I2C_Read_Nack>:

char I2C_Read_Nack()										/* I2C read nack function */
{
	TWCR=(1<<TWEN)|(1<<TWINT);								/* Enable TWI and clear interrupt flag */
     27c:	84 e8       	ldi	r24, 0x84	; 132
     27e:	86 bf       	out	0x36, r24	; 54
	while (!(TWCR & (1<<TWINT)));							/* Wait until TWI finish its current job (read operation) */
     280:	06 b6       	in	r0, 0x36	; 54
     282:	07 fe       	sbrs	r0, 7
     284:	fd cf       	rjmp	.-6      	; 0x280 <I2C_Read_Nack+0x4>
	return TWDR;											/* Return received data */
     286:	83 b1       	in	r24, 0x03	; 3
}	
     288:	08 95       	ret

0000028a <LCD_Command>:
	while (*str!='\0')
	{
		USART_transmit(*str);
		str++;
	}
}
     28a:	88 bb       	out	0x18, r24	; 24
     28c:	85 b3       	in	r24, 0x15	; 21
     28e:	8c 7f       	andi	r24, 0xFC	; 252
     290:	85 bb       	out	0x15, r24	; 21
     292:	85 b3       	in	r24, 0x15	; 21
     294:	84 60       	ori	r24, 0x04	; 4
     296:	85 bb       	out	0x15, r24	; 21
     298:	82 e0       	ldi	r24, 0x02	; 2
     29a:	8a 95       	dec	r24
     29c:	f1 f7       	brne	.-4      	; 0x29a <LCD_Command+0x10>
     29e:	00 c0       	rjmp	.+0      	; 0x2a0 <LCD_Command+0x16>
     2a0:	85 b3       	in	r24, 0x15	; 21
     2a2:	8b 7f       	andi	r24, 0xFB	; 251
     2a4:	85 bb       	out	0x15, r24	; 21
     2a6:	8f e9       	ldi	r24, 0x9F	; 159
     2a8:	9f e0       	ldi	r25, 0x0F	; 15
     2aa:	01 97       	sbiw	r24, 0x01	; 1
     2ac:	f1 f7       	brne	.-4      	; 0x2aa <LCD_Command+0x20>
     2ae:	00 c0       	rjmp	.+0      	; 0x2b0 <LCD_Command+0x26>
     2b0:	00 00       	nop
     2b2:	08 95       	ret

000002b4 <LCD_Char>:
     2b4:	88 bb       	out	0x18, r24	; 24
     2b6:	85 b3       	in	r24, 0x15	; 21
     2b8:	8d 7f       	andi	r24, 0xFD	; 253
     2ba:	85 bb       	out	0x15, r24	; 21
     2bc:	85 b3       	in	r24, 0x15	; 21
     2be:	85 60       	ori	r24, 0x05	; 5
     2c0:	85 bb       	out	0x15, r24	; 21
     2c2:	82 e0       	ldi	r24, 0x02	; 2
     2c4:	8a 95       	dec	r24
     2c6:	f1 f7       	brne	.-4      	; 0x2c4 <LCD_Char+0x10>
     2c8:	00 c0       	rjmp	.+0      	; 0x2ca <LCD_Char+0x16>
     2ca:	85 b3       	in	r24, 0x15	; 21
     2cc:	8b 7f       	andi	r24, 0xFB	; 251
     2ce:	85 bb       	out	0x15, r24	; 21
     2d0:	8f ec       	ldi	r24, 0xCF	; 207
     2d2:	97 e0       	ldi	r25, 0x07	; 7
     2d4:	01 97       	sbiw	r24, 0x01	; 1
     2d6:	f1 f7       	brne	.-4      	; 0x2d4 <LCD_Char+0x20>
     2d8:	00 c0       	rjmp	.+0      	; 0x2da <LCD_Char+0x26>
     2da:	00 00       	nop
     2dc:	08 95       	ret

000002de <LCD_Init>:
     2de:	84 b3       	in	r24, 0x14	; 20
     2e0:	87 60       	ori	r24, 0x07	; 7
     2e2:	84 bb       	out	0x14, r24	; 20
     2e4:	8f ef       	ldi	r24, 0xFF	; 255
     2e6:	87 bb       	out	0x17, r24	; 23
     2e8:	8f e9       	ldi	r24, 0x9F	; 159
     2ea:	9c e8       	ldi	r25, 0x8C	; 140
     2ec:	01 97       	sbiw	r24, 0x01	; 1
     2ee:	f1 f7       	brne	.-4      	; 0x2ec <LCD_Init+0xe>
     2f0:	00 c0       	rjmp	.+0      	; 0x2f2 <LCD_Init+0x14>
     2f2:	00 00       	nop
     2f4:	88 e3       	ldi	r24, 0x38	; 56
     2f6:	0e 94 45 01 	call	0x28a	; 0x28a <LCD_Command>
     2fa:	8c e0       	ldi	r24, 0x0C	; 12
     2fc:	0e 94 45 01 	call	0x28a	; 0x28a <LCD_Command>
     300:	86 e0       	ldi	r24, 0x06	; 6
     302:	0e 94 45 01 	call	0x28a	; 0x28a <LCD_Command>
     306:	81 e0       	ldi	r24, 0x01	; 1
     308:	0e 94 45 01 	call	0x28a	; 0x28a <LCD_Command>
     30c:	80 e8       	ldi	r24, 0x80	; 128
     30e:	0e 94 45 01 	call	0x28a	; 0x28a <LCD_Command>
     312:	08 95       	ret

00000314 <LCD_String>:
     314:	0f 93       	push	r16
     316:	1f 93       	push	r17
     318:	cf 93       	push	r28
     31a:	df 93       	push	r29
     31c:	8c 01       	movw	r16, r24
     31e:	c0 e0       	ldi	r28, 0x00	; 0
     320:	d0 e0       	ldi	r29, 0x00	; 0
     322:	03 c0       	rjmp	.+6      	; 0x32a <LCD_String+0x16>
     324:	0e 94 5a 01 	call	0x2b4	; 0x2b4 <LCD_Char>
     328:	21 96       	adiw	r28, 0x01	; 1
     32a:	f8 01       	movw	r30, r16
     32c:	ec 0f       	add	r30, r28
     32e:	fd 1f       	adc	r31, r29
     330:	80 81       	ld	r24, Z
     332:	81 11       	cpse	r24, r1
     334:	f7 cf       	rjmp	.-18     	; 0x324 <LCD_String+0x10>
     336:	df 91       	pop	r29
     338:	cf 91       	pop	r28
     33a:	1f 91       	pop	r17
     33c:	0f 91       	pop	r16
     33e:	08 95       	ret

00000340 <LCD_String_xy>:
     340:	cf 93       	push	r28
     342:	df 93       	push	r29
     344:	ea 01       	movw	r28, r20
     346:	81 30       	cpi	r24, 0x01	; 1
     348:	31 f4       	brne	.+12     	; 0x356 <LCD_String_xy+0x16>
     34a:	86 2f       	mov	r24, r22
     34c:	8f 70       	andi	r24, 0x0F	; 15
     34e:	80 68       	ori	r24, 0x80	; 128
     350:	0e 94 45 01 	call	0x28a	; 0x28a <LCD_Command>
     354:	07 c0       	rjmp	.+14     	; 0x364 <LCD_String_xy+0x24>
     356:	82 30       	cpi	r24, 0x02	; 2
     358:	29 f4       	brne	.+10     	; 0x364 <LCD_String_xy+0x24>
     35a:	86 2f       	mov	r24, r22
     35c:	8f 70       	andi	r24, 0x0F	; 15
     35e:	80 6c       	ori	r24, 0xC0	; 192
     360:	0e 94 45 01 	call	0x28a	; 0x28a <LCD_Command>
     364:	ce 01       	movw	r24, r28
     366:	0e 94 8a 01 	call	0x314	; 0x314 <LCD_String>
     36a:	df 91       	pop	r29
     36c:	cf 91       	pop	r28
     36e:	08 95       	ret

00000370 <LCD_Clear>:
     370:	81 e0       	ldi	r24, 0x01	; 1
     372:	0e 94 45 01 	call	0x28a	; 0x28a <LCD_Command>
     376:	08 95       	ret

00000378 <ADC_Init>:
     378:	8f ef       	ldi	r24, 0xFF	; 255
     37a:	87 bb       	out	0x17, r24	; 23
     37c:	1a ba       	out	0x1a, r1	; 26
     37e:	87 e8       	ldi	r24, 0x87	; 135
     380:	86 b9       	out	0x06, r24	; 6
     382:	80 ec       	ldi	r24, 0xC0	; 192
     384:	87 b9       	out	0x07, r24	; 7
     386:	08 95       	ret

00000388 <ADC_Read>:
     388:	86 b1       	in	r24, 0x06	; 6
     38a:	80 64       	ori	r24, 0x40	; 64
     38c:	86 b9       	out	0x06, r24	; 6
     38e:	34 9b       	sbis	0x06, 4	; 6
     390:	fe cf       	rjmp	.-4      	; 0x38e <ADC_Read+0x6>
     392:	8a e1       	ldi	r24, 0x1A	; 26
     394:	8a 95       	dec	r24
     396:	f1 f7       	brne	.-4      	; 0x394 <ADC_Read+0xc>
     398:	00 c0       	rjmp	.+0      	; 0x39a <ADC_Read+0x12>
     39a:	24 b1       	in	r18, 0x04	; 4
     39c:	85 b1       	in	r24, 0x05	; 5
     39e:	90 e0       	ldi	r25, 0x00	; 0
     3a0:	98 2f       	mov	r25, r24
     3a2:	88 27       	eor	r24, r24
     3a4:	82 0f       	add	r24, r18
     3a6:	91 1d       	adc	r25, r1
     3a8:	08 95       	ret

000003aa <get_altitude>:
     3aa:	f8 94       	cli
     3ac:	8f 5f       	subi	r24, 0xFF	; 255
     3ae:	90 e0       	ldi	r25, 0x00	; 0
     3b0:	07 c0       	rjmp	.+14     	; 0x3c0 <get_altitude+0x16>
     3b2:	e9 2f       	mov	r30, r25
     3b4:	f0 e0       	ldi	r31, 0x00	; 0
     3b6:	ec 51       	subi	r30, 0x1C	; 28
     3b8:	fe 4f       	sbci	r31, 0xFE	; 254
     3ba:	20 83       	st	Z, r18
     3bc:	9f 5f       	subi	r25, 0xFF	; 255
     3be:	8f 5f       	subi	r24, 0xFF	; 255
     3c0:	48 2f       	mov	r20, r24
     3c2:	50 e0       	ldi	r21, 0x00	; 0
     3c4:	fa 01       	movw	r30, r20
     3c6:	e7 51       	subi	r30, 0x17	; 23
     3c8:	ff 4f       	sbci	r31, 0xFF	; 255
     3ca:	20 81       	ld	r18, Z
     3cc:	2c 32       	cpi	r18, 0x2C	; 44
     3ce:	89 f7       	brne	.-30     	; 0x3b2 <get_altitude+0x8>
     3d0:	e9 2f       	mov	r30, r25
     3d2:	f0 e0       	ldi	r31, 0x00	; 0
     3d4:	da 01       	movw	r26, r20
     3d6:	a6 51       	subi	r26, 0x16	; 22
     3d8:	bf 4f       	sbci	r27, 0xFF	; 255
     3da:	8c 91       	ld	r24, X
     3dc:	ec 51       	subi	r30, 0x1C	; 28
     3de:	fe 4f       	sbci	r31, 0xFE	; 254
     3e0:	80 83       	st	Z, r24
     3e2:	78 94       	sei
     3e4:	08 95       	ret

000003e6 <convert_to_degrees>:
     3e6:	8f 92       	push	r8
     3e8:	9f 92       	push	r9
     3ea:	af 92       	push	r10
     3ec:	bf 92       	push	r11
     3ee:	cf 92       	push	r12
     3f0:	df 92       	push	r13
     3f2:	ef 92       	push	r14
     3f4:	ff 92       	push	r15
     3f6:	0f 93       	push	r16
     3f8:	1f 93       	push	r17
     3fa:	0e 94 64 09 	call	0x12c8	; 0x12c8 <atof>
     3fe:	20 e0       	ldi	r18, 0x00	; 0
     400:	30 e0       	ldi	r19, 0x00	; 0
     402:	48 ec       	ldi	r20, 0xC8	; 200
     404:	52 e4       	ldi	r21, 0x42	; 66
     406:	0e 94 78 07 	call	0xef0	; 0xef0 <__divsf3>
     40a:	6b 01       	movw	r12, r22
     40c:	7c 01       	movw	r14, r24
     40e:	0e 94 ea 07 	call	0xfd4	; 0xfd4 <__fixsfsi>
     412:	07 2e       	mov	r0, r23
     414:	00 0c       	add	r0, r0
     416:	88 0b       	sbc	r24, r24
     418:	99 0b       	sbc	r25, r25
     41a:	0e 94 22 08 	call	0x1044	; 0x1044 <__floatsisf>
     41e:	4b 01       	movw	r8, r22
     420:	5c 01       	movw	r10, r24
     422:	9b 01       	movw	r18, r22
     424:	ac 01       	movw	r20, r24
     426:	c7 01       	movw	r24, r14
     428:	b6 01       	movw	r22, r12
     42a:	0e 94 06 07 	call	0xe0c	; 0xe0c <__subsf3>
     42e:	2a e9       	ldi	r18, 0x9A	; 154
     430:	39 e9       	ldi	r19, 0x99	; 153
     432:	49 e1       	ldi	r20, 0x19	; 25
     434:	5f e3       	ldi	r21, 0x3F	; 63
     436:	0e 94 78 07 	call	0xef0	; 0xef0 <__divsf3>
     43a:	9b 01       	movw	r18, r22
     43c:	ac 01       	movw	r20, r24
     43e:	c5 01       	movw	r24, r10
     440:	b4 01       	movw	r22, r8
     442:	0e 94 07 07 	call	0xe0e	; 0xe0e <__addsf3>
     446:	0b e8       	ldi	r16, 0x8B	; 139
     448:	11 e0       	ldi	r17, 0x01	; 1
     44a:	24 e0       	ldi	r18, 0x04	; 4
     44c:	46 e0       	ldi	r20, 0x06	; 6
     44e:	0e 94 44 09 	call	0x1288	; 0x1288 <dtostrf>
     452:	1f 91       	pop	r17
     454:	0f 91       	pop	r16
     456:	ff 90       	pop	r15
     458:	ef 90       	pop	r14
     45a:	df 90       	pop	r13
     45c:	cf 90       	pop	r12
     45e:	bf 90       	pop	r11
     460:	af 90       	pop	r10
     462:	9f 90       	pop	r9
     464:	8f 90       	pop	r8
     466:	08 95       	ret

00000468 <get_latitude>:
     468:	f8 94       	cli
     46a:	8f 5f       	subi	r24, 0xFF	; 255
     46c:	90 e0       	ldi	r25, 0x00	; 0
     46e:	07 c0       	rjmp	.+14     	; 0x47e <get_latitude+0x16>
     470:	e9 2f       	mov	r30, r25
     472:	f0 e0       	ldi	r31, 0x00	; 0
     474:	e3 54       	subi	r30, 0x43	; 67
     476:	fe 4f       	sbci	r31, 0xFE	; 254
     478:	20 83       	st	Z, r18
     47a:	9f 5f       	subi	r25, 0xFF	; 255
     47c:	8f 5f       	subi	r24, 0xFF	; 255
     47e:	e8 2f       	mov	r30, r24
     480:	f0 e0       	ldi	r31, 0x00	; 0
     482:	e7 51       	subi	r30, 0x17	; 23
     484:	ff 4f       	sbci	r31, 0xFF	; 255
     486:	20 81       	ld	r18, Z
     488:	2c 32       	cpi	r18, 0x2C	; 44
     48a:	91 f7       	brne	.-28     	; 0x470 <get_latitude+0x8>
     48c:	31 e0       	ldi	r19, 0x01	; 1
     48e:	39 0f       	add	r19, r25
     490:	e9 2f       	mov	r30, r25
     492:	f0 e0       	ldi	r31, 0x00	; 0
     494:	8f 5f       	subi	r24, 0xFF	; 255
     496:	e3 54       	subi	r30, 0x43	; 67
     498:	fe 4f       	sbci	r31, 0xFE	; 254
     49a:	20 83       	st	Z, r18
     49c:	23 2f       	mov	r18, r19
     49e:	30 e0       	ldi	r19, 0x00	; 0
     4a0:	e8 2f       	mov	r30, r24
     4a2:	f0 e0       	ldi	r31, 0x00	; 0
     4a4:	e7 51       	subi	r30, 0x17	; 23
     4a6:	ff 4f       	sbci	r31, 0xFF	; 255
     4a8:	80 81       	ld	r24, Z
     4aa:	f9 01       	movw	r30, r18
     4ac:	e3 54       	subi	r30, 0x43	; 67
     4ae:	fe 4f       	sbci	r31, 0xFE	; 254
     4b0:	80 83       	st	Z, r24
     4b2:	8d eb       	ldi	r24, 0xBD	; 189
     4b4:	91 e0       	ldi	r25, 0x01	; 1
     4b6:	0e 94 f3 01 	call	0x3e6	; 0x3e6 <convert_to_degrees>
     4ba:	78 94       	sei
     4bc:	08 95       	ret

000004be <get_longitude>:
     4be:	f8 94       	cli
     4c0:	8f 5f       	subi	r24, 0xFF	; 255
     4c2:	90 e0       	ldi	r25, 0x00	; 0
     4c4:	07 c0       	rjmp	.+14     	; 0x4d4 <get_longitude+0x16>
     4c6:	e9 2f       	mov	r30, r25
     4c8:	f0 e0       	ldi	r31, 0x00	; 0
     4ca:	e1 56       	subi	r30, 0x61	; 97
     4cc:	fe 4f       	sbci	r31, 0xFE	; 254
     4ce:	20 83       	st	Z, r18
     4d0:	9f 5f       	subi	r25, 0xFF	; 255
     4d2:	8f 5f       	subi	r24, 0xFF	; 255
     4d4:	e8 2f       	mov	r30, r24
     4d6:	f0 e0       	ldi	r31, 0x00	; 0
     4d8:	e7 51       	subi	r30, 0x17	; 23
     4da:	ff 4f       	sbci	r31, 0xFF	; 255
     4dc:	20 81       	ld	r18, Z
     4de:	2c 32       	cpi	r18, 0x2C	; 44
     4e0:	91 f7       	brne	.-28     	; 0x4c6 <get_longitude+0x8>
     4e2:	31 e0       	ldi	r19, 0x01	; 1
     4e4:	39 0f       	add	r19, r25
     4e6:	e9 2f       	mov	r30, r25
     4e8:	f0 e0       	ldi	r31, 0x00	; 0
     4ea:	8f 5f       	subi	r24, 0xFF	; 255
     4ec:	e1 56       	subi	r30, 0x61	; 97
     4ee:	fe 4f       	sbci	r31, 0xFE	; 254
     4f0:	20 83       	st	Z, r18
     4f2:	23 2f       	mov	r18, r19
     4f4:	30 e0       	ldi	r19, 0x00	; 0
     4f6:	e8 2f       	mov	r30, r24
     4f8:	f0 e0       	ldi	r31, 0x00	; 0
     4fa:	e7 51       	subi	r30, 0x17	; 23
     4fc:	ff 4f       	sbci	r31, 0xFF	; 255
     4fe:	80 81       	ld	r24, Z
     500:	f9 01       	movw	r30, r18
     502:	e1 56       	subi	r30, 0x61	; 97
     504:	fe 4f       	sbci	r31, 0xFE	; 254
     506:	80 83       	st	Z, r24
     508:	8f e9       	ldi	r24, 0x9F	; 159
     50a:	91 e0       	ldi	r25, 0x01	; 1
     50c:	0e 94 f3 01 	call	0x3e6	; 0x3e6 <convert_to_degrees>
     510:	78 94       	sei
     512:	08 95       	ret

00000514 <getAllValuesGps>:
     514:	cf 93       	push	r28
     516:	df 93       	push	r29
     518:	c0 ed       	ldi	r28, 0xD0	; 208
     51a:	d1 e0       	ldi	r29, 0x01	; 1
     51c:	8f 81       	ldd	r24, Y+7	; 0x07
     51e:	90 e0       	ldi	r25, 0x00	; 0
     520:	0e 94 d5 01 	call	0x3aa	; 0x3aa <get_altitude>
     524:	8a 81       	ldd	r24, Y+2	; 0x02
     526:	90 e0       	ldi	r25, 0x00	; 0
     528:	0e 94 5f 02 	call	0x4be	; 0x4be <get_longitude>
     52c:	88 81       	ld	r24, Y
     52e:	90 e0       	ldi	r25, 0x00	; 0
     530:	0e 94 34 02 	call	0x468	; 0x468 <get_latitude>
     534:	df 91       	pop	r29
     536:	cf 91       	pop	r28
     538:	08 95       	ret

0000053a <__vector_13>:
     53a:	1f 92       	push	r1
     53c:	0f 92       	push	r0
     53e:	0f b6       	in	r0, 0x3f	; 63
     540:	0f 92       	push	r0
     542:	11 24       	eor	r1, r1
     544:	2f 93       	push	r18
     546:	3f 93       	push	r19
     548:	4f 93       	push	r20
     54a:	5f 93       	push	r21
     54c:	8f 93       	push	r24
     54e:	9f 93       	push	r25
     550:	ef 93       	push	r30
     552:	ff 93       	push	r31
     554:	9f b7       	in	r25, 0x3f	; 63
     556:	f8 94       	cli
     558:	8c b1       	in	r24, 0x0c	; 12
     55a:	84 32       	cpi	r24, 0x24	; 36
     55c:	59 f4       	brne	.+22     	; 0x574 <__vector_13+0x3a>
     55e:	10 92 b9 01 	sts	0x01B9, r1	; 0x8001b9 <GGA_Index+0x1>
     562:	10 92 b8 01 	sts	0x01B8, r1	; 0x8001b8 <GGA_Index>
     566:	10 92 b7 01 	sts	0x01B7, r1	; 0x8001b7 <CommaCounter+0x1>
     56a:	10 92 b6 01 	sts	0x01B6, r1	; 0x8001b6 <CommaCounter>
     56e:	10 92 e4 00 	sts	0x00E4, r1	; 0x8000e4 <__data_end>
     572:	45 c0       	rjmp	.+138    	; 0x5fe <__vector_13+0xc4>
     574:	20 91 e4 00 	lds	r18, 0x00E4	; 0x8000e4 <__data_end>
     578:	22 23       	and	r18, r18
     57a:	29 f1       	breq	.+74     	; 0x5c6 <__vector_13+0x8c>
     57c:	8c 32       	cpi	r24, 0x2C	; 44
     57e:	99 f4       	brne	.+38     	; 0x5a6 <__vector_13+0x6c>
     580:	20 91 b6 01 	lds	r18, 0x01B6	; 0x8001b6 <CommaCounter>
     584:	30 91 b7 01 	lds	r19, 0x01B7	; 0x8001b7 <CommaCounter+0x1>
     588:	a9 01       	movw	r20, r18
     58a:	4f 5f       	subi	r20, 0xFF	; 255
     58c:	5f 4f       	sbci	r21, 0xFF	; 255
     58e:	50 93 b7 01 	sts	0x01B7, r21	; 0x8001b7 <CommaCounter+0x1>
     592:	40 93 b6 01 	sts	0x01B6, r20	; 0x8001b6 <CommaCounter>
     596:	40 91 b8 01 	lds	r20, 0x01B8	; 0x8001b8 <GGA_Index>
     59a:	50 91 b9 01 	lds	r21, 0x01B9	; 0x8001b9 <GGA_Index+0x1>
     59e:	f9 01       	movw	r30, r18
     5a0:	e0 53       	subi	r30, 0x30	; 48
     5a2:	fe 4f       	sbci	r31, 0xFE	; 254
     5a4:	40 83       	st	Z, r20
     5a6:	20 91 b8 01 	lds	r18, 0x01B8	; 0x8001b8 <GGA_Index>
     5aa:	30 91 b9 01 	lds	r19, 0x01B9	; 0x8001b9 <GGA_Index+0x1>
     5ae:	a9 01       	movw	r20, r18
     5b0:	4f 5f       	subi	r20, 0xFF	; 255
     5b2:	5f 4f       	sbci	r21, 0xFF	; 255
     5b4:	50 93 b9 01 	sts	0x01B9, r21	; 0x8001b9 <GGA_Index+0x1>
     5b8:	40 93 b8 01 	sts	0x01B8, r20	; 0x8001b8 <GGA_Index>
     5bc:	f9 01       	movw	r30, r18
     5be:	e7 51       	subi	r30, 0x17	; 23
     5c0:	ff 4f       	sbci	r31, 0xFF	; 255
     5c2:	80 83       	st	Z, r24
     5c4:	1c c0       	rjmp	.+56     	; 0x5fe <__vector_13+0xc4>
     5c6:	20 91 ba 01 	lds	r18, 0x01BA	; 0x8001ba <GGA_CODE>
     5ca:	27 34       	cpi	r18, 0x47	; 71
     5cc:	89 f4       	brne	.+34     	; 0x5f0 <__vector_13+0xb6>
     5ce:	20 91 bb 01 	lds	r18, 0x01BB	; 0x8001bb <GGA_CODE+0x1>
     5d2:	27 34       	cpi	r18, 0x47	; 71
     5d4:	69 f4       	brne	.+26     	; 0x5f0 <__vector_13+0xb6>
     5d6:	20 91 bc 01 	lds	r18, 0x01BC	; 0x8001bc <GGA_CODE+0x2>
     5da:	21 34       	cpi	r18, 0x41	; 65
     5dc:	49 f4       	brne	.+18     	; 0x5f0 <__vector_13+0xb6>
     5de:	81 e0       	ldi	r24, 0x01	; 1
     5e0:	80 93 e4 00 	sts	0x00E4, r24	; 0x8000e4 <__data_end>
     5e4:	ea eb       	ldi	r30, 0xBA	; 186
     5e6:	f1 e0       	ldi	r31, 0x01	; 1
     5e8:	10 82       	st	Z, r1
     5ea:	11 82       	std	Z+1, r1	; 0x01
     5ec:	12 82       	std	Z+2, r1	; 0x02
     5ee:	07 c0       	rjmp	.+14     	; 0x5fe <__vector_13+0xc4>
     5f0:	ea eb       	ldi	r30, 0xBA	; 186
     5f2:	f1 e0       	ldi	r31, 0x01	; 1
     5f4:	21 81       	ldd	r18, Z+1	; 0x01
     5f6:	20 83       	st	Z, r18
     5f8:	22 81       	ldd	r18, Z+2	; 0x02
     5fa:	21 83       	std	Z+1, r18	; 0x01
     5fc:	82 83       	std	Z+2, r24	; 0x02
     5fe:	9f bf       	out	0x3f, r25	; 63
     600:	ff 91       	pop	r31
     602:	ef 91       	pop	r30
     604:	9f 91       	pop	r25
     606:	8f 91       	pop	r24
     608:	5f 91       	pop	r21
     60a:	4f 91       	pop	r20
     60c:	3f 91       	pop	r19
     60e:	2f 91       	pop	r18
     610:	0f 90       	pop	r0
     612:	0f be       	out	0x3f, r0	; 63
     614:	0f 90       	pop	r0
     616:	1f 90       	pop	r1
     618:	18 95       	reti

0000061a <MPU6050_Init>:
     61a:	2f e7       	ldi	r18, 0x7F	; 127
     61c:	89 ea       	ldi	r24, 0xA9	; 169
     61e:	93 e0       	ldi	r25, 0x03	; 3
     620:	21 50       	subi	r18, 0x01	; 1
     622:	80 40       	sbci	r24, 0x00	; 0
     624:	90 40       	sbci	r25, 0x00	; 0
     626:	e1 f7       	brne	.-8      	; 0x620 <MPU6050_Init+0x6>
     628:	00 c0       	rjmp	.+0      	; 0x62a <MPU6050_Init+0x10>
     62a:	00 00       	nop
     62c:	80 ed       	ldi	r24, 0xD0	; 208
     62e:	0e 94 0b 01 	call	0x216	; 0x216 <I2C_Start_Wait>
     632:	89 e1       	ldi	r24, 0x19	; 25
     634:	0e 94 25 01 	call	0x24a	; 0x24a <I2C_Write>
     638:	87 e0       	ldi	r24, 0x07	; 7
     63a:	0e 94 25 01 	call	0x24a	; 0x24a <I2C_Write>
     63e:	0e 94 05 01 	call	0x20a	; 0x20a <I2C_Stop>
     642:	80 ed       	ldi	r24, 0xD0	; 208
     644:	0e 94 0b 01 	call	0x216	; 0x216 <I2C_Start_Wait>
     648:	8b e6       	ldi	r24, 0x6B	; 107
     64a:	0e 94 25 01 	call	0x24a	; 0x24a <I2C_Write>
     64e:	81 e0       	ldi	r24, 0x01	; 1
     650:	0e 94 25 01 	call	0x24a	; 0x24a <I2C_Write>
     654:	0e 94 05 01 	call	0x20a	; 0x20a <I2C_Stop>
     658:	80 ed       	ldi	r24, 0xD0	; 208
     65a:	0e 94 0b 01 	call	0x216	; 0x216 <I2C_Start_Wait>
     65e:	8a e1       	ldi	r24, 0x1A	; 26
     660:	0e 94 25 01 	call	0x24a	; 0x24a <I2C_Write>
     664:	80 e0       	ldi	r24, 0x00	; 0
     666:	0e 94 25 01 	call	0x24a	; 0x24a <I2C_Write>
     66a:	0e 94 05 01 	call	0x20a	; 0x20a <I2C_Stop>
     66e:	80 ed       	ldi	r24, 0xD0	; 208
     670:	0e 94 0b 01 	call	0x216	; 0x216 <I2C_Start_Wait>
     674:	8b e1       	ldi	r24, 0x1B	; 27
     676:	0e 94 25 01 	call	0x24a	; 0x24a <I2C_Write>
     67a:	88 e1       	ldi	r24, 0x18	; 24
     67c:	0e 94 25 01 	call	0x24a	; 0x24a <I2C_Write>
     680:	0e 94 05 01 	call	0x20a	; 0x20a <I2C_Stop>
     684:	80 ed       	ldi	r24, 0xD0	; 208
     686:	0e 94 0b 01 	call	0x216	; 0x216 <I2C_Start_Wait>
     68a:	88 e3       	ldi	r24, 0x38	; 56
     68c:	0e 94 25 01 	call	0x24a	; 0x24a <I2C_Write>
     690:	81 e0       	ldi	r24, 0x01	; 1
     692:	0e 94 25 01 	call	0x24a	; 0x24a <I2C_Write>
     696:	0e 94 05 01 	call	0x20a	; 0x20a <I2C_Stop>
     69a:	08 95       	ret

0000069c <MPU_Start_Loc>:
     69c:	80 ed       	ldi	r24, 0xD0	; 208
     69e:	0e 94 0b 01 	call	0x216	; 0x216 <I2C_Start_Wait>
     6a2:	8b e3       	ldi	r24, 0x3B	; 59
     6a4:	0e 94 25 01 	call	0x24a	; 0x24a <I2C_Write>
     6a8:	81 ed       	ldi	r24, 0xD1	; 209
     6aa:	0e 94 e8 00 	call	0x1d0	; 0x1d0 <I2C_Repeated_Start>
     6ae:	08 95       	ret

000006b0 <Read_RawValue>:
     6b0:	cf 93       	push	r28
     6b2:	df 93       	push	r29
     6b4:	0e 94 4e 03 	call	0x69c	; 0x69c <MPU_Start_Loc>
     6b8:	0e 94 37 01 	call	0x26e	; 0x26e <I2C_Read_Ack>
     6bc:	c8 2f       	mov	r28, r24
     6be:	d0 e0       	ldi	r29, 0x00	; 0
     6c0:	dc 2f       	mov	r29, r28
     6c2:	cc 27       	eor	r28, r28
     6c4:	0e 94 37 01 	call	0x26e	; 0x26e <I2C_Read_Ack>
     6c8:	be 01       	movw	r22, r28
     6ca:	68 2b       	or	r22, r24
     6cc:	07 2e       	mov	r0, r23
     6ce:	00 0c       	add	r0, r0
     6d0:	88 0b       	sbc	r24, r24
     6d2:	99 0b       	sbc	r25, r25
     6d4:	0e 94 22 08 	call	0x1044	; 0x1044 <__floatsisf>
     6d8:	60 93 b2 01 	sts	0x01B2, r22	; 0x8001b2 <Acc_x>
     6dc:	70 93 b3 01 	sts	0x01B3, r23	; 0x8001b3 <Acc_x+0x1>
     6e0:	80 93 b4 01 	sts	0x01B4, r24	; 0x8001b4 <Acc_x+0x2>
     6e4:	90 93 b5 01 	sts	0x01B5, r25	; 0x8001b5 <Acc_x+0x3>
     6e8:	0e 94 37 01 	call	0x26e	; 0x26e <I2C_Read_Ack>
     6ec:	c8 2f       	mov	r28, r24
     6ee:	d0 e0       	ldi	r29, 0x00	; 0
     6f0:	dc 2f       	mov	r29, r28
     6f2:	cc 27       	eor	r28, r28
     6f4:	0e 94 37 01 	call	0x26e	; 0x26e <I2C_Read_Ack>
     6f8:	be 01       	movw	r22, r28
     6fa:	68 2b       	or	r22, r24
     6fc:	07 2e       	mov	r0, r23
     6fe:	00 0c       	add	r0, r0
     700:	88 0b       	sbc	r24, r24
     702:	99 0b       	sbc	r25, r25
     704:	0e 94 22 08 	call	0x1044	; 0x1044 <__floatsisf>
     708:	60 93 87 01 	sts	0x0187, r22	; 0x800187 <Acc_y>
     70c:	70 93 88 01 	sts	0x0188, r23	; 0x800188 <Acc_y+0x1>
     710:	80 93 89 01 	sts	0x0189, r24	; 0x800189 <Acc_y+0x2>
     714:	90 93 8a 01 	sts	0x018A, r25	; 0x80018a <Acc_y+0x3>
     718:	0e 94 37 01 	call	0x26e	; 0x26e <I2C_Read_Ack>
     71c:	c8 2f       	mov	r28, r24
     71e:	d0 e0       	ldi	r29, 0x00	; 0
     720:	dc 2f       	mov	r29, r28
     722:	cc 27       	eor	r28, r28
     724:	0e 94 37 01 	call	0x26e	; 0x26e <I2C_Read_Ack>
     728:	be 01       	movw	r22, r28
     72a:	68 2b       	or	r22, r24
     72c:	07 2e       	mov	r0, r23
     72e:	00 0c       	add	r0, r0
     730:	88 0b       	sbc	r24, r24
     732:	99 0b       	sbc	r25, r25
     734:	0e 94 22 08 	call	0x1044	; 0x1044 <__floatsisf>
     738:	60 93 e5 00 	sts	0x00E5, r22	; 0x8000e5 <Acc_z>
     73c:	70 93 e6 00 	sts	0x00E6, r23	; 0x8000e6 <Acc_z+0x1>
     740:	80 93 e7 00 	sts	0x00E7, r24	; 0x8000e7 <Acc_z+0x2>
     744:	90 93 e8 00 	sts	0x00E8, r25	; 0x8000e8 <Acc_z+0x3>
     748:	0e 94 37 01 	call	0x26e	; 0x26e <I2C_Read_Ack>
     74c:	c8 2f       	mov	r28, r24
     74e:	d0 e0       	ldi	r29, 0x00	; 0
     750:	dc 2f       	mov	r29, r28
     752:	cc 27       	eor	r28, r28
     754:	0e 94 37 01 	call	0x26e	; 0x26e <I2C_Read_Ack>
     758:	be 01       	movw	r22, r28
     75a:	68 2b       	or	r22, r24
     75c:	07 2e       	mov	r0, r23
     75e:	00 0c       	add	r0, r0
     760:	88 0b       	sbc	r24, r24
     762:	99 0b       	sbc	r25, r25
     764:	0e 94 22 08 	call	0x1044	; 0x1044 <__floatsisf>
     768:	60 93 83 01 	sts	0x0183, r22	; 0x800183 <Temperature>
     76c:	70 93 84 01 	sts	0x0184, r23	; 0x800184 <Temperature+0x1>
     770:	80 93 85 01 	sts	0x0185, r24	; 0x800185 <Temperature+0x2>
     774:	90 93 86 01 	sts	0x0186, r25	; 0x800186 <Temperature+0x3>
     778:	0e 94 37 01 	call	0x26e	; 0x26e <I2C_Read_Ack>
     77c:	c8 2f       	mov	r28, r24
     77e:	d0 e0       	ldi	r29, 0x00	; 0
     780:	dc 2f       	mov	r29, r28
     782:	cc 27       	eor	r28, r28
     784:	0e 94 37 01 	call	0x26e	; 0x26e <I2C_Read_Ack>
     788:	be 01       	movw	r22, r28
     78a:	68 2b       	or	r22, r24
     78c:	07 2e       	mov	r0, r23
     78e:	00 0c       	add	r0, r0
     790:	88 0b       	sbc	r24, r24
     792:	99 0b       	sbc	r25, r25
     794:	0e 94 22 08 	call	0x1044	; 0x1044 <__floatsisf>
     798:	60 93 7f 01 	sts	0x017F, r22	; 0x80017f <Gyro_x>
     79c:	70 93 80 01 	sts	0x0180, r23	; 0x800180 <Gyro_x+0x1>
     7a0:	80 93 81 01 	sts	0x0181, r24	; 0x800181 <Gyro_x+0x2>
     7a4:	90 93 82 01 	sts	0x0182, r25	; 0x800182 <Gyro_x+0x3>
     7a8:	0e 94 37 01 	call	0x26e	; 0x26e <I2C_Read_Ack>
     7ac:	c8 2f       	mov	r28, r24
     7ae:	d0 e0       	ldi	r29, 0x00	; 0
     7b0:	dc 2f       	mov	r29, r28
     7b2:	cc 27       	eor	r28, r28
     7b4:	0e 94 37 01 	call	0x26e	; 0x26e <I2C_Read_Ack>
     7b8:	be 01       	movw	r22, r28
     7ba:	68 2b       	or	r22, r24
     7bc:	07 2e       	mov	r0, r23
     7be:	00 0c       	add	r0, r0
     7c0:	88 0b       	sbc	r24, r24
     7c2:	99 0b       	sbc	r25, r25
     7c4:	0e 94 22 08 	call	0x1044	; 0x1044 <__floatsisf>
     7c8:	60 93 cc 01 	sts	0x01CC, r22	; 0x8001cc <Gyro_y>
     7cc:	70 93 cd 01 	sts	0x01CD, r23	; 0x8001cd <Gyro_y+0x1>
     7d0:	80 93 ce 01 	sts	0x01CE, r24	; 0x8001ce <Gyro_y+0x2>
     7d4:	90 93 cf 01 	sts	0x01CF, r25	; 0x8001cf <Gyro_y+0x3>
     7d8:	0e 94 37 01 	call	0x26e	; 0x26e <I2C_Read_Ack>
     7dc:	c8 2f       	mov	r28, r24
     7de:	d0 e0       	ldi	r29, 0x00	; 0
     7e0:	dc 2f       	mov	r29, r28
     7e2:	cc 27       	eor	r28, r28
     7e4:	0e 94 3e 01 	call	0x27c	; 0x27c <I2C_Read_Nack>
     7e8:	be 01       	movw	r22, r28
     7ea:	68 2b       	or	r22, r24
     7ec:	07 2e       	mov	r0, r23
     7ee:	00 0c       	add	r0, r0
     7f0:	88 0b       	sbc	r24, r24
     7f2:	99 0b       	sbc	r25, r25
     7f4:	0e 94 22 08 	call	0x1044	; 0x1044 <__floatsisf>
     7f8:	60 93 ae 01 	sts	0x01AE, r22	; 0x8001ae <Gyro_z>
     7fc:	70 93 af 01 	sts	0x01AF, r23	; 0x8001af <Gyro_z+0x1>
     800:	80 93 b0 01 	sts	0x01B0, r24	; 0x8001b0 <Gyro_z+0x2>
     804:	90 93 b1 01 	sts	0x01B1, r25	; 0x8001b1 <Gyro_z+0x3>
     808:	0e 94 05 01 	call	0x20a	; 0x20a <I2C_Stop>
     80c:	df 91       	pop	r29
     80e:	cf 91       	pop	r28
     810:	08 95       	ret

00000812 <isDriverSleepingGyro>:
     812:	4f 92       	push	r4
     814:	5f 92       	push	r5
     816:	6f 92       	push	r6
     818:	7f 92       	push	r7
     81a:	8f 92       	push	r8
     81c:	9f 92       	push	r9
     81e:	af 92       	push	r10
     820:	bf 92       	push	r11
     822:	cf 92       	push	r12
     824:	df 92       	push	r13
     826:	ef 92       	push	r14
     828:	ff 92       	push	r15
     82a:	0f 93       	push	r16
     82c:	1f 93       	push	r17
     82e:	4b 01       	movw	r8, r22
     830:	5c 01       	movw	r10, r24
     832:	29 01       	movw	r4, r18
     834:	3a 01       	movw	r6, r20
     836:	67 01       	movw	r12, r14
     838:	78 01       	movw	r14, r16
     83a:	20 e0       	ldi	r18, 0x00	; 0
     83c:	30 e0       	ldi	r19, 0x00	; 0
     83e:	40 e0       	ldi	r20, 0x00	; 0
     840:	50 ec       	ldi	r21, 0xC0	; 192
     842:	c7 01       	movw	r24, r14
     844:	b6 01       	movw	r22, r12
     846:	0e 94 d2 08 	call	0x11a4	; 0x11a4 <__gesf2>
     84a:	18 16       	cp	r1, r24
     84c:	ac f5       	brge	.+106    	; 0x8b8 <__stack+0x59>
     84e:	20 e0       	ldi	r18, 0x00	; 0
     850:	30 e0       	ldi	r19, 0x00	; 0
     852:	40 e0       	ldi	r20, 0x00	; 0
     854:	50 e4       	ldi	r21, 0x40	; 64
     856:	c7 01       	movw	r24, r14
     858:	b6 01       	movw	r22, r12
     85a:	0e 94 73 07 	call	0xee6	; 0xee6 <__cmpsf2>
     85e:	88 23       	and	r24, r24
     860:	74 f5       	brge	.+92     	; 0x8be <__stack+0x5f>
     862:	20 e0       	ldi	r18, 0x00	; 0
     864:	30 e0       	ldi	r19, 0x00	; 0
     866:	40 e4       	ldi	r20, 0x40	; 64
     868:	50 ec       	ldi	r21, 0xC0	; 192
     86a:	c5 01       	movw	r24, r10
     86c:	b4 01       	movw	r22, r8
     86e:	0e 94 d2 08 	call	0x11a4	; 0x11a4 <__gesf2>
     872:	18 16       	cp	r1, r24
     874:	3c f5       	brge	.+78     	; 0x8c4 <__stack+0x65>
     876:	20 e0       	ldi	r18, 0x00	; 0
     878:	30 e0       	ldi	r19, 0x00	; 0
     87a:	40 e4       	ldi	r20, 0x40	; 64
     87c:	50 e4       	ldi	r21, 0x40	; 64
     87e:	c5 01       	movw	r24, r10
     880:	b4 01       	movw	r22, r8
     882:	0e 94 73 07 	call	0xee6	; 0xee6 <__cmpsf2>
     886:	88 23       	and	r24, r24
     888:	04 f5       	brge	.+64     	; 0x8ca <__stack+0x6b>
     88a:	20 e0       	ldi	r18, 0x00	; 0
     88c:	30 e0       	ldi	r19, 0x00	; 0
     88e:	40 e0       	ldi	r20, 0x00	; 0
     890:	51 e4       	ldi	r21, 0x41	; 65
     892:	c3 01       	movw	r24, r6
     894:	b2 01       	movw	r22, r4
     896:	0e 94 d2 08 	call	0x11a4	; 0x11a4 <__gesf2>
     89a:	88 23       	and	r24, r24
     89c:	cc f0       	brlt	.+50     	; 0x8d0 <__stack+0x71>
     89e:	20 e0       	ldi	r18, 0x00	; 0
     8a0:	30 e0       	ldi	r19, 0x00	; 0
     8a2:	40 e1       	ldi	r20, 0x10	; 16
     8a4:	51 e4       	ldi	r21, 0x41	; 65
     8a6:	c3 01       	movw	r24, r6
     8a8:	b2 01       	movw	r22, r4
     8aa:	0e 94 73 07 	call	0xee6	; 0xee6 <__cmpsf2>
     8ae:	18 16       	cp	r1, r24
     8b0:	94 f4       	brge	.+36     	; 0x8d6 <__stack+0x77>
     8b2:	81 e0       	ldi	r24, 0x01	; 1
     8b4:	90 e0       	ldi	r25, 0x00	; 0
     8b6:	11 c0       	rjmp	.+34     	; 0x8da <__stack+0x7b>
     8b8:	81 e0       	ldi	r24, 0x01	; 1
     8ba:	90 e0       	ldi	r25, 0x00	; 0
     8bc:	0e c0       	rjmp	.+28     	; 0x8da <__stack+0x7b>
     8be:	81 e0       	ldi	r24, 0x01	; 1
     8c0:	90 e0       	ldi	r25, 0x00	; 0
     8c2:	0b c0       	rjmp	.+22     	; 0x8da <__stack+0x7b>
     8c4:	81 e0       	ldi	r24, 0x01	; 1
     8c6:	90 e0       	ldi	r25, 0x00	; 0
     8c8:	08 c0       	rjmp	.+16     	; 0x8da <__stack+0x7b>
     8ca:	81 e0       	ldi	r24, 0x01	; 1
     8cc:	90 e0       	ldi	r25, 0x00	; 0
     8ce:	05 c0       	rjmp	.+10     	; 0x8da <__stack+0x7b>
     8d0:	81 e0       	ldi	r24, 0x01	; 1
     8d2:	90 e0       	ldi	r25, 0x00	; 0
     8d4:	02 c0       	rjmp	.+4      	; 0x8da <__stack+0x7b>
     8d6:	80 e0       	ldi	r24, 0x00	; 0
     8d8:	90 e0       	ldi	r25, 0x00	; 0
     8da:	1f 91       	pop	r17
     8dc:	0f 91       	pop	r16
     8de:	ff 90       	pop	r15
     8e0:	ef 90       	pop	r14
     8e2:	df 90       	pop	r13
     8e4:	cf 90       	pop	r12
     8e6:	bf 90       	pop	r11
     8e8:	af 90       	pop	r10
     8ea:	9f 90       	pop	r9
     8ec:	8f 90       	pop	r8
     8ee:	7f 90       	pop	r7
     8f0:	6f 90       	pop	r6
     8f2:	5f 90       	pop	r5
     8f4:	4f 90       	pop	r4
     8f6:	08 95       	ret

000008f8 <PWM_init>:
     8f8:	89 e6       	ldi	r24, 0x69	; 105
     8fa:	83 bf       	out	0x33, r24	; 51
     8fc:	87 b3       	in	r24, 0x17	; 23
     8fe:	88 60       	ori	r24, 0x08	; 8
     900:	87 bb       	out	0x17, r24	; 23
     902:	08 95       	ret

00000904 <USART_initialize>:
     904:	8a b1       	in	r24, 0x0a	; 10
     906:	88 61       	ori	r24, 0x18	; 24
     908:	8a b9       	out	0x0a, r24	; 10
     90a:	80 b5       	in	r24, 0x20	; 32
     90c:	86 68       	ori	r24, 0x86	; 134
     90e:	80 bd       	out	0x20, r24	; 32
     910:	83 e3       	ldi	r24, 0x33	; 51
     912:	89 b9       	out	0x09, r24	; 9
     914:	10 bc       	out	0x20, r1	; 32
     916:	08 95       	ret

00000918 <USART_transmit>:
     918:	5d 9b       	sbis	0x0b, 5	; 11
     91a:	fe cf       	rjmp	.-4      	; 0x918 <USART_transmit>
     91c:	8c b9       	out	0x0c, r24	; 12
     91e:	08 95       	ret

00000920 <sendMessage>:
void sendMessage(char *msg)
{
     920:	ef 92       	push	r14
     922:	ff 92       	push	r15
     924:	0f 93       	push	r16
     926:	1f 93       	push	r17
     928:	cf 93       	push	r28
     92a:	df 93       	push	r29
     92c:	cd b7       	in	r28, 0x3d	; 61
     92e:	de b7       	in	r29, 0x3e	; 62
     930:	a3 97       	sbiw	r28, 0x23	; 35
     932:	0f b6       	in	r0, 0x3f	; 63
     934:	f8 94       	cli
     936:	de bf       	out	0x3e, r29	; 62
     938:	0f be       	out	0x3f, r0	; 63
     93a:	cd bf       	out	0x3d, r28	; 61
     93c:	7c 01       	movw	r14, r24
	PORTD=0x04; // change mux selector line to GSM Module's TXD
     93e:	84 e0       	ldi	r24, 0x04	; 4
     940:	82 bb       	out	0x12, r24	; 18
	unsigned char cmd_1[4]="AT";
     942:	81 e4       	ldi	r24, 0x41	; 65
     944:	94 e5       	ldi	r25, 0x54	; 84
     946:	9a 83       	std	Y+2, r25	; 0x02
     948:	89 83       	std	Y+1, r24	; 0x01
     94a:	1c 82       	std	Y+4, r1	; 0x04
     94c:	1b 82       	std	Y+3, r1	; 0x03
	unsigned char cmd_2[10]="AT+CMGF=1";
     94e:	8a e0       	ldi	r24, 0x0A	; 10
     950:	eb e8       	ldi	r30, 0x8B	; 139
     952:	f0 e0       	ldi	r31, 0x00	; 0
     954:	de 01       	movw	r26, r28
     956:	15 96       	adiw	r26, 0x05	; 5
     958:	01 90       	ld	r0, Z+
     95a:	0d 92       	st	X+, r0
     95c:	8a 95       	dec	r24
     95e:	e1 f7       	brne	.-8      	; 0x958 <sendMessage+0x38>
	unsigned char cmd_3[10]="AT+CMGS=";
     960:	89 e0       	ldi	r24, 0x09	; 9
     962:	e0 e6       	ldi	r30, 0x60	; 96
     964:	f0 e0       	ldi	r31, 0x00	; 0
     966:	de 01       	movw	r26, r28
     968:	1f 96       	adiw	r26, 0x0f	; 15
     96a:	01 90       	ld	r0, Z+
     96c:	0d 92       	st	X+, r0
     96e:	8a 95       	dec	r24
     970:	e1 f7       	brne	.-8      	; 0x96a <sendMessage+0x4a>
     972:	18 8e       	std	Y+24, r1	; 0x18
	 char *cmd_4 = msg;
	unsigned char num[11] = "0771234567";
     974:	8b e0       	ldi	r24, 0x0B	; 11
     976:	e5 e9       	ldi	r30, 0x95	; 149
     978:	f0 e0       	ldi	r31, 0x00	; 0
     97a:	de 01       	movw	r26, r28
     97c:	59 96       	adiw	r26, 0x19	; 25
     97e:	01 90       	ld	r0, Z+
     980:	0d 92       	st	X+, r0
     982:	8a 95       	dec	r24
     984:	e1 f7       	brne	.-8      	; 0x97e <sendMessage+0x5e>
	LCD_Clear();
     986:	0e 94 b8 01 	call	0x370	; 0x370 <LCD_Clear>
	LCD_String_xy(1,0,"Message:");
     98a:	4a e6       	ldi	r20, 0x6A	; 106
     98c:	50 e0       	ldi	r21, 0x00	; 0
     98e:	60 e0       	ldi	r22, 0x00	; 0
     990:	81 e0       	ldi	r24, 0x01	; 1
     992:	0e 94 a0 01 	call	0x340	; 0x340 <LCD_String_xy>
	LCD_String_xy(2,3,"Forwarding");
     996:	43 e7       	ldi	r20, 0x73	; 115
     998:	50 e0       	ldi	r21, 0x00	; 0
     99a:	63 e0       	ldi	r22, 0x03	; 3
     99c:	82 e0       	ldi	r24, 0x02	; 2
     99e:	0e 94 a0 01 	call	0x340	; 0x340 <LCD_String_xy>
	#else
		//round up by default
		__ticks_dc = (uint32_t)(ceil(fabs(__tmp)));
	#endif

	__builtin_avr_delay_cycles(__ticks_dc);
     9a2:	2f ef       	ldi	r18, 0xFF	; 255
     9a4:	80 e7       	ldi	r24, 0x70	; 112
     9a6:	92 e0       	ldi	r25, 0x02	; 2
     9a8:	21 50       	subi	r18, 0x01	; 1
     9aa:	80 40       	sbci	r24, 0x00	; 0
     9ac:	90 40       	sbci	r25, 0x00	; 0
     9ae:	e1 f7       	brne	.-8      	; 0x9a8 <sendMessage+0x88>
     9b0:	00 c0       	rjmp	.+0      	; 0x9b2 <sendMessage+0x92>
     9b2:	00 00       	nop
	
	_delay_ms(100);
	
	for (int i=0;cmd_1[i]!='\0';i++) /*checking communication*/
     9b4:	00 e0       	ldi	r16, 0x00	; 0
     9b6:	10 e0       	ldi	r17, 0x00	; 0
     9b8:	0d c0       	rjmp	.+26     	; 0x9d4 <sendMessage+0xb4>
	{
		USART_transmit(cmd_1[i]);
     9ba:	0e 94 8c 04 	call	0x918	; 0x918 <USART_transmit>
     9be:	2f ef       	ldi	r18, 0xFF	; 255
     9c0:	80 e7       	ldi	r24, 0x70	; 112
     9c2:	92 e0       	ldi	r25, 0x02	; 2
     9c4:	21 50       	subi	r18, 0x01	; 1
     9c6:	80 40       	sbci	r24, 0x00	; 0
     9c8:	90 40       	sbci	r25, 0x00	; 0
     9ca:	e1 f7       	brne	.-8      	; 0x9c4 <sendMessage+0xa4>
     9cc:	00 c0       	rjmp	.+0      	; 0x9ce <sendMessage+0xae>
     9ce:	00 00       	nop
	LCD_String_xy(1,0,"Message:");
	LCD_String_xy(2,3,"Forwarding");
	
	_delay_ms(100);
	
	for (int i=0;cmd_1[i]!='\0';i++) /*checking communication*/
     9d0:	0f 5f       	subi	r16, 0xFF	; 255
     9d2:	1f 4f       	sbci	r17, 0xFF	; 255
     9d4:	e1 e0       	ldi	r30, 0x01	; 1
     9d6:	f0 e0       	ldi	r31, 0x00	; 0
     9d8:	ec 0f       	add	r30, r28
     9da:	fd 1f       	adc	r31, r29
     9dc:	e0 0f       	add	r30, r16
     9de:	f1 1f       	adc	r31, r17
     9e0:	80 81       	ld	r24, Z
     9e2:	81 11       	cpse	r24, r1
     9e4:	ea cf       	rjmp	.-44     	; 0x9ba <sendMessage+0x9a>
	{
		USART_transmit(cmd_1[i]);
		_delay_ms(100);
	}
	USART_transmit('\r'); /*carriage return ---> begining from the first line without going to next line*/
     9e6:	8d e0       	ldi	r24, 0x0D	; 13
     9e8:	0e 94 8c 04 	call	0x918	; 0x918 <USART_transmit>
     9ec:	2f ef       	ldi	r18, 0xFF	; 255
     9ee:	81 ee       	ldi	r24, 0xE1	; 225
     9f0:	94 e0       	ldi	r25, 0x04	; 4
     9f2:	21 50       	subi	r18, 0x01	; 1
     9f4:	80 40       	sbci	r24, 0x00	; 0
     9f6:	90 40       	sbci	r25, 0x00	; 0
     9f8:	e1 f7       	brne	.-8      	; 0x9f2 <sendMessage+0xd2>
     9fa:	00 c0       	rjmp	.+0      	; 0x9fc <sendMessage+0xdc>
     9fc:	00 00       	nop
	_delay_ms(200);
	
	for (int i=0;cmd_2[i]!='\0';i++) /* set the operating mode to SMS text mode*/
     9fe:	00 e0       	ldi	r16, 0x00	; 0
     a00:	10 e0       	ldi	r17, 0x00	; 0
     a02:	0d c0       	rjmp	.+26     	; 0xa1e <sendMessage+0xfe>
	{
		USART_transmit(cmd_2[i]);
     a04:	0e 94 8c 04 	call	0x918	; 0x918 <USART_transmit>
     a08:	2f ef       	ldi	r18, 0xFF	; 255
     a0a:	80 e7       	ldi	r24, 0x70	; 112
     a0c:	92 e0       	ldi	r25, 0x02	; 2
     a0e:	21 50       	subi	r18, 0x01	; 1
     a10:	80 40       	sbci	r24, 0x00	; 0
     a12:	90 40       	sbci	r25, 0x00	; 0
     a14:	e1 f7       	brne	.-8      	; 0xa0e <sendMessage+0xee>
     a16:	00 c0       	rjmp	.+0      	; 0xa18 <sendMessage+0xf8>
     a18:	00 00       	nop
		_delay_ms(100);
	}
	USART_transmit('\r'); /*carriage return ---> begining from the first line without going to next line*/
	_delay_ms(200);
	
	for (int i=0;cmd_2[i]!='\0';i++) /* set the operating mode to SMS text mode*/
     a1a:	0f 5f       	subi	r16, 0xFF	; 255
     a1c:	1f 4f       	sbci	r17, 0xFF	; 255
     a1e:	e5 e0       	ldi	r30, 0x05	; 5
     a20:	f0 e0       	ldi	r31, 0x00	; 0
     a22:	ec 0f       	add	r30, r28
     a24:	fd 1f       	adc	r31, r29
     a26:	e0 0f       	add	r30, r16
     a28:	f1 1f       	adc	r31, r17
     a2a:	80 81       	ld	r24, Z
     a2c:	81 11       	cpse	r24, r1
     a2e:	ea cf       	rjmp	.-44     	; 0xa04 <sendMessage+0xe4>
	{
		USART_transmit(cmd_2[i]);
		_delay_ms(100);
	}
	USART_transmit('\r');
     a30:	8d e0       	ldi	r24, 0x0D	; 13
     a32:	0e 94 8c 04 	call	0x918	; 0x918 <USART_transmit>
     a36:	2f ef       	ldi	r18, 0xFF	; 255
     a38:	81 ee       	ldi	r24, 0xE1	; 225
     a3a:	94 e0       	ldi	r25, 0x04	; 4
     a3c:	21 50       	subi	r18, 0x01	; 1
     a3e:	80 40       	sbci	r24, 0x00	; 0
     a40:	90 40       	sbci	r25, 0x00	; 0
     a42:	e1 f7       	brne	.-8      	; 0xa3c <sendMessage+0x11c>
     a44:	00 c0       	rjmp	.+0      	; 0xa46 <sendMessage+0x126>
     a46:	00 00       	nop
	_delay_ms(200);
	
	for (int i=0;cmd_3[i]!='\0';i++) /* send SMS*/
     a48:	00 e0       	ldi	r16, 0x00	; 0
     a4a:	10 e0       	ldi	r17, 0x00	; 0
     a4c:	0d c0       	rjmp	.+26     	; 0xa68 <sendMessage+0x148>
	{
		USART_transmit(cmd_3[i]);
     a4e:	0e 94 8c 04 	call	0x918	; 0x918 <USART_transmit>
     a52:	2f ef       	ldi	r18, 0xFF	; 255
     a54:	80 e7       	ldi	r24, 0x70	; 112
     a56:	92 e0       	ldi	r25, 0x02	; 2
     a58:	21 50       	subi	r18, 0x01	; 1
     a5a:	80 40       	sbci	r24, 0x00	; 0
     a5c:	90 40       	sbci	r25, 0x00	; 0
     a5e:	e1 f7       	brne	.-8      	; 0xa58 <sendMessage+0x138>
     a60:	00 c0       	rjmp	.+0      	; 0xa62 <sendMessage+0x142>
     a62:	00 00       	nop
		_delay_ms(100);
	}
	USART_transmit('\r');
	_delay_ms(200);
	
	for (int i=0;cmd_3[i]!='\0';i++) /* send SMS*/
     a64:	0f 5f       	subi	r16, 0xFF	; 255
     a66:	1f 4f       	sbci	r17, 0xFF	; 255
     a68:	ef e0       	ldi	r30, 0x0F	; 15
     a6a:	f0 e0       	ldi	r31, 0x00	; 0
     a6c:	ec 0f       	add	r30, r28
     a6e:	fd 1f       	adc	r31, r29
     a70:	e0 0f       	add	r30, r16
     a72:	f1 1f       	adc	r31, r17
     a74:	80 81       	ld	r24, Z
     a76:	81 11       	cpse	r24, r1
     a78:	ea cf       	rjmp	.-44     	; 0xa4e <sendMessage+0x12e>
	{
		USART_transmit(cmd_3[i]);
		_delay_ms(100);
	}
	UDR='"';
     a7a:	82 e2       	ldi	r24, 0x22	; 34
     a7c:	8c b9       	out	0x0c, r24	; 12
     a7e:	2f ef       	ldi	r18, 0xFF	; 255
     a80:	80 e7       	ldi	r24, 0x70	; 112
     a82:	92 e0       	ldi	r25, 0x02	; 2
     a84:	21 50       	subi	r18, 0x01	; 1
     a86:	80 40       	sbci	r24, 0x00	; 0
     a88:	90 40       	sbci	r25, 0x00	; 0
     a8a:	e1 f7       	brne	.-8      	; 0xa84 <sendMessage+0x164>
     a8c:	00 c0       	rjmp	.+0      	; 0xa8e <sendMessage+0x16e>
     a8e:	00 00       	nop
	_delay_ms(100);
	for (int i=0;num[i]!='\0';i++) /* SMS to be sent */
     a90:	00 e0       	ldi	r16, 0x00	; 0
     a92:	10 e0       	ldi	r17, 0x00	; 0
     a94:	0d c0       	rjmp	.+26     	; 0xab0 <sendMessage+0x190>
	{
		USART_transmit(num[i]);
     a96:	0e 94 8c 04 	call	0x918	; 0x918 <USART_transmit>
     a9a:	2f ef       	ldi	r18, 0xFF	; 255
     a9c:	80 e7       	ldi	r24, 0x70	; 112
     a9e:	92 e0       	ldi	r25, 0x02	; 2
     aa0:	21 50       	subi	r18, 0x01	; 1
     aa2:	80 40       	sbci	r24, 0x00	; 0
     aa4:	90 40       	sbci	r25, 0x00	; 0
     aa6:	e1 f7       	brne	.-8      	; 0xaa0 <sendMessage+0x180>
     aa8:	00 c0       	rjmp	.+0      	; 0xaaa <sendMessage+0x18a>
     aaa:	00 00       	nop
		USART_transmit(cmd_3[i]);
		_delay_ms(100);
	}
	UDR='"';
	_delay_ms(100);
	for (int i=0;num[i]!='\0';i++) /* SMS to be sent */
     aac:	0f 5f       	subi	r16, 0xFF	; 255
     aae:	1f 4f       	sbci	r17, 0xFF	; 255
     ab0:	e9 e1       	ldi	r30, 0x19	; 25
     ab2:	f0 e0       	ldi	r31, 0x00	; 0
     ab4:	ec 0f       	add	r30, r28
     ab6:	fd 1f       	adc	r31, r29
     ab8:	e0 0f       	add	r30, r16
     aba:	f1 1f       	adc	r31, r17
     abc:	80 81       	ld	r24, Z
     abe:	81 11       	cpse	r24, r1
     ac0:	ea cf       	rjmp	.-44     	; 0xa96 <sendMessage+0x176>
	{
		USART_transmit(num[i]);
		_delay_ms(100);
	}
	UDR='"';
     ac2:	82 e2       	ldi	r24, 0x22	; 34
     ac4:	8c b9       	out	0x0c, r24	; 12
     ac6:	2f ef       	ldi	r18, 0xFF	; 255
     ac8:	80 e7       	ldi	r24, 0x70	; 112
     aca:	92 e0       	ldi	r25, 0x02	; 2
     acc:	21 50       	subi	r18, 0x01	; 1
     ace:	80 40       	sbci	r24, 0x00	; 0
     ad0:	90 40       	sbci	r25, 0x00	; 0
     ad2:	e1 f7       	brne	.-8      	; 0xacc <sendMessage+0x1ac>
     ad4:	00 c0       	rjmp	.+0      	; 0xad6 <sendMessage+0x1b6>
     ad6:	00 00       	nop
	_delay_ms(100);
	UDR='\r';
     ad8:	8d e0       	ldi	r24, 0x0D	; 13
     ada:	8c b9       	out	0x0c, r24	; 12
     adc:	2f ef       	ldi	r18, 0xFF	; 255
     ade:	81 ee       	ldi	r24, 0xE1	; 225
     ae0:	94 e0       	ldi	r25, 0x04	; 4
     ae2:	21 50       	subi	r18, 0x01	; 1
     ae4:	80 40       	sbci	r24, 0x00	; 0
     ae6:	90 40       	sbci	r25, 0x00	; 0
     ae8:	e1 f7       	brne	.-8      	; 0xae2 <sendMessage+0x1c2>
     aea:	00 c0       	rjmp	.+0      	; 0xaec <sendMessage+0x1cc>
     aec:	00 00       	nop
	_delay_ms(200);

	for (int i=0;cmd_4[i]!='\0';i++) /* sample mobile number */
     aee:	00 e0       	ldi	r16, 0x00	; 0
     af0:	10 e0       	ldi	r17, 0x00	; 0
     af2:	0d c0       	rjmp	.+26     	; 0xb0e <sendMessage+0x1ee>
	{
		USART_transmit(cmd_4[i]);
     af4:	0e 94 8c 04 	call	0x918	; 0x918 <USART_transmit>
     af8:	2f ef       	ldi	r18, 0xFF	; 255
     afa:	80 e7       	ldi	r24, 0x70	; 112
     afc:	92 e0       	ldi	r25, 0x02	; 2
     afe:	21 50       	subi	r18, 0x01	; 1
     b00:	80 40       	sbci	r24, 0x00	; 0
     b02:	90 40       	sbci	r25, 0x00	; 0
     b04:	e1 f7       	brne	.-8      	; 0xafe <sendMessage+0x1de>
     b06:	00 c0       	rjmp	.+0      	; 0xb08 <sendMessage+0x1e8>
     b08:	00 00       	nop
	UDR='"';
	_delay_ms(100);
	UDR='\r';
	_delay_ms(200);

	for (int i=0;cmd_4[i]!='\0';i++) /* sample mobile number */
     b0a:	0f 5f       	subi	r16, 0xFF	; 255
     b0c:	1f 4f       	sbci	r17, 0xFF	; 255
     b0e:	f7 01       	movw	r30, r14
     b10:	e0 0f       	add	r30, r16
     b12:	f1 1f       	adc	r31, r17
     b14:	80 81       	ld	r24, Z
     b16:	81 11       	cpse	r24, r1
     b18:	ed cf       	rjmp	.-38     	; 0xaf4 <sendMessage+0x1d4>
     b1a:	2f ef       	ldi	r18, 0xFF	; 255
     b1c:	81 ee       	ldi	r24, 0xE1	; 225
     b1e:	94 e0       	ldi	r25, 0x04	; 4
     b20:	21 50       	subi	r18, 0x01	; 1
     b22:	80 40       	sbci	r24, 0x00	; 0
     b24:	90 40       	sbci	r25, 0x00	; 0
     b26:	e1 f7       	brne	.-8      	; 0xb20 <sendMessage+0x200>
     b28:	00 c0       	rjmp	.+0      	; 0xb2a <sendMessage+0x20a>
     b2a:	00 00       	nop
	{
		USART_transmit(cmd_4[i]);
		_delay_ms(100);
	}
	_delay_ms(200);
	LCD_Clear();
     b2c:	0e 94 b8 01 	call	0x370	; 0x370 <LCD_Clear>
	LCD_String_xy(1,0,"Message sent");
     b30:	4e e7       	ldi	r20, 0x7E	; 126
     b32:	50 e0       	ldi	r21, 0x00	; 0
     b34:	60 e0       	ldi	r22, 0x00	; 0
     b36:	81 e0       	ldi	r24, 0x01	; 1
     b38:	0e 94 a0 01 	call	0x340	; 0x340 <LCD_String_xy>
     b3c:	2f ef       	ldi	r18, 0xFF	; 255
     b3e:	8d e3       	ldi	r24, 0x3D	; 61
     b40:	99 e4       	ldi	r25, 0x49	; 73
     b42:	21 50       	subi	r18, 0x01	; 1
     b44:	80 40       	sbci	r24, 0x00	; 0
     b46:	90 40       	sbci	r25, 0x00	; 0
     b48:	e1 f7       	brne	.-8      	; 0xb42 <sendMessage+0x222>
     b4a:	00 c0       	rjmp	.+0      	; 0xb4c <sendMessage+0x22c>
     b4c:	00 00       	nop
	_delay_ms(3000);
	LCD_Clear();
     b4e:	0e 94 b8 01 	call	0x370	; 0x370 <LCD_Clear>
	PORTD=0x00; // change mux back to GSM
     b52:	12 ba       	out	0x12, r1	; 18
     b54:	a3 96       	adiw	r28, 0x23	; 35
     b56:	0f b6       	in	r0, 0x3f	; 63
     b58:	f8 94       	cli
     b5a:	de bf       	out	0x3e, r29	; 62
     b5c:	0f be       	out	0x3f, r0	; 63
     b5e:	cd bf       	out	0x3d, r28	; 61
     b60:	df 91       	pop	r29
     b62:	cf 91       	pop	r28
     b64:	1f 91       	pop	r17
     b66:	0f 91       	pop	r16
     b68:	ff 90       	pop	r15
     b6a:	ef 90       	pop	r14
     b6c:	08 95       	ret

00000b6e <ringAlarm>:
		}
	}//while end
}//main end

void ringAlarm(){
	portHigh(PORTD,buzzer);//buzzer
     b6e:	82 b3       	in	r24, 0x12	; 18
     b70:	80 68       	ori	r24, 0x80	; 128
     b72:	82 bb       	out	0x12, r24	; 18
     b74:	08 95       	ret

00000b76 <stopAlarm>:
}
void stopAlarm(){
	portLow(PORTD,buzzer);
     b76:	82 b3       	in	r24, 0x12	; 18
     b78:	8f 77       	andi	r24, 0x7F	; 127
     b7a:	82 bb       	out	0x12, r24	; 18
     b7c:	08 95       	ret

00000b7e <onHazardLight>:
}
void onHazardLight(){
	portHigh(PORTD,led);
     b7e:	82 b3       	in	r24, 0x12	; 18
     b80:	80 64       	ori	r24, 0x40	; 64
     b82:	82 bb       	out	0x12, r24	; 18
     b84:	08 95       	ret

00000b86 <offHazardLight>:
}
void offHazardLight(){
	portLow(PORTD,led);
     b86:	82 b3       	in	r24, 0x12	; 18
     b88:	8f 7b       	andi	r24, 0xBF	; 191
     b8a:	82 bb       	out	0x12, r24	; 18
     b8c:	08 95       	ret

00000b8e <playRadio>:
}
void playRadio(){
	portHigh(PORTD,musicSystem);
     b8e:	82 b3       	in	r24, 0x12	; 18
     b90:	80 62       	ori	r24, 0x20	; 32
     b92:	82 bb       	out	0x12, r24	; 18
     b94:	08 95       	ret

00000b96 <main>:
void stopAlarm();
void onHazardLight();
void playRadio();
void PWM_init();
void offHazardLight();
int main(void){
     b96:	cf 93       	push	r28
     b98:	df 93       	push	r29
     b9a:	00 d0       	rcall	.+0      	; 0xb9c <main+0x6>
     b9c:	00 d0       	rcall	.+0      	; 0xb9e <main+0x8>
     b9e:	1f 92       	push	r1
     ba0:	cd b7       	in	r28, 0x3d	; 61
     ba2:	de b7       	in	r29, 0x3e	; 62
	start:
	GGA_Index=0;
     ba4:	10 92 b9 01 	sts	0x01B9, r1	; 0x8001b9 <GGA_Index+0x1>
     ba8:	10 92 b8 01 	sts	0x01B8, r1	; 0x8001b8 <GGA_Index>
	setOutput(DDRD,led);
     bac:	81 b3       	in	r24, 0x11	; 17
     bae:	80 64       	ori	r24, 0x40	; 64
     bb0:	81 bb       	out	0x11, r24	; 17
	setOutput(DDRD,buzzer);
     bb2:	81 b3       	in	r24, 0x11	; 17
     bb4:	80 68       	ori	r24, 0x80	; 128
     bb6:	81 bb       	out	0x11, r24	; 17
	setOutput(DDRD,musicSystem);
     bb8:	81 b3       	in	r24, 0x11	; 17
     bba:	80 62       	ori	r24, 0x20	; 32
     bbc:	81 bb       	out	0x11, r24	; 17
	LCD_Init();
     bbe:	0e 94 6f 01 	call	0x2de	; 0x2de <LCD_Init>
     bc2:	2f ef       	ldi	r18, 0xFF	; 255
     bc4:	3d e3       	ldi	r19, 0x3D	; 61
     bc6:	49 e4       	ldi	r20, 0x49	; 73
     bc8:	21 50       	subi	r18, 0x01	; 1
     bca:	30 40       	sbci	r19, 0x00	; 0
     bcc:	40 40       	sbci	r20, 0x00	; 0
     bce:	e1 f7       	brne	.-8      	; 0xbc8 <main+0x32>
     bd0:	00 c0       	rjmp	.+0      	; 0xbd2 <main+0x3c>
     bd2:	00 00       	nop
	_delay_ms(3000);/* wait for GPS receiver to initialize */
	USART_initialize(9600); /* GSM */
     bd4:	60 e8       	ldi	r22, 0x80	; 128
     bd6:	75 e2       	ldi	r23, 0x25	; 37
     bd8:	80 e0       	ldi	r24, 0x00	; 0
     bda:	90 e0       	ldi	r25, 0x00	; 0
     bdc:	0e 94 82 04 	call	0x904	; 0x904 <USART_initialize>
	USART_Init(9600);/* GPS */
     be0:	60 e8       	ldi	r22, 0x80	; 128
     be2:	75 e2       	ldi	r23, 0x25	; 37
     be4:	80 e0       	ldi	r24, 0x00	; 0
     be6:	90 e0       	ldi	r25, 0x00	; 0
     be8:	0e 94 fc 06 	call	0xdf8	; 0xdf8 <USART_Init>
	ADC_Init();
     bec:	0e 94 bc 01 	call	0x378	; 0x378 <ADC_Init>
	sei();
     bf0:	78 94       	sei
	I2C_Init();
     bf2:	0e 94 e4 00 	call	0x1c8	; 0x1c8 <I2C_Init>
	PWM_init();
     bf6:	0e 94 7c 04 	call	0x8f8	; 0x8f8 <PWM_init>
	MPU6050_Init();
     bfa:	0e 94 0d 03 	call	0x61a	; 0x61a <MPU6050_Init>
	LCD_Clear();
     bfe:	0e 94 b8 01 	call	0x370	; 0x370 <LCD_Clear>
	float Xa,Ya,Za;
	while (1){
		//flame detection
		if(pinRead(PINC,flame)==0x10){
     c02:	9c 9b       	sbis	0x13, 4	; 19
     c04:	24 c0       	rjmp	.+72     	; 0xc4e <main+0xb8>
			ringAlarm();onHazardLight();
     c06:	0e 94 b7 05 	call	0xb6e	; 0xb6e <ringAlarm>
     c0a:	0e 94 bf 05 	call	0xb7e	; 0xb7e <onHazardLight>
     c0e:	8f ef       	ldi	r24, 0xFF	; 255
     c10:	99 e6       	ldi	r25, 0x69	; 105
     c12:	28 e1       	ldi	r18, 0x18	; 24
     c14:	81 50       	subi	r24, 0x01	; 1
     c16:	90 40       	sbci	r25, 0x00	; 0
     c18:	20 40       	sbci	r18, 0x00	; 0
     c1a:	e1 f7       	brne	.-8      	; 0xc14 <main+0x7e>
     c1c:	00 c0       	rjmp	.+0      	; 0xc1e <main+0x88>
     c1e:	00 00       	nop
			_delay_ms(1000);
			stopAlarm();offHazardLight();
     c20:	0e 94 bb 05 	call	0xb76	; 0xb76 <stopAlarm>
     c24:	0e 94 c3 05 	call	0xb86	; 0xb86 <offHazardLight>
			LCD_String("Flame Detected !");
     c28:	80 ea       	ldi	r24, 0xA0	; 160
     c2a:	90 e0       	ldi	r25, 0x00	; 0
     c2c:	0e 94 8a 01 	call	0x314	; 0x314 <LCD_String>
			getAllValuesGps();
     c30:	0e 94 8a 02 	call	0x514	; 0x514 <getAllValuesGps>
			LCD_String(Altitude_Buffer);
     c34:	84 ee       	ldi	r24, 0xE4	; 228
     c36:	91 e0       	ldi	r25, 0x01	; 1
     c38:	0e 94 8a 01 	call	0x314	; 0x314 <LCD_String>
			LCD_String(degrees_buffer);
     c3c:	8b e8       	ldi	r24, 0x8B	; 139
     c3e:	91 e0       	ldi	r25, 0x01	; 1
     c40:	0e 94 8a 01 	call	0x314	; 0x314 <LCD_String>
			sendMessage("Flame Detected");
     c44:	81 eb       	ldi	r24, 0xB1	; 177
     c46:	90 e0       	ldi	r25, 0x00	; 0
     c48:	0e 94 90 04 	call	0x920	; 0x920 <sendMessage>
     c4c:	da cf       	rjmp	.-76     	; 0xc02 <main+0x6c>
		}//if end
		else{
			//set wheel speed vehicle
			int val=ADC_Read(0);
     c4e:	80 e0       	ldi	r24, 0x00	; 0
     c50:	0e 94 c4 01 	call	0x388	; 0x388 <ADC_Read>
			float speed=(val/1024.0)*255.0;
     c54:	bc 01       	movw	r22, r24
     c56:	99 0f       	add	r25, r25
     c58:	88 0b       	sbc	r24, r24
     c5a:	99 0b       	sbc	r25, r25
     c5c:	0e 94 22 08 	call	0x1044	; 0x1044 <__floatsisf>
     c60:	20 e0       	ldi	r18, 0x00	; 0
     c62:	30 e0       	ldi	r19, 0x00	; 0
     c64:	40 e8       	ldi	r20, 0x80	; 128
     c66:	5a e3       	ldi	r21, 0x3A	; 58
     c68:	0e 94 d7 08 	call	0x11ae	; 0x11ae <__mulsf3>
     c6c:	20 e0       	ldi	r18, 0x00	; 0
     c6e:	30 e0       	ldi	r19, 0x00	; 0
     c70:	4f e7       	ldi	r20, 0x7F	; 127
     c72:	53 e4       	ldi	r21, 0x43	; 67
     c74:	0e 94 d7 08 	call	0x11ae	; 0x11ae <__mulsf3>
			OCR0=(int)speed;
     c78:	0e 94 ea 07 	call	0xfd4	; 0xfd4 <__fixsfsi>
     c7c:	86 2f       	mov	r24, r22
     c7e:	97 2f       	mov	r25, r23
     c80:	6c 01       	movw	r12, r24
     c82:	6c bf       	out	0x3c, r22	; 60
			//get pressure
			int value = ADC_Read(1);
     c84:	81 e0       	ldi	r24, 0x01	; 1
     c86:	0e 94 c4 01 	call	0x388	; 0x388 <ADC_Read>
			if (value > 107){// if value gt 107 vehicle is moving
     c8a:	8c 36       	cpi	r24, 0x6C	; 108
     c8c:	91 05       	cpc	r25, r1
     c8e:	0c f4       	brge	.+2      	; 0xc92 <main+0xfc>
     c90:	b8 cf       	rjmp	.-144    	; 0xc02 <main+0x6c>
				//get gyroscope values;
				Read_RawValue();
     c92:	0e 94 58 03 	call	0x6b0	; 0x6b0 <Read_RawValue>
				Xa = (Acc_x/16384.0)*9.8066;
     c96:	20 e0       	ldi	r18, 0x00	; 0
     c98:	30 e0       	ldi	r19, 0x00	; 0
     c9a:	40 e8       	ldi	r20, 0x80	; 128
     c9c:	58 e3       	ldi	r21, 0x38	; 56
     c9e:	60 91 b2 01 	lds	r22, 0x01B2	; 0x8001b2 <Acc_x>
     ca2:	70 91 b3 01 	lds	r23, 0x01B3	; 0x8001b3 <Acc_x+0x1>
     ca6:	80 91 b4 01 	lds	r24, 0x01B4	; 0x8001b4 <Acc_x+0x2>
     caa:	90 91 b5 01 	lds	r25, 0x01B5	; 0x8001b5 <Acc_x+0x3>
     cae:	0e 94 d7 08 	call	0x11ae	; 0x11ae <__mulsf3>
     cb2:	25 ed       	ldi	r18, 0xD5	; 213
     cb4:	37 ee       	ldi	r19, 0xE7	; 231
     cb6:	4c e1       	ldi	r20, 0x1C	; 28
     cb8:	51 e4       	ldi	r21, 0x41	; 65
     cba:	0e 94 d7 08 	call	0x11ae	; 0x11ae <__mulsf3>
     cbe:	4b 01       	movw	r8, r22
     cc0:	5c 01       	movw	r10, r24
				Ya = (Acc_y/16384.0)*9.8066;
     cc2:	20 e0       	ldi	r18, 0x00	; 0
     cc4:	30 e0       	ldi	r19, 0x00	; 0
     cc6:	40 e8       	ldi	r20, 0x80	; 128
     cc8:	58 e3       	ldi	r21, 0x38	; 56
     cca:	60 91 87 01 	lds	r22, 0x0187	; 0x800187 <Acc_y>
     cce:	70 91 88 01 	lds	r23, 0x0188	; 0x800188 <Acc_y+0x1>
     cd2:	80 91 89 01 	lds	r24, 0x0189	; 0x800189 <Acc_y+0x2>
     cd6:	90 91 8a 01 	lds	r25, 0x018A	; 0x80018a <Acc_y+0x3>
     cda:	0e 94 d7 08 	call	0x11ae	; 0x11ae <__mulsf3>
     cde:	25 ed       	ldi	r18, 0xD5	; 213
     ce0:	37 ee       	ldi	r19, 0xE7	; 231
     ce2:	4c e1       	ldi	r20, 0x1C	; 28
     ce4:	51 e4       	ldi	r21, 0x41	; 65
     ce6:	0e 94 d7 08 	call	0x11ae	; 0x11ae <__mulsf3>
     cea:	2b 01       	movw	r4, r22
     cec:	3c 01       	movw	r6, r24
				Za = (Acc_z/16384.0)*9.8066;
     cee:	20 e0       	ldi	r18, 0x00	; 0
     cf0:	30 e0       	ldi	r19, 0x00	; 0
     cf2:	40 e8       	ldi	r20, 0x80	; 128
     cf4:	58 e3       	ldi	r21, 0x38	; 56
     cf6:	60 91 e5 00 	lds	r22, 0x00E5	; 0x8000e5 <Acc_z>
     cfa:	70 91 e6 00 	lds	r23, 0x00E6	; 0x8000e6 <Acc_z+0x1>
     cfe:	80 91 e7 00 	lds	r24, 0x00E7	; 0x8000e7 <Acc_z+0x2>
     d02:	90 91 e8 00 	lds	r25, 0x00E8	; 0x8000e8 <Acc_z+0x3>
     d06:	0e 94 d7 08 	call	0x11ae	; 0x11ae <__mulsf3>
     d0a:	25 ed       	ldi	r18, 0xD5	; 213
     d0c:	37 ee       	ldi	r19, 0xE7	; 231
     d0e:	4c e1       	ldi	r20, 0x1C	; 28
     d10:	51 e4       	ldi	r21, 0x41	; 65
     d12:	0e 94 d7 08 	call	0x11ae	; 0x11ae <__mulsf3>
				if(pinRead(PINC,alcohol)==0x20){//alcohol detection
     d16:	9d 9b       	sbis	0x13, 5	; 19
     d18:	15 c0       	rjmp	.+42     	; 0xd44 <main+0x1ae>
					LCD_Clear();
     d1a:	0e 94 b8 01 	call	0x370	; 0x370 <LCD_Clear>
					LCD_String("Alcohol Detected"); 
     d1e:	80 ec       	ldi	r24, 0xC0	; 192
     d20:	90 e0       	ldi	r25, 0x00	; 0
     d22:	0e 94 8a 01 	call	0x314	; 0x314 <LCD_String>
					getAllValuesGps();
     d26:	0e 94 8a 02 	call	0x514	; 0x514 <getAllValuesGps>
					LCD_String(Altitude_Buffer);
     d2a:	84 ee       	ldi	r24, 0xE4	; 228
     d2c:	91 e0       	ldi	r25, 0x01	; 1
     d2e:	0e 94 8a 01 	call	0x314	; 0x314 <LCD_String>
					LCD_String(degrees_buffer);
     d32:	8b e8       	ldi	r24, 0x8B	; 139
     d34:	91 e0       	ldi	r25, 0x01	; 1
     d36:	0e 94 8a 01 	call	0x314	; 0x314 <LCD_String>
					sendMessage("Alcohol Detected");
     d3a:	80 ec       	ldi	r24, 0xC0	; 192
     d3c:	90 e0       	ldi	r25, 0x00	; 0
     d3e:	0e 94 90 04 	call	0x920	; 0x920 <sendMessage>
     d42:	5f cf       	rjmp	.-322    	; 0xc02 <main+0x6c>
				}//if end
				else if(1 && isDriverSleepingGyro(Xa,Ya,Za)){//alcohol not detected  //1 ==> IR Detection                     
     d44:	7b 01       	movw	r14, r22
     d46:	8c 01       	movw	r16, r24
     d48:	a3 01       	movw	r20, r6
     d4a:	92 01       	movw	r18, r4
     d4c:	c5 01       	movw	r24, r10
     d4e:	b4 01       	movw	r22, r8
     d50:	0e 94 09 04 	call	0x812	; 0x812 <isDriverSleepingGyro>
     d54:	89 2b       	or	r24, r25
     d56:	09 f4       	brne	.+2      	; 0xd5a <main+0x1c4>
     d58:	54 cf       	rjmp	.-344    	; 0xc02 <main+0x6c>
						ringAlarm();onHazardLight();
     d5a:	0e 94 b7 05 	call	0xb6e	; 0xb6e <ringAlarm>
     d5e:	0e 94 bf 05 	call	0xb7e	; 0xb7e <onHazardLight>
						for(int i=1;i<=5;i++){
     d62:	81 e0       	ldi	r24, 0x01	; 1
     d64:	90 e0       	ldi	r25, 0x00	; 0
     d66:	11 c0       	rjmp	.+34     	; 0xd8a <main+0x1f4>
							if(pinRead(PINC,3)==0x08){//if button not pressed
     d68:	9b 9b       	sbis	0x13, 3	; 19
     d6a:	05 c0       	rjmp	.+10     	; 0xd76 <main+0x1e0>
								stopAlarm();offHazardLight();
     d6c:	0e 94 bb 05 	call	0xb76	; 0xb76 <stopAlarm>
     d70:	0e 94 c3 05 	call	0xb86	; 0xb86 <offHazardLight>
								goto start;
     d74:	17 cf       	rjmp	.-466    	; 0xba4 <main+0xe>
     d76:	3f ef       	ldi	r19, 0xFF	; 255
     d78:	49 e6       	ldi	r20, 0x69	; 105
     d7a:	28 e1       	ldi	r18, 0x18	; 24
     d7c:	31 50       	subi	r19, 0x01	; 1
     d7e:	40 40       	sbci	r20, 0x00	; 0
     d80:	20 40       	sbci	r18, 0x00	; 0
     d82:	e1 f7       	brne	.-8      	; 0xd7c <main+0x1e6>
     d84:	00 c0       	rjmp	.+0      	; 0xd86 <main+0x1f0>
     d86:	00 00       	nop
					LCD_String(degrees_buffer);
					sendMessage("Alcohol Detected");
				}//if end
				else if(1 && isDriverSleepingGyro(Xa,Ya,Za)){//alcohol not detected  //1 ==> IR Detection                     
						ringAlarm();onHazardLight();
						for(int i=1;i<=5;i++){
     d88:	01 96       	adiw	r24, 0x01	; 1
     d8a:	86 30       	cpi	r24, 0x06	; 6
     d8c:	91 05       	cpc	r25, r1
     d8e:	64 f3       	brlt	.-40     	; 0xd68 <main+0x1d2>
								stopAlarm();offHazardLight();
								goto start;
							}//button if end
							_delay_ms(1000);
						}//for loop end
						LCD_String("Sleeping");
     d90:	8b ed       	ldi	r24, 0xDB	; 219
     d92:	90 e0       	ldi	r25, 0x00	; 0
     d94:	0e 94 8a 01 	call	0x314	; 0x314 <LCD_String>
						getAllValuesGps();
     d98:	0e 94 8a 02 	call	0x514	; 0x514 <getAllValuesGps>
						LCD_String(Altitude_Buffer);
     d9c:	84 ee       	ldi	r24, 0xE4	; 228
     d9e:	91 e0       	ldi	r25, 0x01	; 1
     da0:	0e 94 8a 01 	call	0x314	; 0x314 <LCD_String>
						LCD_String(degrees_buffer);
     da4:	8b e8       	ldi	r24, 0x8B	; 139
     da6:	91 e0       	ldi	r25, 0x01	; 1
     da8:	0e 94 8a 01 	call	0x314	; 0x314 <LCD_String>
						sendMessage("Driver is Sleeping");
     dac:	81 ed       	ldi	r24, 0xD1	; 209
     dae:	90 e0       	ldi	r25, 0x00	; 0
     db0:	0e 94 90 04 	call	0x920	; 0x920 <sendMessage>
						playRadio();
     db4:	0e 94 c7 05 	call	0xb8e	; 0xb8e <playRadio>
						//reduce speed of the vehicle
						for(int i=(int)speed;i>=20;i--){
     db8:	1a c0       	rjmp	.+52     	; 0xdee <main+0x258>
    } else if (__radix < 2 || __radix > 36) {
	*__s = 0;
	return __s;
    } else {
	extern char *__itoa_ncheck (int, char *, unsigned char);
	return __itoa_ncheck (__val, __s, __radix);
     dba:	4a e0       	ldi	r20, 0x0A	; 10
     dbc:	be 01       	movw	r22, r28
     dbe:	6f 5f       	subi	r22, 0xFF	; 255
     dc0:	7f 4f       	sbci	r23, 0xFF	; 255
     dc2:	c6 01       	movw	r24, r12
     dc4:	0e 94 68 09 	call	0x12d0	; 0x12d0 <__itoa_ncheck>
							char c[5];
							itoa(i,c,10);
							LCD_String(c);
     dc8:	ce 01       	movw	r24, r28
     dca:	01 96       	adiw	r24, 0x01	; 1
     dcc:	0e 94 8a 01 	call	0x314	; 0x314 <LCD_String>
							OCR0=i;
     dd0:	cc be       	out	0x3c, r12	; 60
     dd2:	3f ef       	ldi	r19, 0xFF	; 255
     dd4:	40 e7       	ldi	r20, 0x70	; 112
     dd6:	82 e0       	ldi	r24, 0x02	; 2
     dd8:	31 50       	subi	r19, 0x01	; 1
     dda:	40 40       	sbci	r20, 0x00	; 0
     ddc:	80 40       	sbci	r24, 0x00	; 0
     dde:	e1 f7       	brne	.-8      	; 0xdd8 <main+0x242>
     de0:	00 c0       	rjmp	.+0      	; 0xde2 <main+0x24c>
     de2:	00 00       	nop
							_delay_ms(100);
							LCD_Clear();
     de4:	0e 94 b8 01 	call	0x370	; 0x370 <LCD_Clear>
						LCD_String(Altitude_Buffer);
						LCD_String(degrees_buffer);
						sendMessage("Driver is Sleeping");
						playRadio();
						//reduce speed of the vehicle
						for(int i=(int)speed;i>=20;i--){
     de8:	91 e0       	ldi	r25, 0x01	; 1
     dea:	c9 1a       	sub	r12, r25
     dec:	d1 08       	sbc	r13, r1
     dee:	24 e1       	ldi	r18, 0x14	; 20
     df0:	c2 16       	cp	r12, r18
     df2:	d1 04       	cpc	r13, r1
     df4:	14 f7       	brge	.-60     	; 0xdba <main+0x224>
     df6:	ff cf       	rjmp	.-2      	; 0xdf6 <main+0x260>

00000df8 <USART_Init>:

#include "USART_Interrupt.h"

void USART_Init(unsigned long BAUDRATE)				/* USART initialize function */
{
	UCSRB |= (1 << RXEN) | (1 << TXEN) | (1 << RXCIE);				/* Enable USART transmitter and receiver */
     df8:	8a b1       	in	r24, 0x0a	; 10
     dfa:	88 69       	ori	r24, 0x98	; 152
     dfc:	8a b9       	out	0x0a, r24	; 10
	UCSRC |= (1 << URSEL)| (1 << UCSZ0) | (1 << UCSZ1);	/* Write USCRC for 8 bit data and 1 stop bit */
     dfe:	80 b5       	in	r24, 0x20	; 32
     e00:	86 68       	ori	r24, 0x86	; 134
     e02:	80 bd       	out	0x20, r24	; 32
	UBRRL = BAUD_PRESCALE;							/* Load UBRRL with lower 8 bit of prescale value */
     e04:	83 e3       	ldi	r24, 0x33	; 51
     e06:	89 b9       	out	0x09, r24	; 9
	UBRRH = (BAUD_PRESCALE >> 8);					/* Load UBRRH with upper 8 bit of prescale value */
     e08:	10 bc       	out	0x20, r1	; 32
     e0a:	08 95       	ret

00000e0c <__subsf3>:
     e0c:	50 58       	subi	r21, 0x80	; 128

00000e0e <__addsf3>:
     e0e:	bb 27       	eor	r27, r27
     e10:	aa 27       	eor	r26, r26
     e12:	0e 94 1e 07 	call	0xe3c	; 0xe3c <__addsf3x>
     e16:	0c 94 98 08 	jmp	0x1130	; 0x1130 <__fp_round>
     e1a:	0e 94 8a 08 	call	0x1114	; 0x1114 <__fp_pscA>
     e1e:	38 f0       	brcs	.+14     	; 0xe2e <__addsf3+0x20>
     e20:	0e 94 91 08 	call	0x1122	; 0x1122 <__fp_pscB>
     e24:	20 f0       	brcs	.+8      	; 0xe2e <__addsf3+0x20>
     e26:	39 f4       	brne	.+14     	; 0xe36 <__addsf3+0x28>
     e28:	9f 3f       	cpi	r25, 0xFF	; 255
     e2a:	19 f4       	brne	.+6      	; 0xe32 <__addsf3+0x24>
     e2c:	26 f4       	brtc	.+8      	; 0xe36 <__addsf3+0x28>
     e2e:	0c 94 87 08 	jmp	0x110e	; 0x110e <__fp_nan>
     e32:	0e f4       	brtc	.+2      	; 0xe36 <__addsf3+0x28>
     e34:	e0 95       	com	r30
     e36:	e7 fb       	bst	r30, 7
     e38:	0c 94 81 08 	jmp	0x1102	; 0x1102 <__fp_inf>

00000e3c <__addsf3x>:
     e3c:	e9 2f       	mov	r30, r25
     e3e:	0e 94 a9 08 	call	0x1152	; 0x1152 <__fp_split3>
     e42:	58 f3       	brcs	.-42     	; 0xe1a <__addsf3+0xc>
     e44:	ba 17       	cp	r27, r26
     e46:	62 07       	cpc	r22, r18
     e48:	73 07       	cpc	r23, r19
     e4a:	84 07       	cpc	r24, r20
     e4c:	95 07       	cpc	r25, r21
     e4e:	20 f0       	brcs	.+8      	; 0xe58 <__addsf3x+0x1c>
     e50:	79 f4       	brne	.+30     	; 0xe70 <__addsf3x+0x34>
     e52:	a6 f5       	brtc	.+104    	; 0xebc <__addsf3x+0x80>
     e54:	0c 94 cb 08 	jmp	0x1196	; 0x1196 <__fp_zero>
     e58:	0e f4       	brtc	.+2      	; 0xe5c <__addsf3x+0x20>
     e5a:	e0 95       	com	r30
     e5c:	0b 2e       	mov	r0, r27
     e5e:	ba 2f       	mov	r27, r26
     e60:	a0 2d       	mov	r26, r0
     e62:	0b 01       	movw	r0, r22
     e64:	b9 01       	movw	r22, r18
     e66:	90 01       	movw	r18, r0
     e68:	0c 01       	movw	r0, r24
     e6a:	ca 01       	movw	r24, r20
     e6c:	a0 01       	movw	r20, r0
     e6e:	11 24       	eor	r1, r1
     e70:	ff 27       	eor	r31, r31
     e72:	59 1b       	sub	r21, r25
     e74:	99 f0       	breq	.+38     	; 0xe9c <__addsf3x+0x60>
     e76:	59 3f       	cpi	r21, 0xF9	; 249
     e78:	50 f4       	brcc	.+20     	; 0xe8e <__addsf3x+0x52>
     e7a:	50 3e       	cpi	r21, 0xE0	; 224
     e7c:	68 f1       	brcs	.+90     	; 0xed8 <__addsf3x+0x9c>
     e7e:	1a 16       	cp	r1, r26
     e80:	f0 40       	sbci	r31, 0x00	; 0
     e82:	a2 2f       	mov	r26, r18
     e84:	23 2f       	mov	r18, r19
     e86:	34 2f       	mov	r19, r20
     e88:	44 27       	eor	r20, r20
     e8a:	58 5f       	subi	r21, 0xF8	; 248
     e8c:	f3 cf       	rjmp	.-26     	; 0xe74 <__addsf3x+0x38>
     e8e:	46 95       	lsr	r20
     e90:	37 95       	ror	r19
     e92:	27 95       	ror	r18
     e94:	a7 95       	ror	r26
     e96:	f0 40       	sbci	r31, 0x00	; 0
     e98:	53 95       	inc	r21
     e9a:	c9 f7       	brne	.-14     	; 0xe8e <__addsf3x+0x52>
     e9c:	7e f4       	brtc	.+30     	; 0xebc <__addsf3x+0x80>
     e9e:	1f 16       	cp	r1, r31
     ea0:	ba 0b       	sbc	r27, r26
     ea2:	62 0b       	sbc	r22, r18
     ea4:	73 0b       	sbc	r23, r19
     ea6:	84 0b       	sbc	r24, r20
     ea8:	ba f0       	brmi	.+46     	; 0xed8 <__addsf3x+0x9c>
     eaa:	91 50       	subi	r25, 0x01	; 1
     eac:	a1 f0       	breq	.+40     	; 0xed6 <__addsf3x+0x9a>
     eae:	ff 0f       	add	r31, r31
     eb0:	bb 1f       	adc	r27, r27
     eb2:	66 1f       	adc	r22, r22
     eb4:	77 1f       	adc	r23, r23
     eb6:	88 1f       	adc	r24, r24
     eb8:	c2 f7       	brpl	.-16     	; 0xeaa <__addsf3x+0x6e>
     eba:	0e c0       	rjmp	.+28     	; 0xed8 <__addsf3x+0x9c>
     ebc:	ba 0f       	add	r27, r26
     ebe:	62 1f       	adc	r22, r18
     ec0:	73 1f       	adc	r23, r19
     ec2:	84 1f       	adc	r24, r20
     ec4:	48 f4       	brcc	.+18     	; 0xed8 <__addsf3x+0x9c>
     ec6:	87 95       	ror	r24
     ec8:	77 95       	ror	r23
     eca:	67 95       	ror	r22
     ecc:	b7 95       	ror	r27
     ece:	f7 95       	ror	r31
     ed0:	9e 3f       	cpi	r25, 0xFE	; 254
     ed2:	08 f0       	brcs	.+2      	; 0xed6 <__addsf3x+0x9a>
     ed4:	b0 cf       	rjmp	.-160    	; 0xe36 <__addsf3+0x28>
     ed6:	93 95       	inc	r25
     ed8:	88 0f       	add	r24, r24
     eda:	08 f0       	brcs	.+2      	; 0xede <__addsf3x+0xa2>
     edc:	99 27       	eor	r25, r25
     ede:	ee 0f       	add	r30, r30
     ee0:	97 95       	ror	r25
     ee2:	87 95       	ror	r24
     ee4:	08 95       	ret

00000ee6 <__cmpsf2>:
     ee6:	0e 94 5d 08 	call	0x10ba	; 0x10ba <__fp_cmp>
     eea:	08 f4       	brcc	.+2      	; 0xeee <__cmpsf2+0x8>
     eec:	81 e0       	ldi	r24, 0x01	; 1
     eee:	08 95       	ret

00000ef0 <__divsf3>:
     ef0:	0e 94 8c 07 	call	0xf18	; 0xf18 <__divsf3x>
     ef4:	0c 94 98 08 	jmp	0x1130	; 0x1130 <__fp_round>
     ef8:	0e 94 91 08 	call	0x1122	; 0x1122 <__fp_pscB>
     efc:	58 f0       	brcs	.+22     	; 0xf14 <__divsf3+0x24>
     efe:	0e 94 8a 08 	call	0x1114	; 0x1114 <__fp_pscA>
     f02:	40 f0       	brcs	.+16     	; 0xf14 <__divsf3+0x24>
     f04:	29 f4       	brne	.+10     	; 0xf10 <__divsf3+0x20>
     f06:	5f 3f       	cpi	r21, 0xFF	; 255
     f08:	29 f0       	breq	.+10     	; 0xf14 <__divsf3+0x24>
     f0a:	0c 94 81 08 	jmp	0x1102	; 0x1102 <__fp_inf>
     f0e:	51 11       	cpse	r21, r1
     f10:	0c 94 cc 08 	jmp	0x1198	; 0x1198 <__fp_szero>
     f14:	0c 94 87 08 	jmp	0x110e	; 0x110e <__fp_nan>

00000f18 <__divsf3x>:
     f18:	0e 94 a9 08 	call	0x1152	; 0x1152 <__fp_split3>
     f1c:	68 f3       	brcs	.-38     	; 0xef8 <__divsf3+0x8>

00000f1e <__divsf3_pse>:
     f1e:	99 23       	and	r25, r25
     f20:	b1 f3       	breq	.-20     	; 0xf0e <__divsf3+0x1e>
     f22:	55 23       	and	r21, r21
     f24:	91 f3       	breq	.-28     	; 0xf0a <__divsf3+0x1a>
     f26:	95 1b       	sub	r25, r21
     f28:	55 0b       	sbc	r21, r21
     f2a:	bb 27       	eor	r27, r27
     f2c:	aa 27       	eor	r26, r26
     f2e:	62 17       	cp	r22, r18
     f30:	73 07       	cpc	r23, r19
     f32:	84 07       	cpc	r24, r20
     f34:	38 f0       	brcs	.+14     	; 0xf44 <__divsf3_pse+0x26>
     f36:	9f 5f       	subi	r25, 0xFF	; 255
     f38:	5f 4f       	sbci	r21, 0xFF	; 255
     f3a:	22 0f       	add	r18, r18
     f3c:	33 1f       	adc	r19, r19
     f3e:	44 1f       	adc	r20, r20
     f40:	aa 1f       	adc	r26, r26
     f42:	a9 f3       	breq	.-22     	; 0xf2e <__divsf3_pse+0x10>
     f44:	35 d0       	rcall	.+106    	; 0xfb0 <__divsf3_pse+0x92>
     f46:	0e 2e       	mov	r0, r30
     f48:	3a f0       	brmi	.+14     	; 0xf58 <__divsf3_pse+0x3a>
     f4a:	e0 e8       	ldi	r30, 0x80	; 128
     f4c:	32 d0       	rcall	.+100    	; 0xfb2 <__divsf3_pse+0x94>
     f4e:	91 50       	subi	r25, 0x01	; 1
     f50:	50 40       	sbci	r21, 0x00	; 0
     f52:	e6 95       	lsr	r30
     f54:	00 1c       	adc	r0, r0
     f56:	ca f7       	brpl	.-14     	; 0xf4a <__divsf3_pse+0x2c>
     f58:	2b d0       	rcall	.+86     	; 0xfb0 <__divsf3_pse+0x92>
     f5a:	fe 2f       	mov	r31, r30
     f5c:	29 d0       	rcall	.+82     	; 0xfb0 <__divsf3_pse+0x92>
     f5e:	66 0f       	add	r22, r22
     f60:	77 1f       	adc	r23, r23
     f62:	88 1f       	adc	r24, r24
     f64:	bb 1f       	adc	r27, r27
     f66:	26 17       	cp	r18, r22
     f68:	37 07       	cpc	r19, r23
     f6a:	48 07       	cpc	r20, r24
     f6c:	ab 07       	cpc	r26, r27
     f6e:	b0 e8       	ldi	r27, 0x80	; 128
     f70:	09 f0       	breq	.+2      	; 0xf74 <__divsf3_pse+0x56>
     f72:	bb 0b       	sbc	r27, r27
     f74:	80 2d       	mov	r24, r0
     f76:	bf 01       	movw	r22, r30
     f78:	ff 27       	eor	r31, r31
     f7a:	93 58       	subi	r25, 0x83	; 131
     f7c:	5f 4f       	sbci	r21, 0xFF	; 255
     f7e:	3a f0       	brmi	.+14     	; 0xf8e <__divsf3_pse+0x70>
     f80:	9e 3f       	cpi	r25, 0xFE	; 254
     f82:	51 05       	cpc	r21, r1
     f84:	78 f0       	brcs	.+30     	; 0xfa4 <__divsf3_pse+0x86>
     f86:	0c 94 81 08 	jmp	0x1102	; 0x1102 <__fp_inf>
     f8a:	0c 94 cc 08 	jmp	0x1198	; 0x1198 <__fp_szero>
     f8e:	5f 3f       	cpi	r21, 0xFF	; 255
     f90:	e4 f3       	brlt	.-8      	; 0xf8a <__divsf3_pse+0x6c>
     f92:	98 3e       	cpi	r25, 0xE8	; 232
     f94:	d4 f3       	brlt	.-12     	; 0xf8a <__divsf3_pse+0x6c>
     f96:	86 95       	lsr	r24
     f98:	77 95       	ror	r23
     f9a:	67 95       	ror	r22
     f9c:	b7 95       	ror	r27
     f9e:	f7 95       	ror	r31
     fa0:	9f 5f       	subi	r25, 0xFF	; 255
     fa2:	c9 f7       	brne	.-14     	; 0xf96 <__divsf3_pse+0x78>
     fa4:	88 0f       	add	r24, r24
     fa6:	91 1d       	adc	r25, r1
     fa8:	96 95       	lsr	r25
     faa:	87 95       	ror	r24
     fac:	97 f9       	bld	r25, 7
     fae:	08 95       	ret
     fb0:	e1 e0       	ldi	r30, 0x01	; 1
     fb2:	66 0f       	add	r22, r22
     fb4:	77 1f       	adc	r23, r23
     fb6:	88 1f       	adc	r24, r24
     fb8:	bb 1f       	adc	r27, r27
     fba:	62 17       	cp	r22, r18
     fbc:	73 07       	cpc	r23, r19
     fbe:	84 07       	cpc	r24, r20
     fc0:	ba 07       	cpc	r27, r26
     fc2:	20 f0       	brcs	.+8      	; 0xfcc <__divsf3_pse+0xae>
     fc4:	62 1b       	sub	r22, r18
     fc6:	73 0b       	sbc	r23, r19
     fc8:	84 0b       	sbc	r24, r20
     fca:	ba 0b       	sbc	r27, r26
     fcc:	ee 1f       	adc	r30, r30
     fce:	88 f7       	brcc	.-30     	; 0xfb2 <__divsf3_pse+0x94>
     fd0:	e0 95       	com	r30
     fd2:	08 95       	ret

00000fd4 <__fixsfsi>:
     fd4:	0e 94 f1 07 	call	0xfe2	; 0xfe2 <__fixunssfsi>
     fd8:	68 94       	set
     fda:	b1 11       	cpse	r27, r1
     fdc:	0c 94 cc 08 	jmp	0x1198	; 0x1198 <__fp_szero>
     fe0:	08 95       	ret

00000fe2 <__fixunssfsi>:
     fe2:	0e 94 b1 08 	call	0x1162	; 0x1162 <__fp_splitA>
     fe6:	88 f0       	brcs	.+34     	; 0x100a <__fixunssfsi+0x28>
     fe8:	9f 57       	subi	r25, 0x7F	; 127
     fea:	98 f0       	brcs	.+38     	; 0x1012 <__fixunssfsi+0x30>
     fec:	b9 2f       	mov	r27, r25
     fee:	99 27       	eor	r25, r25
     ff0:	b7 51       	subi	r27, 0x17	; 23
     ff2:	b0 f0       	brcs	.+44     	; 0x1020 <__fixunssfsi+0x3e>
     ff4:	e1 f0       	breq	.+56     	; 0x102e <__fixunssfsi+0x4c>
     ff6:	66 0f       	add	r22, r22
     ff8:	77 1f       	adc	r23, r23
     ffa:	88 1f       	adc	r24, r24
     ffc:	99 1f       	adc	r25, r25
     ffe:	1a f0       	brmi	.+6      	; 0x1006 <__fixunssfsi+0x24>
    1000:	ba 95       	dec	r27
    1002:	c9 f7       	brne	.-14     	; 0xff6 <__fixunssfsi+0x14>
    1004:	14 c0       	rjmp	.+40     	; 0x102e <__fixunssfsi+0x4c>
    1006:	b1 30       	cpi	r27, 0x01	; 1
    1008:	91 f0       	breq	.+36     	; 0x102e <__fixunssfsi+0x4c>
    100a:	0e 94 cb 08 	call	0x1196	; 0x1196 <__fp_zero>
    100e:	b1 e0       	ldi	r27, 0x01	; 1
    1010:	08 95       	ret
    1012:	0c 94 cb 08 	jmp	0x1196	; 0x1196 <__fp_zero>
    1016:	67 2f       	mov	r22, r23
    1018:	78 2f       	mov	r23, r24
    101a:	88 27       	eor	r24, r24
    101c:	b8 5f       	subi	r27, 0xF8	; 248
    101e:	39 f0       	breq	.+14     	; 0x102e <__fixunssfsi+0x4c>
    1020:	b9 3f       	cpi	r27, 0xF9	; 249
    1022:	cc f3       	brlt	.-14     	; 0x1016 <__fixunssfsi+0x34>
    1024:	86 95       	lsr	r24
    1026:	77 95       	ror	r23
    1028:	67 95       	ror	r22
    102a:	b3 95       	inc	r27
    102c:	d9 f7       	brne	.-10     	; 0x1024 <__fixunssfsi+0x42>
    102e:	3e f4       	brtc	.+14     	; 0x103e <__fixunssfsi+0x5c>
    1030:	90 95       	com	r25
    1032:	80 95       	com	r24
    1034:	70 95       	com	r23
    1036:	61 95       	neg	r22
    1038:	7f 4f       	sbci	r23, 0xFF	; 255
    103a:	8f 4f       	sbci	r24, 0xFF	; 255
    103c:	9f 4f       	sbci	r25, 0xFF	; 255
    103e:	08 95       	ret

00001040 <__floatunsisf>:
    1040:	e8 94       	clt
    1042:	09 c0       	rjmp	.+18     	; 0x1056 <__floatsisf+0x12>

00001044 <__floatsisf>:
    1044:	97 fb       	bst	r25, 7
    1046:	3e f4       	brtc	.+14     	; 0x1056 <__floatsisf+0x12>
    1048:	90 95       	com	r25
    104a:	80 95       	com	r24
    104c:	70 95       	com	r23
    104e:	61 95       	neg	r22
    1050:	7f 4f       	sbci	r23, 0xFF	; 255
    1052:	8f 4f       	sbci	r24, 0xFF	; 255
    1054:	9f 4f       	sbci	r25, 0xFF	; 255
    1056:	99 23       	and	r25, r25
    1058:	a9 f0       	breq	.+42     	; 0x1084 <__floatsisf+0x40>
    105a:	f9 2f       	mov	r31, r25
    105c:	96 e9       	ldi	r25, 0x96	; 150
    105e:	bb 27       	eor	r27, r27
    1060:	93 95       	inc	r25
    1062:	f6 95       	lsr	r31
    1064:	87 95       	ror	r24
    1066:	77 95       	ror	r23
    1068:	67 95       	ror	r22
    106a:	b7 95       	ror	r27
    106c:	f1 11       	cpse	r31, r1
    106e:	f8 cf       	rjmp	.-16     	; 0x1060 <__floatsisf+0x1c>
    1070:	fa f4       	brpl	.+62     	; 0x10b0 <__floatsisf+0x6c>
    1072:	bb 0f       	add	r27, r27
    1074:	11 f4       	brne	.+4      	; 0x107a <__floatsisf+0x36>
    1076:	60 ff       	sbrs	r22, 0
    1078:	1b c0       	rjmp	.+54     	; 0x10b0 <__floatsisf+0x6c>
    107a:	6f 5f       	subi	r22, 0xFF	; 255
    107c:	7f 4f       	sbci	r23, 0xFF	; 255
    107e:	8f 4f       	sbci	r24, 0xFF	; 255
    1080:	9f 4f       	sbci	r25, 0xFF	; 255
    1082:	16 c0       	rjmp	.+44     	; 0x10b0 <__floatsisf+0x6c>
    1084:	88 23       	and	r24, r24
    1086:	11 f0       	breq	.+4      	; 0x108c <__floatsisf+0x48>
    1088:	96 e9       	ldi	r25, 0x96	; 150
    108a:	11 c0       	rjmp	.+34     	; 0x10ae <__floatsisf+0x6a>
    108c:	77 23       	and	r23, r23
    108e:	21 f0       	breq	.+8      	; 0x1098 <__floatsisf+0x54>
    1090:	9e e8       	ldi	r25, 0x8E	; 142
    1092:	87 2f       	mov	r24, r23
    1094:	76 2f       	mov	r23, r22
    1096:	05 c0       	rjmp	.+10     	; 0x10a2 <__floatsisf+0x5e>
    1098:	66 23       	and	r22, r22
    109a:	71 f0       	breq	.+28     	; 0x10b8 <__floatsisf+0x74>
    109c:	96 e8       	ldi	r25, 0x86	; 134
    109e:	86 2f       	mov	r24, r22
    10a0:	70 e0       	ldi	r23, 0x00	; 0
    10a2:	60 e0       	ldi	r22, 0x00	; 0
    10a4:	2a f0       	brmi	.+10     	; 0x10b0 <__floatsisf+0x6c>
    10a6:	9a 95       	dec	r25
    10a8:	66 0f       	add	r22, r22
    10aa:	77 1f       	adc	r23, r23
    10ac:	88 1f       	adc	r24, r24
    10ae:	da f7       	brpl	.-10     	; 0x10a6 <__floatsisf+0x62>
    10b0:	88 0f       	add	r24, r24
    10b2:	96 95       	lsr	r25
    10b4:	87 95       	ror	r24
    10b6:	97 f9       	bld	r25, 7
    10b8:	08 95       	ret

000010ba <__fp_cmp>:
    10ba:	99 0f       	add	r25, r25
    10bc:	00 08       	sbc	r0, r0
    10be:	55 0f       	add	r21, r21
    10c0:	aa 0b       	sbc	r26, r26
    10c2:	e0 e8       	ldi	r30, 0x80	; 128
    10c4:	fe ef       	ldi	r31, 0xFE	; 254
    10c6:	16 16       	cp	r1, r22
    10c8:	17 06       	cpc	r1, r23
    10ca:	e8 07       	cpc	r30, r24
    10cc:	f9 07       	cpc	r31, r25
    10ce:	c0 f0       	brcs	.+48     	; 0x1100 <__fp_cmp+0x46>
    10d0:	12 16       	cp	r1, r18
    10d2:	13 06       	cpc	r1, r19
    10d4:	e4 07       	cpc	r30, r20
    10d6:	f5 07       	cpc	r31, r21
    10d8:	98 f0       	brcs	.+38     	; 0x1100 <__fp_cmp+0x46>
    10da:	62 1b       	sub	r22, r18
    10dc:	73 0b       	sbc	r23, r19
    10de:	84 0b       	sbc	r24, r20
    10e0:	95 0b       	sbc	r25, r21
    10e2:	39 f4       	brne	.+14     	; 0x10f2 <__fp_cmp+0x38>
    10e4:	0a 26       	eor	r0, r26
    10e6:	61 f0       	breq	.+24     	; 0x1100 <__fp_cmp+0x46>
    10e8:	23 2b       	or	r18, r19
    10ea:	24 2b       	or	r18, r20
    10ec:	25 2b       	or	r18, r21
    10ee:	21 f4       	brne	.+8      	; 0x10f8 <__fp_cmp+0x3e>
    10f0:	08 95       	ret
    10f2:	0a 26       	eor	r0, r26
    10f4:	09 f4       	brne	.+2      	; 0x10f8 <__fp_cmp+0x3e>
    10f6:	a1 40       	sbci	r26, 0x01	; 1
    10f8:	a6 95       	lsr	r26
    10fa:	8f ef       	ldi	r24, 0xFF	; 255
    10fc:	81 1d       	adc	r24, r1
    10fe:	81 1d       	adc	r24, r1
    1100:	08 95       	ret

00001102 <__fp_inf>:
    1102:	97 f9       	bld	r25, 7
    1104:	9f 67       	ori	r25, 0x7F	; 127
    1106:	80 e8       	ldi	r24, 0x80	; 128
    1108:	70 e0       	ldi	r23, 0x00	; 0
    110a:	60 e0       	ldi	r22, 0x00	; 0
    110c:	08 95       	ret

0000110e <__fp_nan>:
    110e:	9f ef       	ldi	r25, 0xFF	; 255
    1110:	80 ec       	ldi	r24, 0xC0	; 192
    1112:	08 95       	ret

00001114 <__fp_pscA>:
    1114:	00 24       	eor	r0, r0
    1116:	0a 94       	dec	r0
    1118:	16 16       	cp	r1, r22
    111a:	17 06       	cpc	r1, r23
    111c:	18 06       	cpc	r1, r24
    111e:	09 06       	cpc	r0, r25
    1120:	08 95       	ret

00001122 <__fp_pscB>:
    1122:	00 24       	eor	r0, r0
    1124:	0a 94       	dec	r0
    1126:	12 16       	cp	r1, r18
    1128:	13 06       	cpc	r1, r19
    112a:	14 06       	cpc	r1, r20
    112c:	05 06       	cpc	r0, r21
    112e:	08 95       	ret

00001130 <__fp_round>:
    1130:	09 2e       	mov	r0, r25
    1132:	03 94       	inc	r0
    1134:	00 0c       	add	r0, r0
    1136:	11 f4       	brne	.+4      	; 0x113c <__fp_round+0xc>
    1138:	88 23       	and	r24, r24
    113a:	52 f0       	brmi	.+20     	; 0x1150 <__fp_round+0x20>
    113c:	bb 0f       	add	r27, r27
    113e:	40 f4       	brcc	.+16     	; 0x1150 <__fp_round+0x20>
    1140:	bf 2b       	or	r27, r31
    1142:	11 f4       	brne	.+4      	; 0x1148 <__fp_round+0x18>
    1144:	60 ff       	sbrs	r22, 0
    1146:	04 c0       	rjmp	.+8      	; 0x1150 <__fp_round+0x20>
    1148:	6f 5f       	subi	r22, 0xFF	; 255
    114a:	7f 4f       	sbci	r23, 0xFF	; 255
    114c:	8f 4f       	sbci	r24, 0xFF	; 255
    114e:	9f 4f       	sbci	r25, 0xFF	; 255
    1150:	08 95       	ret

00001152 <__fp_split3>:
    1152:	57 fd       	sbrc	r21, 7
    1154:	90 58       	subi	r25, 0x80	; 128
    1156:	44 0f       	add	r20, r20
    1158:	55 1f       	adc	r21, r21
    115a:	59 f0       	breq	.+22     	; 0x1172 <__fp_splitA+0x10>
    115c:	5f 3f       	cpi	r21, 0xFF	; 255
    115e:	71 f0       	breq	.+28     	; 0x117c <__fp_splitA+0x1a>
    1160:	47 95       	ror	r20

00001162 <__fp_splitA>:
    1162:	88 0f       	add	r24, r24
    1164:	97 fb       	bst	r25, 7
    1166:	99 1f       	adc	r25, r25
    1168:	61 f0       	breq	.+24     	; 0x1182 <__fp_splitA+0x20>
    116a:	9f 3f       	cpi	r25, 0xFF	; 255
    116c:	79 f0       	breq	.+30     	; 0x118c <__fp_splitA+0x2a>
    116e:	87 95       	ror	r24
    1170:	08 95       	ret
    1172:	12 16       	cp	r1, r18
    1174:	13 06       	cpc	r1, r19
    1176:	14 06       	cpc	r1, r20
    1178:	55 1f       	adc	r21, r21
    117a:	f2 cf       	rjmp	.-28     	; 0x1160 <__fp_split3+0xe>
    117c:	46 95       	lsr	r20
    117e:	f1 df       	rcall	.-30     	; 0x1162 <__fp_splitA>
    1180:	08 c0       	rjmp	.+16     	; 0x1192 <__fp_splitA+0x30>
    1182:	16 16       	cp	r1, r22
    1184:	17 06       	cpc	r1, r23
    1186:	18 06       	cpc	r1, r24
    1188:	99 1f       	adc	r25, r25
    118a:	f1 cf       	rjmp	.-30     	; 0x116e <__fp_splitA+0xc>
    118c:	86 95       	lsr	r24
    118e:	71 05       	cpc	r23, r1
    1190:	61 05       	cpc	r22, r1
    1192:	08 94       	sec
    1194:	08 95       	ret

00001196 <__fp_zero>:
    1196:	e8 94       	clt

00001198 <__fp_szero>:
    1198:	bb 27       	eor	r27, r27
    119a:	66 27       	eor	r22, r22
    119c:	77 27       	eor	r23, r23
    119e:	cb 01       	movw	r24, r22
    11a0:	97 f9       	bld	r25, 7
    11a2:	08 95       	ret

000011a4 <__gesf2>:
    11a4:	0e 94 5d 08 	call	0x10ba	; 0x10ba <__fp_cmp>
    11a8:	08 f4       	brcc	.+2      	; 0x11ac <__gesf2+0x8>
    11aa:	8f ef       	ldi	r24, 0xFF	; 255
    11ac:	08 95       	ret

000011ae <__mulsf3>:
    11ae:	0e 94 ea 08 	call	0x11d4	; 0x11d4 <__mulsf3x>
    11b2:	0c 94 98 08 	jmp	0x1130	; 0x1130 <__fp_round>
    11b6:	0e 94 8a 08 	call	0x1114	; 0x1114 <__fp_pscA>
    11ba:	38 f0       	brcs	.+14     	; 0x11ca <__mulsf3+0x1c>
    11bc:	0e 94 91 08 	call	0x1122	; 0x1122 <__fp_pscB>
    11c0:	20 f0       	brcs	.+8      	; 0x11ca <__mulsf3+0x1c>
    11c2:	95 23       	and	r25, r21
    11c4:	11 f0       	breq	.+4      	; 0x11ca <__mulsf3+0x1c>
    11c6:	0c 94 81 08 	jmp	0x1102	; 0x1102 <__fp_inf>
    11ca:	0c 94 87 08 	jmp	0x110e	; 0x110e <__fp_nan>
    11ce:	11 24       	eor	r1, r1
    11d0:	0c 94 cc 08 	jmp	0x1198	; 0x1198 <__fp_szero>

000011d4 <__mulsf3x>:
    11d4:	0e 94 a9 08 	call	0x1152	; 0x1152 <__fp_split3>
    11d8:	70 f3       	brcs	.-36     	; 0x11b6 <__mulsf3+0x8>

000011da <__mulsf3_pse>:
    11da:	95 9f       	mul	r25, r21
    11dc:	c1 f3       	breq	.-16     	; 0x11ce <__mulsf3+0x20>
    11de:	95 0f       	add	r25, r21
    11e0:	50 e0       	ldi	r21, 0x00	; 0
    11e2:	55 1f       	adc	r21, r21
    11e4:	62 9f       	mul	r22, r18
    11e6:	f0 01       	movw	r30, r0
    11e8:	72 9f       	mul	r23, r18
    11ea:	bb 27       	eor	r27, r27
    11ec:	f0 0d       	add	r31, r0
    11ee:	b1 1d       	adc	r27, r1
    11f0:	63 9f       	mul	r22, r19
    11f2:	aa 27       	eor	r26, r26
    11f4:	f0 0d       	add	r31, r0
    11f6:	b1 1d       	adc	r27, r1
    11f8:	aa 1f       	adc	r26, r26
    11fa:	64 9f       	mul	r22, r20
    11fc:	66 27       	eor	r22, r22
    11fe:	b0 0d       	add	r27, r0
    1200:	a1 1d       	adc	r26, r1
    1202:	66 1f       	adc	r22, r22
    1204:	82 9f       	mul	r24, r18
    1206:	22 27       	eor	r18, r18
    1208:	b0 0d       	add	r27, r0
    120a:	a1 1d       	adc	r26, r1
    120c:	62 1f       	adc	r22, r18
    120e:	73 9f       	mul	r23, r19
    1210:	b0 0d       	add	r27, r0
    1212:	a1 1d       	adc	r26, r1
    1214:	62 1f       	adc	r22, r18
    1216:	83 9f       	mul	r24, r19
    1218:	a0 0d       	add	r26, r0
    121a:	61 1d       	adc	r22, r1
    121c:	22 1f       	adc	r18, r18
    121e:	74 9f       	mul	r23, r20
    1220:	33 27       	eor	r19, r19
    1222:	a0 0d       	add	r26, r0
    1224:	61 1d       	adc	r22, r1
    1226:	23 1f       	adc	r18, r19
    1228:	84 9f       	mul	r24, r20
    122a:	60 0d       	add	r22, r0
    122c:	21 1d       	adc	r18, r1
    122e:	82 2f       	mov	r24, r18
    1230:	76 2f       	mov	r23, r22
    1232:	6a 2f       	mov	r22, r26
    1234:	11 24       	eor	r1, r1
    1236:	9f 57       	subi	r25, 0x7F	; 127
    1238:	50 40       	sbci	r21, 0x00	; 0
    123a:	9a f0       	brmi	.+38     	; 0x1262 <__mulsf3_pse+0x88>
    123c:	f1 f0       	breq	.+60     	; 0x127a <__mulsf3_pse+0xa0>
    123e:	88 23       	and	r24, r24
    1240:	4a f0       	brmi	.+18     	; 0x1254 <__mulsf3_pse+0x7a>
    1242:	ee 0f       	add	r30, r30
    1244:	ff 1f       	adc	r31, r31
    1246:	bb 1f       	adc	r27, r27
    1248:	66 1f       	adc	r22, r22
    124a:	77 1f       	adc	r23, r23
    124c:	88 1f       	adc	r24, r24
    124e:	91 50       	subi	r25, 0x01	; 1
    1250:	50 40       	sbci	r21, 0x00	; 0
    1252:	a9 f7       	brne	.-22     	; 0x123e <__mulsf3_pse+0x64>
    1254:	9e 3f       	cpi	r25, 0xFE	; 254
    1256:	51 05       	cpc	r21, r1
    1258:	80 f0       	brcs	.+32     	; 0x127a <__mulsf3_pse+0xa0>
    125a:	0c 94 81 08 	jmp	0x1102	; 0x1102 <__fp_inf>
    125e:	0c 94 cc 08 	jmp	0x1198	; 0x1198 <__fp_szero>
    1262:	5f 3f       	cpi	r21, 0xFF	; 255
    1264:	e4 f3       	brlt	.-8      	; 0x125e <__mulsf3_pse+0x84>
    1266:	98 3e       	cpi	r25, 0xE8	; 232
    1268:	d4 f3       	brlt	.-12     	; 0x125e <__mulsf3_pse+0x84>
    126a:	86 95       	lsr	r24
    126c:	77 95       	ror	r23
    126e:	67 95       	ror	r22
    1270:	b7 95       	ror	r27
    1272:	f7 95       	ror	r31
    1274:	e7 95       	ror	r30
    1276:	9f 5f       	subi	r25, 0xFF	; 255
    1278:	c1 f7       	brne	.-16     	; 0x126a <__mulsf3_pse+0x90>
    127a:	fe 2b       	or	r31, r30
    127c:	88 0f       	add	r24, r24
    127e:	91 1d       	adc	r25, r1
    1280:	96 95       	lsr	r25
    1282:	87 95       	ror	r24
    1284:	97 f9       	bld	r25, 7
    1286:	08 95       	ret

00001288 <dtostrf>:
    1288:	ef 92       	push	r14
    128a:	0f 93       	push	r16
    128c:	1f 93       	push	r17
    128e:	cf 93       	push	r28
    1290:	df 93       	push	r29
    1292:	e8 01       	movw	r28, r16
    1294:	47 fd       	sbrc	r20, 7
    1296:	02 c0       	rjmp	.+4      	; 0x129c <dtostrf+0x14>
    1298:	34 e0       	ldi	r19, 0x04	; 4
    129a:	01 c0       	rjmp	.+2      	; 0x129e <dtostrf+0x16>
    129c:	34 e1       	ldi	r19, 0x14	; 20
    129e:	04 2e       	mov	r0, r20
    12a0:	00 0c       	add	r0, r0
    12a2:	55 0b       	sbc	r21, r21
    12a4:	57 ff       	sbrs	r21, 7
    12a6:	03 c0       	rjmp	.+6      	; 0x12ae <dtostrf+0x26>
    12a8:	51 95       	neg	r21
    12aa:	41 95       	neg	r20
    12ac:	51 09       	sbc	r21, r1
    12ae:	e3 2e       	mov	r14, r19
    12b0:	02 2f       	mov	r16, r18
    12b2:	24 2f       	mov	r18, r20
    12b4:	ae 01       	movw	r20, r28
    12b6:	0e 94 8d 09 	call	0x131a	; 0x131a <dtoa_prf>
    12ba:	ce 01       	movw	r24, r28
    12bc:	df 91       	pop	r29
    12be:	cf 91       	pop	r28
    12c0:	1f 91       	pop	r17
    12c2:	0f 91       	pop	r16
    12c4:	ef 90       	pop	r14
    12c6:	08 95       	ret

000012c8 <atof>:
    12c8:	66 27       	eor	r22, r22
    12ca:	77 27       	eor	r23, r23
    12cc:	0c 94 e7 0a 	jmp	0x15ce	; 0x15ce <strtod>

000012d0 <__itoa_ncheck>:
    12d0:	bb 27       	eor	r27, r27
    12d2:	4a 30       	cpi	r20, 0x0A	; 10
    12d4:	31 f4       	brne	.+12     	; 0x12e2 <__itoa_ncheck+0x12>
    12d6:	99 23       	and	r25, r25
    12d8:	22 f4       	brpl	.+8      	; 0x12e2 <__itoa_ncheck+0x12>
    12da:	bd e2       	ldi	r27, 0x2D	; 45
    12dc:	90 95       	com	r25
    12de:	81 95       	neg	r24
    12e0:	9f 4f       	sbci	r25, 0xFF	; 255
    12e2:	0c 94 74 09 	jmp	0x12e8	; 0x12e8 <__utoa_common>

000012e6 <__utoa_ncheck>:
    12e6:	bb 27       	eor	r27, r27

000012e8 <__utoa_common>:
    12e8:	fb 01       	movw	r30, r22
    12ea:	55 27       	eor	r21, r21
    12ec:	aa 27       	eor	r26, r26
    12ee:	88 0f       	add	r24, r24
    12f0:	99 1f       	adc	r25, r25
    12f2:	aa 1f       	adc	r26, r26
    12f4:	a4 17       	cp	r26, r20
    12f6:	10 f0       	brcs	.+4      	; 0x12fc <__utoa_common+0x14>
    12f8:	a4 1b       	sub	r26, r20
    12fa:	83 95       	inc	r24
    12fc:	50 51       	subi	r21, 0x10	; 16
    12fe:	b9 f7       	brne	.-18     	; 0x12ee <__utoa_common+0x6>
    1300:	a0 5d       	subi	r26, 0xD0	; 208
    1302:	aa 33       	cpi	r26, 0x3A	; 58
    1304:	08 f0       	brcs	.+2      	; 0x1308 <__utoa_common+0x20>
    1306:	a9 5d       	subi	r26, 0xD9	; 217
    1308:	a1 93       	st	Z+, r26
    130a:	00 97       	sbiw	r24, 0x00	; 0
    130c:	79 f7       	brne	.-34     	; 0x12ec <__utoa_common+0x4>
    130e:	b1 11       	cpse	r27, r1
    1310:	b1 93       	st	Z+, r27
    1312:	11 92       	st	Z+, r1
    1314:	cb 01       	movw	r24, r22
    1316:	0c 94 2e 0d 	jmp	0x1a5c	; 0x1a5c <strrev>

0000131a <dtoa_prf>:
    131a:	a9 e0       	ldi	r26, 0x09	; 9
    131c:	b0 e0       	ldi	r27, 0x00	; 0
    131e:	e3 e9       	ldi	r30, 0x93	; 147
    1320:	f9 e0       	ldi	r31, 0x09	; 9
    1322:	0c 94 52 0d 	jmp	0x1aa4	; 0x1aa4 <__prologue_saves__+0xc>
    1326:	6a 01       	movw	r12, r20
    1328:	12 2f       	mov	r17, r18
    132a:	b0 2e       	mov	r11, r16
    132c:	2b e3       	ldi	r18, 0x3B	; 59
    132e:	20 17       	cp	r18, r16
    1330:	20 f0       	brcs	.+8      	; 0x133a <dtoa_prf+0x20>
    1332:	ff 24       	eor	r15, r15
    1334:	f3 94       	inc	r15
    1336:	f0 0e       	add	r15, r16
    1338:	02 c0       	rjmp	.+4      	; 0x133e <dtoa_prf+0x24>
    133a:	2c e3       	ldi	r18, 0x3C	; 60
    133c:	f2 2e       	mov	r15, r18
    133e:	0f 2d       	mov	r16, r15
    1340:	27 e0       	ldi	r18, 0x07	; 7
    1342:	ae 01       	movw	r20, r28
    1344:	4f 5f       	subi	r20, 0xFF	; 255
    1346:	5f 4f       	sbci	r21, 0xFF	; 255
    1348:	0e 94 35 0c 	call	0x186a	; 0x186a <__ftoa_engine>
    134c:	bc 01       	movw	r22, r24
    134e:	49 81       	ldd	r20, Y+1	; 0x01
    1350:	84 2f       	mov	r24, r20
    1352:	89 70       	andi	r24, 0x09	; 9
    1354:	81 30       	cpi	r24, 0x01	; 1
    1356:	31 f0       	breq	.+12     	; 0x1364 <dtoa_prf+0x4a>
    1358:	e1 fc       	sbrc	r14, 1
    135a:	06 c0       	rjmp	.+12     	; 0x1368 <dtoa_prf+0x4e>
    135c:	e0 fe       	sbrs	r14, 0
    135e:	06 c0       	rjmp	.+12     	; 0x136c <dtoa_prf+0x52>
    1360:	90 e2       	ldi	r25, 0x20	; 32
    1362:	05 c0       	rjmp	.+10     	; 0x136e <dtoa_prf+0x54>
    1364:	9d e2       	ldi	r25, 0x2D	; 45
    1366:	03 c0       	rjmp	.+6      	; 0x136e <dtoa_prf+0x54>
    1368:	9b e2       	ldi	r25, 0x2B	; 43
    136a:	01 c0       	rjmp	.+2      	; 0x136e <dtoa_prf+0x54>
    136c:	90 e0       	ldi	r25, 0x00	; 0
    136e:	5e 2d       	mov	r21, r14
    1370:	50 71       	andi	r21, 0x10	; 16
    1372:	43 ff       	sbrs	r20, 3
    1374:	3c c0       	rjmp	.+120    	; 0x13ee <dtoa_prf+0xd4>
    1376:	91 11       	cpse	r25, r1
    1378:	02 c0       	rjmp	.+4      	; 0x137e <dtoa_prf+0x64>
    137a:	83 e0       	ldi	r24, 0x03	; 3
    137c:	01 c0       	rjmp	.+2      	; 0x1380 <dtoa_prf+0x66>
    137e:	84 e0       	ldi	r24, 0x04	; 4
    1380:	81 17       	cp	r24, r17
    1382:	18 f4       	brcc	.+6      	; 0x138a <dtoa_prf+0x70>
    1384:	21 2f       	mov	r18, r17
    1386:	28 1b       	sub	r18, r24
    1388:	01 c0       	rjmp	.+2      	; 0x138c <dtoa_prf+0x72>
    138a:	20 e0       	ldi	r18, 0x00	; 0
    138c:	51 11       	cpse	r21, r1
    138e:	0b c0       	rjmp	.+22     	; 0x13a6 <dtoa_prf+0x8c>
    1390:	f6 01       	movw	r30, r12
    1392:	82 2f       	mov	r24, r18
    1394:	30 e2       	ldi	r19, 0x20	; 32
    1396:	88 23       	and	r24, r24
    1398:	19 f0       	breq	.+6      	; 0x13a0 <dtoa_prf+0x86>
    139a:	31 93       	st	Z+, r19
    139c:	81 50       	subi	r24, 0x01	; 1
    139e:	fb cf       	rjmp	.-10     	; 0x1396 <dtoa_prf+0x7c>
    13a0:	c2 0e       	add	r12, r18
    13a2:	d1 1c       	adc	r13, r1
    13a4:	20 e0       	ldi	r18, 0x00	; 0
    13a6:	99 23       	and	r25, r25
    13a8:	29 f0       	breq	.+10     	; 0x13b4 <dtoa_prf+0x9a>
    13aa:	d6 01       	movw	r26, r12
    13ac:	9c 93       	st	X, r25
    13ae:	f6 01       	movw	r30, r12
    13b0:	31 96       	adiw	r30, 0x01	; 1
    13b2:	6f 01       	movw	r12, r30
    13b4:	c6 01       	movw	r24, r12
    13b6:	03 96       	adiw	r24, 0x03	; 3
    13b8:	e2 fe       	sbrs	r14, 2
    13ba:	0a c0       	rjmp	.+20     	; 0x13d0 <dtoa_prf+0xb6>
    13bc:	3e e4       	ldi	r19, 0x4E	; 78
    13be:	d6 01       	movw	r26, r12
    13c0:	3c 93       	st	X, r19
    13c2:	41 e4       	ldi	r20, 0x41	; 65
    13c4:	11 96       	adiw	r26, 0x01	; 1
    13c6:	4c 93       	st	X, r20
    13c8:	11 97       	sbiw	r26, 0x01	; 1
    13ca:	12 96       	adiw	r26, 0x02	; 2
    13cc:	3c 93       	st	X, r19
    13ce:	06 c0       	rjmp	.+12     	; 0x13dc <dtoa_prf+0xc2>
    13d0:	3e e6       	ldi	r19, 0x6E	; 110
    13d2:	f6 01       	movw	r30, r12
    13d4:	30 83       	st	Z, r19
    13d6:	41 e6       	ldi	r20, 0x61	; 97
    13d8:	41 83       	std	Z+1, r20	; 0x01
    13da:	32 83       	std	Z+2, r19	; 0x02
    13dc:	fc 01       	movw	r30, r24
    13de:	32 2f       	mov	r19, r18
    13e0:	40 e2       	ldi	r20, 0x20	; 32
    13e2:	33 23       	and	r19, r19
    13e4:	09 f4       	brne	.+2      	; 0x13e8 <dtoa_prf+0xce>
    13e6:	42 c0       	rjmp	.+132    	; 0x146c <dtoa_prf+0x152>
    13e8:	41 93       	st	Z+, r20
    13ea:	31 50       	subi	r19, 0x01	; 1
    13ec:	fa cf       	rjmp	.-12     	; 0x13e2 <dtoa_prf+0xc8>
    13ee:	42 ff       	sbrs	r20, 2
    13f0:	44 c0       	rjmp	.+136    	; 0x147a <dtoa_prf+0x160>
    13f2:	91 11       	cpse	r25, r1
    13f4:	02 c0       	rjmp	.+4      	; 0x13fa <dtoa_prf+0xe0>
    13f6:	83 e0       	ldi	r24, 0x03	; 3
    13f8:	01 c0       	rjmp	.+2      	; 0x13fc <dtoa_prf+0xe2>
    13fa:	84 e0       	ldi	r24, 0x04	; 4
    13fc:	81 17       	cp	r24, r17
    13fe:	18 f4       	brcc	.+6      	; 0x1406 <dtoa_prf+0xec>
    1400:	21 2f       	mov	r18, r17
    1402:	28 1b       	sub	r18, r24
    1404:	01 c0       	rjmp	.+2      	; 0x1408 <dtoa_prf+0xee>
    1406:	20 e0       	ldi	r18, 0x00	; 0
    1408:	51 11       	cpse	r21, r1
    140a:	0b c0       	rjmp	.+22     	; 0x1422 <dtoa_prf+0x108>
    140c:	f6 01       	movw	r30, r12
    140e:	82 2f       	mov	r24, r18
    1410:	30 e2       	ldi	r19, 0x20	; 32
    1412:	88 23       	and	r24, r24
    1414:	19 f0       	breq	.+6      	; 0x141c <dtoa_prf+0x102>
    1416:	31 93       	st	Z+, r19
    1418:	81 50       	subi	r24, 0x01	; 1
    141a:	fb cf       	rjmp	.-10     	; 0x1412 <dtoa_prf+0xf8>
    141c:	c2 0e       	add	r12, r18
    141e:	d1 1c       	adc	r13, r1
    1420:	20 e0       	ldi	r18, 0x00	; 0
    1422:	99 23       	and	r25, r25
    1424:	29 f0       	breq	.+10     	; 0x1430 <dtoa_prf+0x116>
    1426:	d6 01       	movw	r26, r12
    1428:	9c 93       	st	X, r25
    142a:	f6 01       	movw	r30, r12
    142c:	31 96       	adiw	r30, 0x01	; 1
    142e:	6f 01       	movw	r12, r30
    1430:	c6 01       	movw	r24, r12
    1432:	03 96       	adiw	r24, 0x03	; 3
    1434:	e2 fe       	sbrs	r14, 2
    1436:	0b c0       	rjmp	.+22     	; 0x144e <dtoa_prf+0x134>
    1438:	39 e4       	ldi	r19, 0x49	; 73
    143a:	d6 01       	movw	r26, r12
    143c:	3c 93       	st	X, r19
    143e:	3e e4       	ldi	r19, 0x4E	; 78
    1440:	11 96       	adiw	r26, 0x01	; 1
    1442:	3c 93       	st	X, r19
    1444:	11 97       	sbiw	r26, 0x01	; 1
    1446:	36 e4       	ldi	r19, 0x46	; 70
    1448:	12 96       	adiw	r26, 0x02	; 2
    144a:	3c 93       	st	X, r19
    144c:	07 c0       	rjmp	.+14     	; 0x145c <dtoa_prf+0x142>
    144e:	39 e6       	ldi	r19, 0x69	; 105
    1450:	f6 01       	movw	r30, r12
    1452:	30 83       	st	Z, r19
    1454:	3e e6       	ldi	r19, 0x6E	; 110
    1456:	31 83       	std	Z+1, r19	; 0x01
    1458:	36 e6       	ldi	r19, 0x66	; 102
    145a:	32 83       	std	Z+2, r19	; 0x02
    145c:	fc 01       	movw	r30, r24
    145e:	32 2f       	mov	r19, r18
    1460:	40 e2       	ldi	r20, 0x20	; 32
    1462:	33 23       	and	r19, r19
    1464:	19 f0       	breq	.+6      	; 0x146c <dtoa_prf+0x152>
    1466:	41 93       	st	Z+, r20
    1468:	31 50       	subi	r19, 0x01	; 1
    146a:	fb cf       	rjmp	.-10     	; 0x1462 <dtoa_prf+0x148>
    146c:	fc 01       	movw	r30, r24
    146e:	e2 0f       	add	r30, r18
    1470:	f1 1d       	adc	r31, r1
    1472:	10 82       	st	Z, r1
    1474:	8e ef       	ldi	r24, 0xFE	; 254
    1476:	9f ef       	ldi	r25, 0xFF	; 255
    1478:	a6 c0       	rjmp	.+332    	; 0x15c6 <dtoa_prf+0x2ac>
    147a:	21 e0       	ldi	r18, 0x01	; 1
    147c:	30 e0       	ldi	r19, 0x00	; 0
    147e:	91 11       	cpse	r25, r1
    1480:	02 c0       	rjmp	.+4      	; 0x1486 <dtoa_prf+0x16c>
    1482:	20 e0       	ldi	r18, 0x00	; 0
    1484:	30 e0       	ldi	r19, 0x00	; 0
    1486:	16 16       	cp	r1, r22
    1488:	17 06       	cpc	r1, r23
    148a:	1c f4       	brge	.+6      	; 0x1492 <dtoa_prf+0x178>
    148c:	fb 01       	movw	r30, r22
    148e:	31 96       	adiw	r30, 0x01	; 1
    1490:	02 c0       	rjmp	.+4      	; 0x1496 <dtoa_prf+0x17c>
    1492:	e1 e0       	ldi	r30, 0x01	; 1
    1494:	f0 e0       	ldi	r31, 0x00	; 0
    1496:	2e 0f       	add	r18, r30
    1498:	3f 1f       	adc	r19, r31
    149a:	bb 20       	and	r11, r11
    149c:	21 f0       	breq	.+8      	; 0x14a6 <dtoa_prf+0x18c>
    149e:	eb 2d       	mov	r30, r11
    14a0:	f0 e0       	ldi	r31, 0x00	; 0
    14a2:	31 96       	adiw	r30, 0x01	; 1
    14a4:	02 c0       	rjmp	.+4      	; 0x14aa <dtoa_prf+0x190>
    14a6:	e0 e0       	ldi	r30, 0x00	; 0
    14a8:	f0 e0       	ldi	r31, 0x00	; 0
    14aa:	2e 0f       	add	r18, r30
    14ac:	3f 1f       	adc	r19, r31
    14ae:	e1 2f       	mov	r30, r17
    14b0:	f0 e0       	ldi	r31, 0x00	; 0
    14b2:	2e 17       	cp	r18, r30
    14b4:	3f 07       	cpc	r19, r31
    14b6:	1c f4       	brge	.+6      	; 0x14be <dtoa_prf+0x1a4>
    14b8:	12 1b       	sub	r17, r18
    14ba:	21 2f       	mov	r18, r17
    14bc:	01 c0       	rjmp	.+2      	; 0x14c0 <dtoa_prf+0x1a6>
    14be:	20 e0       	ldi	r18, 0x00	; 0
    14c0:	8e 2d       	mov	r24, r14
    14c2:	88 71       	andi	r24, 0x18	; 24
    14c4:	59 f4       	brne	.+22     	; 0x14dc <dtoa_prf+0x1c2>
    14c6:	f6 01       	movw	r30, r12
    14c8:	82 2f       	mov	r24, r18
    14ca:	30 e2       	ldi	r19, 0x20	; 32
    14cc:	88 23       	and	r24, r24
    14ce:	19 f0       	breq	.+6      	; 0x14d6 <dtoa_prf+0x1bc>
    14d0:	31 93       	st	Z+, r19
    14d2:	81 50       	subi	r24, 0x01	; 1
    14d4:	fb cf       	rjmp	.-10     	; 0x14cc <dtoa_prf+0x1b2>
    14d6:	c2 0e       	add	r12, r18
    14d8:	d1 1c       	adc	r13, r1
    14da:	20 e0       	ldi	r18, 0x00	; 0
    14dc:	99 23       	and	r25, r25
    14de:	29 f0       	breq	.+10     	; 0x14ea <dtoa_prf+0x1d0>
    14e0:	d6 01       	movw	r26, r12
    14e2:	9c 93       	st	X, r25
    14e4:	f6 01       	movw	r30, r12
    14e6:	31 96       	adiw	r30, 0x01	; 1
    14e8:	6f 01       	movw	r12, r30
    14ea:	51 11       	cpse	r21, r1
    14ec:	0b c0       	rjmp	.+22     	; 0x1504 <dtoa_prf+0x1ea>
    14ee:	f6 01       	movw	r30, r12
    14f0:	82 2f       	mov	r24, r18
    14f2:	90 e3       	ldi	r25, 0x30	; 48
    14f4:	88 23       	and	r24, r24
    14f6:	19 f0       	breq	.+6      	; 0x14fe <dtoa_prf+0x1e4>
    14f8:	91 93       	st	Z+, r25
    14fa:	81 50       	subi	r24, 0x01	; 1
    14fc:	fb cf       	rjmp	.-10     	; 0x14f4 <dtoa_prf+0x1da>
    14fe:	c2 0e       	add	r12, r18
    1500:	d1 1c       	adc	r13, r1
    1502:	20 e0       	ldi	r18, 0x00	; 0
    1504:	0f 2d       	mov	r16, r15
    1506:	06 0f       	add	r16, r22
    1508:	9a 81       	ldd	r25, Y+2	; 0x02
    150a:	34 2f       	mov	r19, r20
    150c:	30 71       	andi	r19, 0x10	; 16
    150e:	44 ff       	sbrs	r20, 4
    1510:	03 c0       	rjmp	.+6      	; 0x1518 <dtoa_prf+0x1fe>
    1512:	91 33       	cpi	r25, 0x31	; 49
    1514:	09 f4       	brne	.+2      	; 0x1518 <dtoa_prf+0x1fe>
    1516:	01 50       	subi	r16, 0x01	; 1
    1518:	10 16       	cp	r1, r16
    151a:	24 f4       	brge	.+8      	; 0x1524 <dtoa_prf+0x20a>
    151c:	09 30       	cpi	r16, 0x09	; 9
    151e:	18 f0       	brcs	.+6      	; 0x1526 <dtoa_prf+0x20c>
    1520:	08 e0       	ldi	r16, 0x08	; 8
    1522:	01 c0       	rjmp	.+2      	; 0x1526 <dtoa_prf+0x20c>
    1524:	01 e0       	ldi	r16, 0x01	; 1
    1526:	ab 01       	movw	r20, r22
    1528:	77 ff       	sbrs	r23, 7
    152a:	02 c0       	rjmp	.+4      	; 0x1530 <dtoa_prf+0x216>
    152c:	40 e0       	ldi	r20, 0x00	; 0
    152e:	50 e0       	ldi	r21, 0x00	; 0
    1530:	fb 01       	movw	r30, r22
    1532:	e4 1b       	sub	r30, r20
    1534:	f5 0b       	sbc	r31, r21
    1536:	a1 e0       	ldi	r26, 0x01	; 1
    1538:	b0 e0       	ldi	r27, 0x00	; 0
    153a:	ac 0f       	add	r26, r28
    153c:	bd 1f       	adc	r27, r29
    153e:	ea 0f       	add	r30, r26
    1540:	fb 1f       	adc	r31, r27
    1542:	8e e2       	ldi	r24, 0x2E	; 46
    1544:	a8 2e       	mov	r10, r24
    1546:	4b 01       	movw	r8, r22
    1548:	80 1a       	sub	r8, r16
    154a:	91 08       	sbc	r9, r1
    154c:	0b 2d       	mov	r16, r11
    154e:	10 e0       	ldi	r17, 0x00	; 0
    1550:	11 95       	neg	r17
    1552:	01 95       	neg	r16
    1554:	11 09       	sbc	r17, r1
    1556:	4f 3f       	cpi	r20, 0xFF	; 255
    1558:	bf ef       	ldi	r27, 0xFF	; 255
    155a:	5b 07       	cpc	r21, r27
    155c:	21 f4       	brne	.+8      	; 0x1566 <dtoa_prf+0x24c>
    155e:	d6 01       	movw	r26, r12
    1560:	ac 92       	st	X, r10
    1562:	11 96       	adiw	r26, 0x01	; 1
    1564:	6d 01       	movw	r12, r26
    1566:	64 17       	cp	r22, r20
    1568:	75 07       	cpc	r23, r21
    156a:	2c f0       	brlt	.+10     	; 0x1576 <dtoa_prf+0x25c>
    156c:	84 16       	cp	r8, r20
    156e:	95 06       	cpc	r9, r21
    1570:	14 f4       	brge	.+4      	; 0x1576 <dtoa_prf+0x25c>
    1572:	81 81       	ldd	r24, Z+1	; 0x01
    1574:	01 c0       	rjmp	.+2      	; 0x1578 <dtoa_prf+0x25e>
    1576:	80 e3       	ldi	r24, 0x30	; 48
    1578:	41 50       	subi	r20, 0x01	; 1
    157a:	51 09       	sbc	r21, r1
    157c:	31 96       	adiw	r30, 0x01	; 1
    157e:	d6 01       	movw	r26, r12
    1580:	11 96       	adiw	r26, 0x01	; 1
    1582:	7d 01       	movw	r14, r26
    1584:	40 17       	cp	r20, r16
    1586:	51 07       	cpc	r21, r17
    1588:	24 f0       	brlt	.+8      	; 0x1592 <dtoa_prf+0x278>
    158a:	d6 01       	movw	r26, r12
    158c:	8c 93       	st	X, r24
    158e:	67 01       	movw	r12, r14
    1590:	e2 cf       	rjmp	.-60     	; 0x1556 <dtoa_prf+0x23c>
    1592:	64 17       	cp	r22, r20
    1594:	75 07       	cpc	r23, r21
    1596:	39 f4       	brne	.+14     	; 0x15a6 <dtoa_prf+0x28c>
    1598:	96 33       	cpi	r25, 0x36	; 54
    159a:	20 f4       	brcc	.+8      	; 0x15a4 <dtoa_prf+0x28a>
    159c:	95 33       	cpi	r25, 0x35	; 53
    159e:	19 f4       	brne	.+6      	; 0x15a6 <dtoa_prf+0x28c>
    15a0:	31 11       	cpse	r19, r1
    15a2:	01 c0       	rjmp	.+2      	; 0x15a6 <dtoa_prf+0x28c>
    15a4:	81 e3       	ldi	r24, 0x31	; 49
    15a6:	f6 01       	movw	r30, r12
    15a8:	80 83       	st	Z, r24
    15aa:	f7 01       	movw	r30, r14
    15ac:	82 2f       	mov	r24, r18
    15ae:	90 e2       	ldi	r25, 0x20	; 32
    15b0:	88 23       	and	r24, r24
    15b2:	19 f0       	breq	.+6      	; 0x15ba <dtoa_prf+0x2a0>
    15b4:	91 93       	st	Z+, r25
    15b6:	81 50       	subi	r24, 0x01	; 1
    15b8:	fb cf       	rjmp	.-10     	; 0x15b0 <dtoa_prf+0x296>
    15ba:	f7 01       	movw	r30, r14
    15bc:	e2 0f       	add	r30, r18
    15be:	f1 1d       	adc	r31, r1
    15c0:	10 82       	st	Z, r1
    15c2:	80 e0       	ldi	r24, 0x00	; 0
    15c4:	90 e0       	ldi	r25, 0x00	; 0
    15c6:	29 96       	adiw	r28, 0x09	; 9
    15c8:	ec e0       	ldi	r30, 0x0C	; 12
    15ca:	0c 94 6e 0d 	jmp	0x1adc	; 0x1adc <__epilogue_restores__+0xc>

000015ce <strtod>:
    15ce:	a0 e0       	ldi	r26, 0x00	; 0
    15d0:	b0 e0       	ldi	r27, 0x00	; 0
    15d2:	ed ee       	ldi	r30, 0xED	; 237
    15d4:	fa e0       	ldi	r31, 0x0A	; 10
    15d6:	0c 94 52 0d 	jmp	0x1aa4	; 0x1aa4 <__prologue_saves__+0xc>
    15da:	ec 01       	movw	r28, r24
    15dc:	6b 01       	movw	r12, r22
    15de:	61 15       	cp	r22, r1
    15e0:	71 05       	cpc	r23, r1
    15e2:	19 f0       	breq	.+6      	; 0x15ea <strtod+0x1c>
    15e4:	fb 01       	movw	r30, r22
    15e6:	91 83       	std	Z+1, r25	; 0x01
    15e8:	80 83       	st	Z, r24
    15ea:	7e 01       	movw	r14, r28
    15ec:	ff ef       	ldi	r31, 0xFF	; 255
    15ee:	ef 1a       	sub	r14, r31
    15f0:	ff 0a       	sbc	r15, r31
    15f2:	08 81       	ld	r16, Y
    15f4:	80 2f       	mov	r24, r16
    15f6:	90 e0       	ldi	r25, 0x00	; 0
    15f8:	0e 94 0d 0d 	call	0x1a1a	; 0x1a1a <isspace>
    15fc:	89 2b       	or	r24, r25
    15fe:	11 f0       	breq	.+4      	; 0x1604 <strtod+0x36>
    1600:	e7 01       	movw	r28, r14
    1602:	f3 cf       	rjmp	.-26     	; 0x15ea <strtod+0x1c>
    1604:	0d 32       	cpi	r16, 0x2D	; 45
    1606:	39 f4       	brne	.+14     	; 0x1616 <strtod+0x48>
    1608:	7e 01       	movw	r14, r28
    160a:	82 e0       	ldi	r24, 0x02	; 2
    160c:	e8 0e       	add	r14, r24
    160e:	f1 1c       	adc	r15, r1
    1610:	09 81       	ldd	r16, Y+1	; 0x01
    1612:	11 e0       	ldi	r17, 0x01	; 1
    1614:	08 c0       	rjmp	.+16     	; 0x1626 <strtod+0x58>
    1616:	0b 32       	cpi	r16, 0x2B	; 43
    1618:	29 f4       	brne	.+10     	; 0x1624 <strtod+0x56>
    161a:	7e 01       	movw	r14, r28
    161c:	92 e0       	ldi	r25, 0x02	; 2
    161e:	e9 0e       	add	r14, r25
    1620:	f1 1c       	adc	r15, r1
    1622:	09 81       	ldd	r16, Y+1	; 0x01
    1624:	10 e0       	ldi	r17, 0x00	; 0
    1626:	e7 01       	movw	r28, r14
    1628:	21 97       	sbiw	r28, 0x01	; 1
    162a:	43 e0       	ldi	r20, 0x03	; 3
    162c:	50 e0       	ldi	r21, 0x00	; 0
    162e:	6c e5       	ldi	r22, 0x5C	; 92
    1630:	70 e0       	ldi	r23, 0x00	; 0
    1632:	ce 01       	movw	r24, r28
    1634:	0e 94 16 0d 	call	0x1a2c	; 0x1a2c <strncasecmp_P>
    1638:	89 2b       	or	r24, r25
    163a:	c1 f4       	brne	.+48     	; 0x166c <strtod+0x9e>
    163c:	23 96       	adiw	r28, 0x03	; 3
    163e:	45 e0       	ldi	r20, 0x05	; 5
    1640:	50 e0       	ldi	r21, 0x00	; 0
    1642:	67 e5       	ldi	r22, 0x57	; 87
    1644:	70 e0       	ldi	r23, 0x00	; 0
    1646:	ce 01       	movw	r24, r28
    1648:	0e 94 16 0d 	call	0x1a2c	; 0x1a2c <strncasecmp_P>
    164c:	89 2b       	or	r24, r25
    164e:	09 f4       	brne	.+2      	; 0x1652 <strtod+0x84>
    1650:	25 96       	adiw	r28, 0x05	; 5
    1652:	c1 14       	cp	r12, r1
    1654:	d1 04       	cpc	r13, r1
    1656:	19 f0       	breq	.+6      	; 0x165e <strtod+0x90>
    1658:	f6 01       	movw	r30, r12
    165a:	d1 83       	std	Z+1, r29	; 0x01
    165c:	c0 83       	st	Z, r28
    165e:	11 11       	cpse	r17, r1
    1660:	f6 c0       	rjmp	.+492    	; 0x184e <strtod+0x280>
    1662:	60 e0       	ldi	r22, 0x00	; 0
    1664:	70 e0       	ldi	r23, 0x00	; 0
    1666:	80 e8       	ldi	r24, 0x80	; 128
    1668:	9f e7       	ldi	r25, 0x7F	; 127
    166a:	fa c0       	rjmp	.+500    	; 0x1860 <strtod+0x292>
    166c:	43 e0       	ldi	r20, 0x03	; 3
    166e:	50 e0       	ldi	r21, 0x00	; 0
    1670:	64 e5       	ldi	r22, 0x54	; 84
    1672:	70 e0       	ldi	r23, 0x00	; 0
    1674:	ce 01       	movw	r24, r28
    1676:	0e 94 16 0d 	call	0x1a2c	; 0x1a2c <strncasecmp_P>
    167a:	89 2b       	or	r24, r25
    167c:	59 f4       	brne	.+22     	; 0x1694 <strtod+0xc6>
    167e:	c1 14       	cp	r12, r1
    1680:	d1 04       	cpc	r13, r1
    1682:	09 f4       	brne	.+2      	; 0x1686 <strtod+0xb8>
    1684:	e9 c0       	rjmp	.+466    	; 0x1858 <strtod+0x28a>
    1686:	f2 e0       	ldi	r31, 0x02	; 2
    1688:	ef 0e       	add	r14, r31
    168a:	f1 1c       	adc	r15, r1
    168c:	f6 01       	movw	r30, r12
    168e:	f1 82       	std	Z+1, r15	; 0x01
    1690:	e0 82       	st	Z, r14
    1692:	e2 c0       	rjmp	.+452    	; 0x1858 <strtod+0x28a>
    1694:	20 e0       	ldi	r18, 0x00	; 0
    1696:	30 e0       	ldi	r19, 0x00	; 0
    1698:	a9 01       	movw	r20, r18
    169a:	c0 e0       	ldi	r28, 0x00	; 0
    169c:	d0 e0       	ldi	r29, 0x00	; 0
    169e:	f7 01       	movw	r30, r14
    16a0:	80 ed       	ldi	r24, 0xD0	; 208
    16a2:	a8 2e       	mov	r10, r24
    16a4:	a0 0e       	add	r10, r16
    16a6:	89 e0       	ldi	r24, 0x09	; 9
    16a8:	8a 15       	cp	r24, r10
    16aa:	30 f1       	brcs	.+76     	; 0x16f8 <strtod+0x12a>
    16ac:	91 2f       	mov	r25, r17
    16ae:	92 60       	ori	r25, 0x02	; 2
    16b0:	b9 2e       	mov	r11, r25
    16b2:	81 2f       	mov	r24, r17
    16b4:	88 70       	andi	r24, 0x08	; 8
    16b6:	12 ff       	sbrs	r17, 2
    16b8:	04 c0       	rjmp	.+8      	; 0x16c2 <strtod+0xf4>
    16ba:	81 11       	cpse	r24, r1
    16bc:	24 c0       	rjmp	.+72     	; 0x1706 <strtod+0x138>
    16be:	21 96       	adiw	r28, 0x01	; 1
    16c0:	22 c0       	rjmp	.+68     	; 0x1706 <strtod+0x138>
    16c2:	81 11       	cpse	r24, r1
    16c4:	21 97       	sbiw	r28, 0x01	; 1
    16c6:	a5 e0       	ldi	r26, 0x05	; 5
    16c8:	b0 e0       	ldi	r27, 0x00	; 0
    16ca:	0e 94 41 0d 	call	0x1a82	; 0x1a82 <__muluhisi3>
    16ce:	dc 01       	movw	r26, r24
    16d0:	cb 01       	movw	r24, r22
    16d2:	88 0f       	add	r24, r24
    16d4:	99 1f       	adc	r25, r25
    16d6:	aa 1f       	adc	r26, r26
    16d8:	bb 1f       	adc	r27, r27
    16da:	9c 01       	movw	r18, r24
    16dc:	ad 01       	movw	r20, r26
    16de:	2a 0d       	add	r18, r10
    16e0:	31 1d       	adc	r19, r1
    16e2:	41 1d       	adc	r20, r1
    16e4:	51 1d       	adc	r21, r1
    16e6:	28 39       	cpi	r18, 0x98	; 152
    16e8:	89 e9       	ldi	r24, 0x99	; 153
    16ea:	38 07       	cpc	r19, r24
    16ec:	48 07       	cpc	r20, r24
    16ee:	89 e1       	ldi	r24, 0x19	; 25
    16f0:	58 07       	cpc	r21, r24
    16f2:	48 f0       	brcs	.+18     	; 0x1706 <strtod+0x138>
    16f4:	16 60       	ori	r17, 0x06	; 6
    16f6:	06 c0       	rjmp	.+12     	; 0x1704 <strtod+0x136>
    16f8:	9e ef       	ldi	r25, 0xFE	; 254
    16fa:	a9 12       	cpse	r10, r25
    16fc:	0a c0       	rjmp	.+20     	; 0x1712 <strtod+0x144>
    16fe:	13 fd       	sbrc	r17, 3
    1700:	40 c0       	rjmp	.+128    	; 0x1782 <strtod+0x1b4>
    1702:	18 60       	ori	r17, 0x08	; 8
    1704:	b1 2e       	mov	r11, r17
    1706:	8f ef       	ldi	r24, 0xFF	; 255
    1708:	e8 1a       	sub	r14, r24
    170a:	f8 0a       	sbc	r15, r24
    170c:	00 81       	ld	r16, Z
    170e:	1b 2d       	mov	r17, r11
    1710:	c6 cf       	rjmp	.-116    	; 0x169e <strtod+0xd0>
    1712:	80 2f       	mov	r24, r16
    1714:	8f 7d       	andi	r24, 0xDF	; 223
    1716:	85 34       	cpi	r24, 0x45	; 69
    1718:	a1 f5       	brne	.+104    	; 0x1782 <strtod+0x1b4>
    171a:	80 81       	ld	r24, Z
    171c:	8d 32       	cpi	r24, 0x2D	; 45
    171e:	11 f4       	brne	.+4      	; 0x1724 <strtod+0x156>
    1720:	10 61       	ori	r17, 0x10	; 16
    1722:	06 c0       	rjmp	.+12     	; 0x1730 <strtod+0x162>
    1724:	8b 32       	cpi	r24, 0x2B	; 43
    1726:	21 f0       	breq	.+8      	; 0x1730 <strtod+0x162>
    1728:	31 96       	adiw	r30, 0x01	; 1
    172a:	61 e0       	ldi	r22, 0x01	; 1
    172c:	70 e0       	ldi	r23, 0x00	; 0
    172e:	04 c0       	rjmp	.+8      	; 0x1738 <strtod+0x16a>
    1730:	81 81       	ldd	r24, Z+1	; 0x01
    1732:	32 96       	adiw	r30, 0x02	; 2
    1734:	62 e0       	ldi	r22, 0x02	; 2
    1736:	70 e0       	ldi	r23, 0x00	; 0
    1738:	80 53       	subi	r24, 0x30	; 48
    173a:	8a 30       	cpi	r24, 0x0A	; 10
    173c:	18 f0       	brcs	.+6      	; 0x1744 <strtod+0x176>
    173e:	e6 1b       	sub	r30, r22
    1740:	f7 0b       	sbc	r31, r23
    1742:	1f c0       	rjmp	.+62     	; 0x1782 <strtod+0x1b4>
    1744:	60 e0       	ldi	r22, 0x00	; 0
    1746:	70 e0       	ldi	r23, 0x00	; 0
    1748:	60 38       	cpi	r22, 0x80	; 128
    174a:	9c e0       	ldi	r25, 0x0C	; 12
    174c:	79 07       	cpc	r23, r25
    174e:	5c f4       	brge	.+22     	; 0x1766 <strtod+0x198>
    1750:	db 01       	movw	r26, r22
    1752:	aa 0f       	add	r26, r26
    1754:	bb 1f       	adc	r27, r27
    1756:	aa 0f       	add	r26, r26
    1758:	bb 1f       	adc	r27, r27
    175a:	6a 0f       	add	r22, r26
    175c:	7b 1f       	adc	r23, r27
    175e:	66 0f       	add	r22, r22
    1760:	77 1f       	adc	r23, r23
    1762:	68 0f       	add	r22, r24
    1764:	71 1d       	adc	r23, r1
    1766:	31 96       	adiw	r30, 0x01	; 1
    1768:	df 01       	movw	r26, r30
    176a:	11 97       	sbiw	r26, 0x01	; 1
    176c:	8c 91       	ld	r24, X
    176e:	80 53       	subi	r24, 0x30	; 48
    1770:	8a 30       	cpi	r24, 0x0A	; 10
    1772:	50 f3       	brcs	.-44     	; 0x1748 <strtod+0x17a>
    1774:	14 ff       	sbrs	r17, 4
    1776:	03 c0       	rjmp	.+6      	; 0x177e <strtod+0x1b0>
    1778:	71 95       	neg	r23
    177a:	61 95       	neg	r22
    177c:	71 09       	sbc	r23, r1
    177e:	c6 0f       	add	r28, r22
    1780:	d7 1f       	adc	r29, r23
    1782:	11 ff       	sbrs	r17, 1
    1784:	08 c0       	rjmp	.+16     	; 0x1796 <strtod+0x1c8>
    1786:	c1 14       	cp	r12, r1
    1788:	d1 04       	cpc	r13, r1
    178a:	29 f0       	breq	.+10     	; 0x1796 <strtod+0x1c8>
    178c:	cf 01       	movw	r24, r30
    178e:	01 97       	sbiw	r24, 0x01	; 1
    1790:	f6 01       	movw	r30, r12
    1792:	91 83       	std	Z+1, r25	; 0x01
    1794:	80 83       	st	Z, r24
    1796:	ca 01       	movw	r24, r20
    1798:	b9 01       	movw	r22, r18
    179a:	0e 94 20 08 	call	0x1040	; 0x1040 <__floatunsisf>
    179e:	21 2f       	mov	r18, r17
    17a0:	23 70       	andi	r18, 0x03	; 3
    17a2:	23 30       	cpi	r18, 0x03	; 3
    17a4:	19 f0       	breq	.+6      	; 0x17ac <strtod+0x1de>
    17a6:	4b 01       	movw	r8, r22
    17a8:	5c 01       	movw	r10, r24
    17aa:	06 c0       	rjmp	.+12     	; 0x17b8 <strtod+0x1ea>
    17ac:	4b 01       	movw	r8, r22
    17ae:	5c 01       	movw	r10, r24
    17b0:	b7 fa       	bst	r11, 7
    17b2:	b0 94       	com	r11
    17b4:	b7 f8       	bld	r11, 7
    17b6:	b0 94       	com	r11
    17b8:	20 e0       	ldi	r18, 0x00	; 0
    17ba:	30 e0       	ldi	r19, 0x00	; 0
    17bc:	a9 01       	movw	r20, r18
    17be:	c5 01       	movw	r24, r10
    17c0:	b4 01       	movw	r22, r8
    17c2:	0e 94 73 07 	call	0xee6	; 0xee6 <__cmpsf2>
    17c6:	88 23       	and	r24, r24
    17c8:	09 f4       	brne	.+2      	; 0x17cc <strtod+0x1fe>
    17ca:	3e c0       	rjmp	.+124    	; 0x1848 <strtod+0x27a>
    17cc:	d7 ff       	sbrs	r29, 7
    17ce:	06 c0       	rjmp	.+12     	; 0x17dc <strtod+0x20e>
    17d0:	d1 95       	neg	r29
    17d2:	c1 95       	neg	r28
    17d4:	d1 09       	sbc	r29, r1
    17d6:	03 e7       	ldi	r16, 0x73	; 115
    17d8:	10 e0       	ldi	r17, 0x00	; 0
    17da:	02 c0       	rjmp	.+4      	; 0x17e0 <strtod+0x212>
    17dc:	0b e8       	ldi	r16, 0x8B	; 139
    17de:	10 e0       	ldi	r17, 0x00	; 0
    17e0:	68 01       	movw	r12, r16
    17e2:	f8 e1       	ldi	r31, 0x18	; 24
    17e4:	cf 1a       	sub	r12, r31
    17e6:	d1 08       	sbc	r13, r1
    17e8:	90 e2       	ldi	r25, 0x20	; 32
    17ea:	e9 2e       	mov	r14, r25
    17ec:	f1 2c       	mov	r15, r1
    17ee:	ce 15       	cp	r28, r14
    17f0:	df 05       	cpc	r29, r15
    17f2:	74 f0       	brlt	.+28     	; 0x1810 <strtod+0x242>
    17f4:	f8 01       	movw	r30, r16
    17f6:	25 91       	lpm	r18, Z+
    17f8:	35 91       	lpm	r19, Z+
    17fa:	45 91       	lpm	r20, Z+
    17fc:	54 91       	lpm	r21, Z
    17fe:	c5 01       	movw	r24, r10
    1800:	b4 01       	movw	r22, r8
    1802:	0e 94 d7 08 	call	0x11ae	; 0x11ae <__mulsf3>
    1806:	4b 01       	movw	r8, r22
    1808:	5c 01       	movw	r10, r24
    180a:	ce 19       	sub	r28, r14
    180c:	df 09       	sbc	r29, r15
    180e:	ef cf       	rjmp	.-34     	; 0x17ee <strtod+0x220>
    1810:	04 50       	subi	r16, 0x04	; 4
    1812:	11 09       	sbc	r17, r1
    1814:	f5 94       	asr	r15
    1816:	e7 94       	ror	r14
    1818:	0c 15       	cp	r16, r12
    181a:	1d 05       	cpc	r17, r13
    181c:	41 f7       	brne	.-48     	; 0x17ee <strtod+0x220>
    181e:	8a 2d       	mov	r24, r10
    1820:	88 0f       	add	r24, r24
    1822:	8b 2d       	mov	r24, r11
    1824:	88 1f       	adc	r24, r24
    1826:	8f 3f       	cpi	r24, 0xFF	; 255
    1828:	49 f0       	breq	.+18     	; 0x183c <strtod+0x26e>
    182a:	20 e0       	ldi	r18, 0x00	; 0
    182c:	30 e0       	ldi	r19, 0x00	; 0
    182e:	a9 01       	movw	r20, r18
    1830:	c5 01       	movw	r24, r10
    1832:	b4 01       	movw	r22, r8
    1834:	0e 94 73 07 	call	0xee6	; 0xee6 <__cmpsf2>
    1838:	81 11       	cpse	r24, r1
    183a:	06 c0       	rjmp	.+12     	; 0x1848 <strtod+0x27a>
    183c:	82 e2       	ldi	r24, 0x22	; 34
    183e:	90 e0       	ldi	r25, 0x00	; 0
    1840:	90 93 ed 01 	sts	0x01ED, r25	; 0x8001ed <errno+0x1>
    1844:	80 93 ec 01 	sts	0x01EC, r24	; 0x8001ec <errno>
    1848:	c5 01       	movw	r24, r10
    184a:	b4 01       	movw	r22, r8
    184c:	09 c0       	rjmp	.+18     	; 0x1860 <strtod+0x292>
    184e:	60 e0       	ldi	r22, 0x00	; 0
    1850:	70 e0       	ldi	r23, 0x00	; 0
    1852:	80 e8       	ldi	r24, 0x80	; 128
    1854:	9f ef       	ldi	r25, 0xFF	; 255
    1856:	04 c0       	rjmp	.+8      	; 0x1860 <strtod+0x292>
    1858:	60 e0       	ldi	r22, 0x00	; 0
    185a:	70 e0       	ldi	r23, 0x00	; 0
    185c:	80 ec       	ldi	r24, 0xC0	; 192
    185e:	9f e7       	ldi	r25, 0x7F	; 127
    1860:	cd b7       	in	r28, 0x3d	; 61
    1862:	de b7       	in	r29, 0x3e	; 62
    1864:	ec e0       	ldi	r30, 0x0C	; 12
    1866:	0c 94 6e 0d 	jmp	0x1adc	; 0x1adc <__epilogue_restores__+0xc>

0000186a <__ftoa_engine>:
    186a:	28 30       	cpi	r18, 0x08	; 8
    186c:	08 f0       	brcs	.+2      	; 0x1870 <__ftoa_engine+0x6>
    186e:	27 e0       	ldi	r18, 0x07	; 7
    1870:	33 27       	eor	r19, r19
    1872:	da 01       	movw	r26, r20
    1874:	99 0f       	add	r25, r25
    1876:	31 1d       	adc	r19, r1
    1878:	87 fd       	sbrc	r24, 7
    187a:	91 60       	ori	r25, 0x01	; 1
    187c:	00 96       	adiw	r24, 0x00	; 0
    187e:	61 05       	cpc	r22, r1
    1880:	71 05       	cpc	r23, r1
    1882:	39 f4       	brne	.+14     	; 0x1892 <__ftoa_engine+0x28>
    1884:	32 60       	ori	r19, 0x02	; 2
    1886:	2e 5f       	subi	r18, 0xFE	; 254
    1888:	3d 93       	st	X+, r19
    188a:	30 e3       	ldi	r19, 0x30	; 48
    188c:	2a 95       	dec	r18
    188e:	e1 f7       	brne	.-8      	; 0x1888 <__ftoa_engine+0x1e>
    1890:	08 95       	ret
    1892:	9f 3f       	cpi	r25, 0xFF	; 255
    1894:	30 f0       	brcs	.+12     	; 0x18a2 <__ftoa_engine+0x38>
    1896:	80 38       	cpi	r24, 0x80	; 128
    1898:	71 05       	cpc	r23, r1
    189a:	61 05       	cpc	r22, r1
    189c:	09 f0       	breq	.+2      	; 0x18a0 <__ftoa_engine+0x36>
    189e:	3c 5f       	subi	r19, 0xFC	; 252
    18a0:	3c 5f       	subi	r19, 0xFC	; 252
    18a2:	3d 93       	st	X+, r19
    18a4:	91 30       	cpi	r25, 0x01	; 1
    18a6:	08 f0       	brcs	.+2      	; 0x18aa <__ftoa_engine+0x40>
    18a8:	80 68       	ori	r24, 0x80	; 128
    18aa:	91 1d       	adc	r25, r1
    18ac:	df 93       	push	r29
    18ae:	cf 93       	push	r28
    18b0:	1f 93       	push	r17
    18b2:	0f 93       	push	r16
    18b4:	ff 92       	push	r15
    18b6:	ef 92       	push	r14
    18b8:	19 2f       	mov	r17, r25
    18ba:	98 7f       	andi	r25, 0xF8	; 248
    18bc:	96 95       	lsr	r25
    18be:	e9 2f       	mov	r30, r25
    18c0:	96 95       	lsr	r25
    18c2:	96 95       	lsr	r25
    18c4:	e9 0f       	add	r30, r25
    18c6:	ff 27       	eor	r31, r31
    18c8:	e7 51       	subi	r30, 0x17	; 23
    18ca:	ff 4f       	sbci	r31, 0xFF	; 255
    18cc:	99 27       	eor	r25, r25
    18ce:	33 27       	eor	r19, r19
    18d0:	ee 24       	eor	r14, r14
    18d2:	ff 24       	eor	r15, r15
    18d4:	a7 01       	movw	r20, r14
    18d6:	e7 01       	movw	r28, r14
    18d8:	05 90       	lpm	r0, Z+
    18da:	08 94       	sec
    18dc:	07 94       	ror	r0
    18de:	28 f4       	brcc	.+10     	; 0x18ea <__ftoa_engine+0x80>
    18e0:	36 0f       	add	r19, r22
    18e2:	e7 1e       	adc	r14, r23
    18e4:	f8 1e       	adc	r15, r24
    18e6:	49 1f       	adc	r20, r25
    18e8:	51 1d       	adc	r21, r1
    18ea:	66 0f       	add	r22, r22
    18ec:	77 1f       	adc	r23, r23
    18ee:	88 1f       	adc	r24, r24
    18f0:	99 1f       	adc	r25, r25
    18f2:	06 94       	lsr	r0
    18f4:	a1 f7       	brne	.-24     	; 0x18de <__ftoa_engine+0x74>
    18f6:	05 90       	lpm	r0, Z+
    18f8:	07 94       	ror	r0
    18fa:	28 f4       	brcc	.+10     	; 0x1906 <__ftoa_engine+0x9c>
    18fc:	e7 0e       	add	r14, r23
    18fe:	f8 1e       	adc	r15, r24
    1900:	49 1f       	adc	r20, r25
    1902:	56 1f       	adc	r21, r22
    1904:	c1 1d       	adc	r28, r1
    1906:	77 0f       	add	r23, r23
    1908:	88 1f       	adc	r24, r24
    190a:	99 1f       	adc	r25, r25
    190c:	66 1f       	adc	r22, r22
    190e:	06 94       	lsr	r0
    1910:	a1 f7       	brne	.-24     	; 0x18fa <__ftoa_engine+0x90>
    1912:	05 90       	lpm	r0, Z+
    1914:	07 94       	ror	r0
    1916:	28 f4       	brcc	.+10     	; 0x1922 <__ftoa_engine+0xb8>
    1918:	f8 0e       	add	r15, r24
    191a:	49 1f       	adc	r20, r25
    191c:	56 1f       	adc	r21, r22
    191e:	c7 1f       	adc	r28, r23
    1920:	d1 1d       	adc	r29, r1
    1922:	88 0f       	add	r24, r24
    1924:	99 1f       	adc	r25, r25
    1926:	66 1f       	adc	r22, r22
    1928:	77 1f       	adc	r23, r23
    192a:	06 94       	lsr	r0
    192c:	a1 f7       	brne	.-24     	; 0x1916 <__ftoa_engine+0xac>
    192e:	05 90       	lpm	r0, Z+
    1930:	07 94       	ror	r0
    1932:	20 f4       	brcc	.+8      	; 0x193c <__ftoa_engine+0xd2>
    1934:	49 0f       	add	r20, r25
    1936:	56 1f       	adc	r21, r22
    1938:	c7 1f       	adc	r28, r23
    193a:	d8 1f       	adc	r29, r24
    193c:	99 0f       	add	r25, r25
    193e:	66 1f       	adc	r22, r22
    1940:	77 1f       	adc	r23, r23
    1942:	88 1f       	adc	r24, r24
    1944:	06 94       	lsr	r0
    1946:	a9 f7       	brne	.-22     	; 0x1932 <__ftoa_engine+0xc8>
    1948:	84 91       	lpm	r24, Z
    194a:	10 95       	com	r17
    194c:	17 70       	andi	r17, 0x07	; 7
    194e:	41 f0       	breq	.+16     	; 0x1960 <__ftoa_engine+0xf6>
    1950:	d6 95       	lsr	r29
    1952:	c7 95       	ror	r28
    1954:	57 95       	ror	r21
    1956:	47 95       	ror	r20
    1958:	f7 94       	ror	r15
    195a:	e7 94       	ror	r14
    195c:	1a 95       	dec	r17
    195e:	c1 f7       	brne	.-16     	; 0x1950 <__ftoa_engine+0xe6>
    1960:	ef e8       	ldi	r30, 0x8F	; 143
    1962:	f0 e0       	ldi	r31, 0x00	; 0
    1964:	68 94       	set
    1966:	15 90       	lpm	r1, Z+
    1968:	15 91       	lpm	r17, Z+
    196a:	35 91       	lpm	r19, Z+
    196c:	65 91       	lpm	r22, Z+
    196e:	95 91       	lpm	r25, Z+
    1970:	05 90       	lpm	r0, Z+
    1972:	7f e2       	ldi	r23, 0x2F	; 47
    1974:	73 95       	inc	r23
    1976:	e1 18       	sub	r14, r1
    1978:	f1 0a       	sbc	r15, r17
    197a:	43 0b       	sbc	r20, r19
    197c:	56 0b       	sbc	r21, r22
    197e:	c9 0b       	sbc	r28, r25
    1980:	d0 09       	sbc	r29, r0
    1982:	c0 f7       	brcc	.-16     	; 0x1974 <__ftoa_engine+0x10a>
    1984:	e1 0c       	add	r14, r1
    1986:	f1 1e       	adc	r15, r17
    1988:	43 1f       	adc	r20, r19
    198a:	56 1f       	adc	r21, r22
    198c:	c9 1f       	adc	r28, r25
    198e:	d0 1d       	adc	r29, r0
    1990:	7e f4       	brtc	.+30     	; 0x19b0 <__ftoa_engine+0x146>
    1992:	70 33       	cpi	r23, 0x30	; 48
    1994:	11 f4       	brne	.+4      	; 0x199a <__ftoa_engine+0x130>
    1996:	8a 95       	dec	r24
    1998:	e6 cf       	rjmp	.-52     	; 0x1966 <__ftoa_engine+0xfc>
    199a:	e8 94       	clt
    199c:	01 50       	subi	r16, 0x01	; 1
    199e:	30 f0       	brcs	.+12     	; 0x19ac <__ftoa_engine+0x142>
    19a0:	08 0f       	add	r16, r24
    19a2:	0a f4       	brpl	.+2      	; 0x19a6 <__ftoa_engine+0x13c>
    19a4:	00 27       	eor	r16, r16
    19a6:	02 17       	cp	r16, r18
    19a8:	08 f4       	brcc	.+2      	; 0x19ac <__ftoa_engine+0x142>
    19aa:	20 2f       	mov	r18, r16
    19ac:	23 95       	inc	r18
    19ae:	02 2f       	mov	r16, r18
    19b0:	7a 33       	cpi	r23, 0x3A	; 58
    19b2:	28 f0       	brcs	.+10     	; 0x19be <__ftoa_engine+0x154>
    19b4:	79 e3       	ldi	r23, 0x39	; 57
    19b6:	7d 93       	st	X+, r23
    19b8:	2a 95       	dec	r18
    19ba:	e9 f7       	brne	.-6      	; 0x19b6 <__ftoa_engine+0x14c>
    19bc:	10 c0       	rjmp	.+32     	; 0x19de <__ftoa_engine+0x174>
    19be:	7d 93       	st	X+, r23
    19c0:	2a 95       	dec	r18
    19c2:	89 f6       	brne	.-94     	; 0x1966 <__ftoa_engine+0xfc>
    19c4:	06 94       	lsr	r0
    19c6:	97 95       	ror	r25
    19c8:	67 95       	ror	r22
    19ca:	37 95       	ror	r19
    19cc:	17 95       	ror	r17
    19ce:	17 94       	ror	r1
    19d0:	e1 18       	sub	r14, r1
    19d2:	f1 0a       	sbc	r15, r17
    19d4:	43 0b       	sbc	r20, r19
    19d6:	56 0b       	sbc	r21, r22
    19d8:	c9 0b       	sbc	r28, r25
    19da:	d0 09       	sbc	r29, r0
    19dc:	98 f0       	brcs	.+38     	; 0x1a04 <__ftoa_engine+0x19a>
    19de:	23 95       	inc	r18
    19e0:	7e 91       	ld	r23, -X
    19e2:	73 95       	inc	r23
    19e4:	7a 33       	cpi	r23, 0x3A	; 58
    19e6:	08 f0       	brcs	.+2      	; 0x19ea <__ftoa_engine+0x180>
    19e8:	70 e3       	ldi	r23, 0x30	; 48
    19ea:	7c 93       	st	X, r23
    19ec:	20 13       	cpse	r18, r16
    19ee:	b8 f7       	brcc	.-18     	; 0x19de <__ftoa_engine+0x174>
    19f0:	7e 91       	ld	r23, -X
    19f2:	70 61       	ori	r23, 0x10	; 16
    19f4:	7d 93       	st	X+, r23
    19f6:	30 f0       	brcs	.+12     	; 0x1a04 <__ftoa_engine+0x19a>
    19f8:	83 95       	inc	r24
    19fa:	71 e3       	ldi	r23, 0x31	; 49
    19fc:	7d 93       	st	X+, r23
    19fe:	70 e3       	ldi	r23, 0x30	; 48
    1a00:	2a 95       	dec	r18
    1a02:	e1 f7       	brne	.-8      	; 0x19fc <__ftoa_engine+0x192>
    1a04:	11 24       	eor	r1, r1
    1a06:	ef 90       	pop	r14
    1a08:	ff 90       	pop	r15
    1a0a:	0f 91       	pop	r16
    1a0c:	1f 91       	pop	r17
    1a0e:	cf 91       	pop	r28
    1a10:	df 91       	pop	r29
    1a12:	99 27       	eor	r25, r25
    1a14:	87 fd       	sbrc	r24, 7
    1a16:	90 95       	com	r25
    1a18:	08 95       	ret

00001a1a <isspace>:
    1a1a:	91 11       	cpse	r25, r1
    1a1c:	0c 94 3e 0d 	jmp	0x1a7c	; 0x1a7c <__ctype_isfalse>
    1a20:	80 32       	cpi	r24, 0x20	; 32
    1a22:	19 f0       	breq	.+6      	; 0x1a2a <isspace+0x10>
    1a24:	89 50       	subi	r24, 0x09	; 9
    1a26:	85 50       	subi	r24, 0x05	; 5
    1a28:	c8 f7       	brcc	.-14     	; 0x1a1c <isspace+0x2>
    1a2a:	08 95       	ret

00001a2c <strncasecmp_P>:
    1a2c:	fb 01       	movw	r30, r22
    1a2e:	dc 01       	movw	r26, r24
    1a30:	41 50       	subi	r20, 0x01	; 1
    1a32:	50 40       	sbci	r21, 0x00	; 0
    1a34:	88 f0       	brcs	.+34     	; 0x1a58 <strncasecmp_P+0x2c>
    1a36:	8d 91       	ld	r24, X+
    1a38:	81 34       	cpi	r24, 0x41	; 65
    1a3a:	1c f0       	brlt	.+6      	; 0x1a42 <strncasecmp_P+0x16>
    1a3c:	8b 35       	cpi	r24, 0x5B	; 91
    1a3e:	0c f4       	brge	.+2      	; 0x1a42 <strncasecmp_P+0x16>
    1a40:	80 5e       	subi	r24, 0xE0	; 224
    1a42:	65 91       	lpm	r22, Z+
    1a44:	61 34       	cpi	r22, 0x41	; 65
    1a46:	1c f0       	brlt	.+6      	; 0x1a4e <strncasecmp_P+0x22>
    1a48:	6b 35       	cpi	r22, 0x5B	; 91
    1a4a:	0c f4       	brge	.+2      	; 0x1a4e <strncasecmp_P+0x22>
    1a4c:	60 5e       	subi	r22, 0xE0	; 224
    1a4e:	86 1b       	sub	r24, r22
    1a50:	61 11       	cpse	r22, r1
    1a52:	71 f3       	breq	.-36     	; 0x1a30 <strncasecmp_P+0x4>
    1a54:	99 0b       	sbc	r25, r25
    1a56:	08 95       	ret
    1a58:	88 1b       	sub	r24, r24
    1a5a:	fc cf       	rjmp	.-8      	; 0x1a54 <strncasecmp_P+0x28>

00001a5c <strrev>:
    1a5c:	dc 01       	movw	r26, r24
    1a5e:	fc 01       	movw	r30, r24
    1a60:	67 2f       	mov	r22, r23
    1a62:	71 91       	ld	r23, Z+
    1a64:	77 23       	and	r23, r23
    1a66:	e1 f7       	brne	.-8      	; 0x1a60 <strrev+0x4>
    1a68:	32 97       	sbiw	r30, 0x02	; 2
    1a6a:	04 c0       	rjmp	.+8      	; 0x1a74 <strrev+0x18>
    1a6c:	7c 91       	ld	r23, X
    1a6e:	6d 93       	st	X+, r22
    1a70:	70 83       	st	Z, r23
    1a72:	62 91       	ld	r22, -Z
    1a74:	ae 17       	cp	r26, r30
    1a76:	bf 07       	cpc	r27, r31
    1a78:	c8 f3       	brcs	.-14     	; 0x1a6c <strrev+0x10>
    1a7a:	08 95       	ret

00001a7c <__ctype_isfalse>:
    1a7c:	99 27       	eor	r25, r25
    1a7e:	88 27       	eor	r24, r24

00001a80 <__ctype_istrue>:
    1a80:	08 95       	ret

00001a82 <__muluhisi3>:
    1a82:	0e 94 83 0d 	call	0x1b06	; 0x1b06 <__umulhisi3>
    1a86:	a5 9f       	mul	r26, r21
    1a88:	90 0d       	add	r25, r0
    1a8a:	b4 9f       	mul	r27, r20
    1a8c:	90 0d       	add	r25, r0
    1a8e:	a4 9f       	mul	r26, r20
    1a90:	80 0d       	add	r24, r0
    1a92:	91 1d       	adc	r25, r1
    1a94:	11 24       	eor	r1, r1
    1a96:	08 95       	ret

00001a98 <__prologue_saves__>:
    1a98:	2f 92       	push	r2
    1a9a:	3f 92       	push	r3
    1a9c:	4f 92       	push	r4
    1a9e:	5f 92       	push	r5
    1aa0:	6f 92       	push	r6
    1aa2:	7f 92       	push	r7
    1aa4:	8f 92       	push	r8
    1aa6:	9f 92       	push	r9
    1aa8:	af 92       	push	r10
    1aaa:	bf 92       	push	r11
    1aac:	cf 92       	push	r12
    1aae:	df 92       	push	r13
    1ab0:	ef 92       	push	r14
    1ab2:	ff 92       	push	r15
    1ab4:	0f 93       	push	r16
    1ab6:	1f 93       	push	r17
    1ab8:	cf 93       	push	r28
    1aba:	df 93       	push	r29
    1abc:	cd b7       	in	r28, 0x3d	; 61
    1abe:	de b7       	in	r29, 0x3e	; 62
    1ac0:	ca 1b       	sub	r28, r26
    1ac2:	db 0b       	sbc	r29, r27
    1ac4:	0f b6       	in	r0, 0x3f	; 63
    1ac6:	f8 94       	cli
    1ac8:	de bf       	out	0x3e, r29	; 62
    1aca:	0f be       	out	0x3f, r0	; 63
    1acc:	cd bf       	out	0x3d, r28	; 61
    1ace:	09 94       	ijmp

00001ad0 <__epilogue_restores__>:
    1ad0:	2a 88       	ldd	r2, Y+18	; 0x12
    1ad2:	39 88       	ldd	r3, Y+17	; 0x11
    1ad4:	48 88       	ldd	r4, Y+16	; 0x10
    1ad6:	5f 84       	ldd	r5, Y+15	; 0x0f
    1ad8:	6e 84       	ldd	r6, Y+14	; 0x0e
    1ada:	7d 84       	ldd	r7, Y+13	; 0x0d
    1adc:	8c 84       	ldd	r8, Y+12	; 0x0c
    1ade:	9b 84       	ldd	r9, Y+11	; 0x0b
    1ae0:	aa 84       	ldd	r10, Y+10	; 0x0a
    1ae2:	b9 84       	ldd	r11, Y+9	; 0x09
    1ae4:	c8 84       	ldd	r12, Y+8	; 0x08
    1ae6:	df 80       	ldd	r13, Y+7	; 0x07
    1ae8:	ee 80       	ldd	r14, Y+6	; 0x06
    1aea:	fd 80       	ldd	r15, Y+5	; 0x05
    1aec:	0c 81       	ldd	r16, Y+4	; 0x04
    1aee:	1b 81       	ldd	r17, Y+3	; 0x03
    1af0:	aa 81       	ldd	r26, Y+2	; 0x02
    1af2:	b9 81       	ldd	r27, Y+1	; 0x01
    1af4:	ce 0f       	add	r28, r30
    1af6:	d1 1d       	adc	r29, r1
    1af8:	0f b6       	in	r0, 0x3f	; 63
    1afa:	f8 94       	cli
    1afc:	de bf       	out	0x3e, r29	; 62
    1afe:	0f be       	out	0x3f, r0	; 63
    1b00:	cd bf       	out	0x3d, r28	; 61
    1b02:	ed 01       	movw	r28, r26
    1b04:	08 95       	ret

00001b06 <__umulhisi3>:
    1b06:	a2 9f       	mul	r26, r18
    1b08:	b0 01       	movw	r22, r0
    1b0a:	b3 9f       	mul	r27, r19
    1b0c:	c0 01       	movw	r24, r0
    1b0e:	a3 9f       	mul	r26, r19
    1b10:	70 0d       	add	r23, r0
    1b12:	81 1d       	adc	r24, r1
    1b14:	11 24       	eor	r1, r1
    1b16:	91 1d       	adc	r25, r1
    1b18:	b2 9f       	mul	r27, r18
    1b1a:	70 0d       	add	r23, r0
    1b1c:	81 1d       	adc	r24, r1
    1b1e:	11 24       	eor	r1, r1
    1b20:	91 1d       	adc	r25, r1
    1b22:	08 95       	ret

00001b24 <_exit>:
    1b24:	f8 94       	cli

00001b26 <__stop_program>:
    1b26:	ff cf       	rjmp	.-2      	; 0x1b26 <__stop_program>
