
FullCode.elf:     file format elf32-avr

Sections:
Idx Name          Size      VMA       LMA       File off  Algn
  0 .text         00001ae4  00000000  00000000  00000094  2**1
                  CONTENTS, ALLOC, LOAD, READONLY, CODE
  1 .data         00000074  00800060  00001ae4  00001b78  2**0
                  CONTENTS, ALLOC, LOAD, DATA
  2 .bss          0000010a  008000d4  008000d4  00001bec  2**0
                  ALLOC
  3 .comment      0000005c  00000000  00000000  00001bec  2**0
                  CONTENTS, READONLY
  4 .note.gnu.avr.deviceinfo 0000003c  00000000  00000000  00001c48  2**2
                  CONTENTS, READONLY
  5 .debug_aranges 00000198  00000000  00000000  00001c84  2**0
                  CONTENTS, READONLY, DEBUGGING
  6 .debug_info   00001ee2  00000000  00000000  00001e1c  2**0
                  CONTENTS, READONLY, DEBUGGING
  7 .debug_abbrev 00000996  00000000  00000000  00003cfe  2**0
                  CONTENTS, READONLY, DEBUGGING
  8 .debug_line   0000105e  00000000  00000000  00004694  2**0
                  CONTENTS, READONLY, DEBUGGING
  9 .debug_frame  00000420  00000000  00000000  000056f4  2**2
                  CONTENTS, READONLY, DEBUGGING
 10 .debug_str    0000075d  00000000  00000000  00005b14  2**0
                  CONTENTS, READONLY, DEBUGGING
 11 .debug_loc    000013fa  00000000  00000000  00006271  2**0
                  CONTENTS, READONLY, DEBUGGING
 12 .debug_ranges 00000168  00000000  00000000  0000766b  2**0
                  CONTENTS, READONLY, DEBUGGING

Disassembly of section .text:

00000000 <__vectors>:
       0:	0c 94 c5 00 	jmp	0x18a	; 0x18a <__ctors_end>
       4:	0c 94 e2 00 	jmp	0x1c4	; 0x1c4 <__bad_interrupt>
       8:	0c 94 e2 00 	jmp	0x1c4	; 0x1c4 <__bad_interrupt>
       c:	0c 94 e2 00 	jmp	0x1c4	; 0x1c4 <__bad_interrupt>
      10:	0c 94 e2 00 	jmp	0x1c4	; 0x1c4 <__bad_interrupt>
      14:	0c 94 e2 00 	jmp	0x1c4	; 0x1c4 <__bad_interrupt>
      18:	0c 94 e2 00 	jmp	0x1c4	; 0x1c4 <__bad_interrupt>
      1c:	0c 94 e2 00 	jmp	0x1c4	; 0x1c4 <__bad_interrupt>
      20:	0c 94 e2 00 	jmp	0x1c4	; 0x1c4 <__bad_interrupt>
      24:	0c 94 e2 00 	jmp	0x1c4	; 0x1c4 <__bad_interrupt>
      28:	0c 94 e2 00 	jmp	0x1c4	; 0x1c4 <__bad_interrupt>
      2c:	0c 94 e2 00 	jmp	0x1c4	; 0x1c4 <__bad_interrupt>
      30:	0c 94 e2 00 	jmp	0x1c4	; 0x1c4 <__bad_interrupt>
      34:	0c 94 9d 02 	jmp	0x53a	; 0x53a <__vector_13>
      38:	0c 94 e2 00 	jmp	0x1c4	; 0x1c4 <__bad_interrupt>
      3c:	0c 94 e2 00 	jmp	0x1c4	; 0x1c4 <__bad_interrupt>
      40:	0c 94 e2 00 	jmp	0x1c4	; 0x1c4 <__bad_interrupt>
      44:	0c 94 e2 00 	jmp	0x1c4	; 0x1c4 <__bad_interrupt>
      48:	0c 94 e2 00 	jmp	0x1c4	; 0x1c4 <__bad_interrupt>
      4c:	0c 94 e2 00 	jmp	0x1c4	; 0x1c4 <__bad_interrupt>
      50:	0c 94 e2 00 	jmp	0x1c4	; 0x1c4 <__bad_interrupt>

00000054 <__trampolines_end>:
      54:	4e 41       	sbci	r20, 0x1E	; 30
      56:	4e 49       	Address 0x00000056 is out of bounds.
.word	0xffff	; ????

00000057 <pstr_inity>:
      57:	49 4e 49 54 59                                      INITY

0000005c <pstr_inf>:
      5c:	49 4e 46                                            INF

0000005f <pwr_m10>:
      5f:	cd cc cc 3d 0a d7 23 3c 17 b7 d1 38 77 cc 2b 32     ...=..#<...8w.+2
      6f:	95 95 e6 24 1f b1 4f 0a                             ...$..O.

00000077 <pwr_p10>:
      77:	00 00 20 41 00 00 c8 42 00 40 1c 46 20 bc be 4c     .. A...B.@.F ..L
      87:	ca 1b 0e 5a ae c5 9d 74 00 40 7a 10 f3 5a 00 a0     ...Z...t.@z..Z..
      97:	72 4e 18 09 00 10 a5 d4 e8 00 00 e8 76 48 17 00     rN..........vH..
      a7:	00 e4 0b 54 02 00 00 ca 9a 3b 00 00 00 e1 f5 05     ...T.....;......
      b7:	00 00 80 96 98 00 00 00 40 42 0f 00 00 00 a0 86     ........@B......
      c7:	01 00 00 00 10 27 00 00 00 00 e8 03 00 00 00 00     .....'..........
      d7:	64 00 00 00 00 00 0a 00 00 00 00 00 01 00 00 00     d...............
      e7:	00 00 2c 76 d8 88 dc 67 4f 08 23 df c1 df ae 59     ..,v...gO.#....Y
      f7:	e1 b1 b7 96 e5 e3 e4 53 c6 3a e6 51 99 76 96 e8     .......S.:.Q.v..
     107:	e6 c2 84 26 eb 89 8c 9b 62 ed 40 7c 6f fc ef bc     ...&....b.@|o...
     117:	9c 9f 40 f2 ba a5 6f a5 f4 90 05 5a 2a f7 5c 93     ..@...o....Z*.\.
     127:	6b 6c f9 67 6d c1 1b fc e0 e4 0d 47 fe f5 20 e6     kl.gm......G.. .
     137:	b5 00 d0 ed 90 2e 03 00 94 35 77 05 00 80 84 1e     .........5w.....
     147:	08 00 00 20 4e 0a 00 00 00 c8 0c 33 33 33 33 0f     ... N......3333.
     157:	98 6e 12 83 11 41 ef 8d 21 14 89 3b e6 55 16 cf     .n...A..!..;.U..
     167:	fe e6 db 18 d1 84 4b 38 1b f7 7c 1d 90 1d a4 bb     ......K8..|.....
     177:	e4 24 20 32 84 72 5e 22 81 00 c9 f1 24 ec a1 e5     .$ 2.r^"....$...
     187:	3d 27 00                                            ='.

0000018a <__ctors_end>:
     18a:	11 24       	eor	r1, r1
     18c:	1f be       	out	0x3f, r1	; 63
     18e:	cf e5       	ldi	r28, 0x5F	; 95
     190:	d8 e0       	ldi	r29, 0x08	; 8
     192:	de bf       	out	0x3e, r29	; 62
     194:	cd bf       	out	0x3d, r28	; 61

00000196 <__do_copy_data>:
     196:	10 e0       	ldi	r17, 0x00	; 0
     198:	a0 e6       	ldi	r26, 0x60	; 96
     19a:	b0 e0       	ldi	r27, 0x00	; 0
     19c:	e4 ee       	ldi	r30, 0xE4	; 228
     19e:	fa e1       	ldi	r31, 0x1A	; 26
     1a0:	02 c0       	rjmp	.+4      	; 0x1a6 <__do_copy_data+0x10>
     1a2:	05 90       	lpm	r0, Z+
     1a4:	0d 92       	st	X+, r0
     1a6:	a4 3d       	cpi	r26, 0xD4	; 212
     1a8:	b1 07       	cpc	r27, r17
     1aa:	d9 f7       	brne	.-10     	; 0x1a2 <__do_copy_data+0xc>

000001ac <__do_clear_bss>:
     1ac:	21 e0       	ldi	r18, 0x01	; 1
     1ae:	a4 ed       	ldi	r26, 0xD4	; 212
     1b0:	b0 e0       	ldi	r27, 0x00	; 0
     1b2:	01 c0       	rjmp	.+2      	; 0x1b6 <.do_clear_bss_start>

000001b4 <.do_clear_bss_loop>:
     1b4:	1d 92       	st	X+, r1

000001b6 <.do_clear_bss_start>:
     1b6:	ae 3d       	cpi	r26, 0xDE	; 222
     1b8:	b2 07       	cpc	r27, r18
     1ba:	e1 f7       	brne	.-8      	; 0x1b4 <.do_clear_bss_loop>
     1bc:	0e 94 c4 05 	call	0xb88	; 0xb88 <main>
     1c0:	0c 94 70 0d 	jmp	0x1ae0	; 0x1ae0 <_exit>

000001c4 <__bad_interrupt>:
     1c4:	0c 94 00 00 	jmp	0	; 0x0 <__vectors>

000001c8 <I2C_Init>:
	return 1;												/* If yes then return 1 to indicate ack received i.e. ready to accept data byte */
	if (status == 0x20)										/* Check weather SLA+W transmitted & nack received or not? */
	return 2;												/* If yes then return 2 to indicate nack received i.e. device is busy */
	else
	return 3;												/* Else return 3 to indicate SLA+W failed */
}
     1c8:	11 b8       	out	0x01, r1	; 1
     1ca:	80 e2       	ldi	r24, 0x20	; 32
     1cc:	80 b9       	out	0x00, r24	; 0
     1ce:	08 95       	ret

000001d0 <I2C_Repeated_Start>:

uint8_t I2C_Repeated_Start(char slave_read_address)			/* I2C repeated start function */
{
	uint8_t status;											/* Declare variable */
	TWCR = (1<<TWSTA)|(1<<TWEN)|(1<<TWINT);					/* Enable TWI, generate start condition and clear interrupt flag */
     1d0:	94 ea       	ldi	r25, 0xA4	; 164
     1d2:	96 bf       	out	0x36, r25	; 54
	while (!(TWCR & (1<<TWINT)));							/* Wait until TWI finish its current job (start condition) */
     1d4:	06 b6       	in	r0, 0x36	; 54
     1d6:	07 fe       	sbrs	r0, 7
     1d8:	fd cf       	rjmp	.-6      	; 0x1d4 <I2C_Repeated_Start+0x4>
	status = TWSR & 0xF8;									/* Read TWI status register with masking lower three bits */
     1da:	91 b1       	in	r25, 0x01	; 1
     1dc:	98 7f       	andi	r25, 0xF8	; 248
	if (status != 0x10)										/* Check weather repeated start condition transmitted successfully or not? */
     1de:	90 31       	cpi	r25, 0x10	; 16
     1e0:	71 f4       	brne	.+28     	; 0x1fe <I2C_Repeated_Start+0x2e>
	return 0;												/* If no then return 0 to indicate repeated start condition fail */
	TWDR = slave_read_address;								/* If yes then write SLA+R in TWI data register */
     1e2:	83 b9       	out	0x03, r24	; 3
	TWCR = (1<<TWEN)|(1<<TWINT);							/* Enable TWI and clear interrupt flag */
     1e4:	84 e8       	ldi	r24, 0x84	; 132
     1e6:	86 bf       	out	0x36, r24	; 54
	while (!(TWCR & (1<<TWINT)));							/* Wait until TWI finish its current job (Write operation) */
     1e8:	06 b6       	in	r0, 0x36	; 54
     1ea:	07 fe       	sbrs	r0, 7
     1ec:	fd cf       	rjmp	.-6      	; 0x1e8 <I2C_Repeated_Start+0x18>
	status = TWSR & 0xF8;									/* Read TWI status register with masking lower three bits */
     1ee:	81 b1       	in	r24, 0x01	; 1
     1f0:	88 7f       	andi	r24, 0xF8	; 248
	if (status == 0x40)										/* Check weather SLA+R transmitted & ack received or not? */
     1f2:	80 34       	cpi	r24, 0x40	; 64
     1f4:	31 f0       	breq	.+12     	; 0x202 <I2C_Repeated_Start+0x32>
	return 1;												/* If yes then return 1 to indicate ack received */ 
	if (status == 0x20)										/* Check weather SLA+R transmitted & nack received or not? */
     1f6:	80 32       	cpi	r24, 0x20	; 32
     1f8:	31 f4       	brne	.+12     	; 0x206 <I2C_Repeated_Start+0x36>
	return 2;												/* If yes then return 2 to indicate nack received i.e. device is busy */
     1fa:	82 e0       	ldi	r24, 0x02	; 2
     1fc:	08 95       	ret
	uint8_t status;											/* Declare variable */
	TWCR = (1<<TWSTA)|(1<<TWEN)|(1<<TWINT);					/* Enable TWI, generate start condition and clear interrupt flag */
	while (!(TWCR & (1<<TWINT)));							/* Wait until TWI finish its current job (start condition) */
	status = TWSR & 0xF8;									/* Read TWI status register with masking lower three bits */
	if (status != 0x10)										/* Check weather repeated start condition transmitted successfully or not? */
	return 0;												/* If no then return 0 to indicate repeated start condition fail */
     1fe:	80 e0       	ldi	r24, 0x00	; 0
     200:	08 95       	ret
	TWDR = slave_read_address;								/* If yes then write SLA+R in TWI data register */
	TWCR = (1<<TWEN)|(1<<TWINT);							/* Enable TWI and clear interrupt flag */
	while (!(TWCR & (1<<TWINT)));							/* Wait until TWI finish its current job (Write operation) */
	status = TWSR & 0xF8;									/* Read TWI status register with masking lower three bits */
	if (status == 0x40)										/* Check weather SLA+R transmitted & ack received or not? */
	return 1;												/* If yes then return 1 to indicate ack received */ 
     202:	81 e0       	ldi	r24, 0x01	; 1
     204:	08 95       	ret
	if (status == 0x20)										/* Check weather SLA+R transmitted & nack received or not? */
	return 2;												/* If yes then return 2 to indicate nack received i.e. device is busy */
	else
	return 3;												/* Else return 3 to indicate SLA+W failed */
     206:	83 e0       	ldi	r24, 0x03	; 3
}
     208:	08 95       	ret

0000020a <I2C_Stop>:

void I2C_Stop()												/* I2C stop function */
{
	TWCR=(1<<TWSTO)|(1<<TWINT)|(1<<TWEN);					/* Enable TWI, generate stop condition and clear interrupt flag */
     20a:	84 e9       	ldi	r24, 0x94	; 148
     20c:	86 bf       	out	0x36, r24	; 54
	while(TWCR & (1<<TWSTO));								/* Wait until stop condition execution */ 
     20e:	06 b6       	in	r0, 0x36	; 54
     210:	04 fc       	sbrc	r0, 4
     212:	fd cf       	rjmp	.-6      	; 0x20e <I2C_Stop+0x4>
}
     214:	08 95       	ret

00000216 <I2C_Start_Wait>:

void I2C_Start_Wait(char slave_write_address)				/* I2C start wait function */
{
     216:	cf 93       	push	r28
     218:	c8 2f       	mov	r28, r24
	uint8_t status;											/* Declare variable */
	while (1)
	{
		TWCR = (1<<TWSTA)|(1<<TWEN)|(1<<TWINT);				/* Enable TWI, generate start condition and clear interrupt flag */
     21a:	84 ea       	ldi	r24, 0xA4	; 164
     21c:	86 bf       	out	0x36, r24	; 54
		while (!(TWCR & (1<<TWINT)));						/* Wait until TWI finish its current job (start condition) */
     21e:	06 b6       	in	r0, 0x36	; 54
     220:	07 fe       	sbrs	r0, 7
     222:	fd cf       	rjmp	.-6      	; 0x21e <I2C_Start_Wait+0x8>
		status = TWSR & 0xF8;								/* Read TWI status register with masking lower three bits */
     224:	81 b1       	in	r24, 0x01	; 1
     226:	88 7f       	andi	r24, 0xF8	; 248
		if (status != 0x08)									/* Check weather start condition transmitted successfully or not? */
     228:	88 30       	cpi	r24, 0x08	; 8
     22a:	b9 f7       	brne	.-18     	; 0x21a <I2C_Start_Wait+0x4>
		continue;											/* If no then continue with start loop again */
		TWDR = slave_write_address;							/* If yes then write SLA+W in TWI data register */
     22c:	c3 b9       	out	0x03, r28	; 3
		TWCR = (1<<TWEN)|(1<<TWINT);						/* Enable TWI and clear interrupt flag */
     22e:	84 e8       	ldi	r24, 0x84	; 132
     230:	86 bf       	out	0x36, r24	; 54
		while (!(TWCR & (1<<TWINT)));						/* Wait until TWI finish its current job (Write operation) */
     232:	06 b6       	in	r0, 0x36	; 54
     234:	07 fe       	sbrs	r0, 7
     236:	fd cf       	rjmp	.-6      	; 0x232 <I2C_Start_Wait+0x1c>
		status = TWSR & 0xF8;								/* Read TWI status register with masking lower three bits */
     238:	81 b1       	in	r24, 0x01	; 1
     23a:	88 7f       	andi	r24, 0xF8	; 248
		if (status != 0x18 )								/* Check weather SLA+W transmitted & ack received or not? */
     23c:	88 31       	cpi	r24, 0x18	; 24
     23e:	19 f0       	breq	.+6      	; 0x246 <I2C_Start_Wait+0x30>
		{
			I2C_Stop();										/* If not then generate stop condition */
     240:	0e 94 05 01 	call	0x20a	; 0x20a <I2C_Stop>
			continue;										/* continue with start loop again */
     244:	ea cf       	rjmp	.-44     	; 0x21a <I2C_Start_Wait+0x4>
		}
		break;												/* If yes then break loop */
	}
}
     246:	cf 91       	pop	r28
     248:	08 95       	ret

0000024a <I2C_Write>:

uint8_t I2C_Write(char data)								/* I2C write function */
{
	uint8_t status;											/* Declare variable */
	TWDR = data;											/* Copy data in TWI data register */
     24a:	83 b9       	out	0x03, r24	; 3
	TWCR = (1<<TWEN)|(1<<TWINT);							/* Enable TWI and clear interrupt flag */
     24c:	84 e8       	ldi	r24, 0x84	; 132
     24e:	86 bf       	out	0x36, r24	; 54
	while (!(TWCR & (1<<TWINT)));							/* Wait until TWI finish its current job (Write operation) */
     250:	06 b6       	in	r0, 0x36	; 54
     252:	07 fe       	sbrs	r0, 7
     254:	fd cf       	rjmp	.-6      	; 0x250 <I2C_Write+0x6>
	status = TWSR & 0xF8;									/* Read TWI status register with masking lower three bits */
     256:	81 b1       	in	r24, 0x01	; 1
     258:	88 7f       	andi	r24, 0xF8	; 248
	if (status == 0x28)										/* Check weather data transmitted & ack received or not? */
     25a:	88 32       	cpi	r24, 0x28	; 40
     25c:	21 f0       	breq	.+8      	; 0x266 <I2C_Write+0x1c>
	return 0;												/* If yes then return 0 to indicate ack received */
	if (status == 0x30)										/* Check weather data transmitted & nack received or not? */
     25e:	80 33       	cpi	r24, 0x30	; 48
     260:	21 f4       	brne	.+8      	; 0x26a <I2C_Write+0x20>
	return 1;												/* If yes then return 1 to indicate nack received */
     262:	81 e0       	ldi	r24, 0x01	; 1
     264:	08 95       	ret
	TWDR = data;											/* Copy data in TWI data register */
	TWCR = (1<<TWEN)|(1<<TWINT);							/* Enable TWI and clear interrupt flag */
	while (!(TWCR & (1<<TWINT)));							/* Wait until TWI finish its current job (Write operation) */
	status = TWSR & 0xF8;									/* Read TWI status register with masking lower three bits */
	if (status == 0x28)										/* Check weather data transmitted & ack received or not? */
	return 0;												/* If yes then return 0 to indicate ack received */
     266:	80 e0       	ldi	r24, 0x00	; 0
     268:	08 95       	ret
	if (status == 0x30)										/* Check weather data transmitted & nack received or not? */
	return 1;												/* If yes then return 1 to indicate nack received */
	else
	return 2;												/* Else return 2 to indicate data transmission failed */
     26a:	82 e0       	ldi	r24, 0x02	; 2
}
     26c:	08 95       	ret

0000026e <I2C_Read_Ack>:

char I2C_Read_Ack()										/* I2C read ack function */
{
	TWCR=(1<<TWEN)|(1<<TWINT)|(1<<TWEA);					/* Enable TWI, generation of ack and clear interrupt flag */
     26e:	84 ec       	ldi	r24, 0xC4	; 196
     270:	86 bf       	out	0x36, r24	; 54
	while (!(TWCR & (1<<TWINT)));							/* Wait until TWI finish its current job (read operation) */
     272:	06 b6       	in	r0, 0x36	; 54
     274:	07 fe       	sbrs	r0, 7
     276:	fd cf       	rjmp	.-6      	; 0x272 <I2C_Read_Ack+0x4>
	return TWDR;											/* Return received data */
     278:	83 b1       	in	r24, 0x03	; 3
}	
     27a:	08 95       	ret

0000027c <I2C_Read_Nack>:

char I2C_Read_Nack()										/* I2C read nack function */
{
	TWCR=(1<<TWEN)|(1<<TWINT);								/* Enable TWI and clear interrupt flag */
     27c:	84 e8       	ldi	r24, 0x84	; 132
     27e:	86 bf       	out	0x36, r24	; 54
	while (!(TWCR & (1<<TWINT)));							/* Wait until TWI finish its current job (read operation) */
     280:	06 b6       	in	r0, 0x36	; 54
     282:	07 fe       	sbrs	r0, 7
     284:	fd cf       	rjmp	.-6      	; 0x280 <I2C_Read_Nack+0x4>
	return TWDR;											/* Return received data */
     286:	83 b1       	in	r24, 0x03	; 3
}	
     288:	08 95       	ret

0000028a <LCD_Command>:
	portHigh(PORTC,led);
}
void offHazardLight(){
	portLow(PORTC,led);
}
void playRadio(){
     28a:	88 bb       	out	0x18, r24	; 24
     28c:	85 b3       	in	r24, 0x15	; 21
     28e:	8c 7f       	andi	r24, 0xFC	; 252
     290:	85 bb       	out	0x15, r24	; 21
     292:	85 b3       	in	r24, 0x15	; 21
     294:	84 60       	ori	r24, 0x04	; 4
     296:	85 bb       	out	0x15, r24	; 21
     298:	82 e0       	ldi	r24, 0x02	; 2
     29a:	8a 95       	dec	r24
     29c:	f1 f7       	brne	.-4      	; 0x29a <LCD_Command+0x10>
     29e:	00 c0       	rjmp	.+0      	; 0x2a0 <LCD_Command+0x16>
     2a0:	85 b3       	in	r24, 0x15	; 21
     2a2:	8b 7f       	andi	r24, 0xFB	; 251
     2a4:	85 bb       	out	0x15, r24	; 21
     2a6:	8f e9       	ldi	r24, 0x9F	; 159
     2a8:	9f e0       	ldi	r25, 0x0F	; 15
     2aa:	01 97       	sbiw	r24, 0x01	; 1
     2ac:	f1 f7       	brne	.-4      	; 0x2aa <LCD_Command+0x20>
     2ae:	00 c0       	rjmp	.+0      	; 0x2b0 <LCD_Command+0x26>
     2b0:	00 00       	nop
     2b2:	08 95       	ret

000002b4 <LCD_Char>:
     2b4:	88 bb       	out	0x18, r24	; 24
     2b6:	85 b3       	in	r24, 0x15	; 21
     2b8:	8d 7f       	andi	r24, 0xFD	; 253
     2ba:	85 bb       	out	0x15, r24	; 21
     2bc:	85 b3       	in	r24, 0x15	; 21
     2be:	85 60       	ori	r24, 0x05	; 5
     2c0:	85 bb       	out	0x15, r24	; 21
     2c2:	82 e0       	ldi	r24, 0x02	; 2
     2c4:	8a 95       	dec	r24
     2c6:	f1 f7       	brne	.-4      	; 0x2c4 <LCD_Char+0x10>
     2c8:	00 c0       	rjmp	.+0      	; 0x2ca <LCD_Char+0x16>
     2ca:	85 b3       	in	r24, 0x15	; 21
     2cc:	8b 7f       	andi	r24, 0xFB	; 251
     2ce:	85 bb       	out	0x15, r24	; 21
     2d0:	8f ec       	ldi	r24, 0xCF	; 207
     2d2:	97 e0       	ldi	r25, 0x07	; 7
     2d4:	01 97       	sbiw	r24, 0x01	; 1
     2d6:	f1 f7       	brne	.-4      	; 0x2d4 <LCD_Char+0x20>
     2d8:	00 c0       	rjmp	.+0      	; 0x2da <LCD_Char+0x26>
     2da:	00 00       	nop
     2dc:	08 95       	ret

000002de <LCD_Init>:
     2de:	84 b3       	in	r24, 0x14	; 20
     2e0:	87 60       	ori	r24, 0x07	; 7
     2e2:	84 bb       	out	0x14, r24	; 20
     2e4:	8f ef       	ldi	r24, 0xFF	; 255
     2e6:	87 bb       	out	0x17, r24	; 23
     2e8:	8f e9       	ldi	r24, 0x9F	; 159
     2ea:	9c e8       	ldi	r25, 0x8C	; 140
     2ec:	01 97       	sbiw	r24, 0x01	; 1
     2ee:	f1 f7       	brne	.-4      	; 0x2ec <LCD_Init+0xe>
     2f0:	00 c0       	rjmp	.+0      	; 0x2f2 <LCD_Init+0x14>
     2f2:	00 00       	nop
     2f4:	88 e3       	ldi	r24, 0x38	; 56
     2f6:	0e 94 45 01 	call	0x28a	; 0x28a <LCD_Command>
     2fa:	8c e0       	ldi	r24, 0x0C	; 12
     2fc:	0e 94 45 01 	call	0x28a	; 0x28a <LCD_Command>
     300:	86 e0       	ldi	r24, 0x06	; 6
     302:	0e 94 45 01 	call	0x28a	; 0x28a <LCD_Command>
     306:	81 e0       	ldi	r24, 0x01	; 1
     308:	0e 94 45 01 	call	0x28a	; 0x28a <LCD_Command>
     30c:	80 e8       	ldi	r24, 0x80	; 128
     30e:	0e 94 45 01 	call	0x28a	; 0x28a <LCD_Command>
     312:	08 95       	ret

00000314 <LCD_String>:
     314:	0f 93       	push	r16
     316:	1f 93       	push	r17
     318:	cf 93       	push	r28
     31a:	df 93       	push	r29
     31c:	8c 01       	movw	r16, r24
     31e:	c0 e0       	ldi	r28, 0x00	; 0
     320:	d0 e0       	ldi	r29, 0x00	; 0
     322:	03 c0       	rjmp	.+6      	; 0x32a <LCD_String+0x16>
     324:	0e 94 5a 01 	call	0x2b4	; 0x2b4 <LCD_Char>
     328:	21 96       	adiw	r28, 0x01	; 1
     32a:	f8 01       	movw	r30, r16
     32c:	ec 0f       	add	r30, r28
     32e:	fd 1f       	adc	r31, r29
     330:	80 81       	ld	r24, Z
     332:	81 11       	cpse	r24, r1
     334:	f7 cf       	rjmp	.-18     	; 0x324 <LCD_String+0x10>
     336:	df 91       	pop	r29
     338:	cf 91       	pop	r28
     33a:	1f 91       	pop	r17
     33c:	0f 91       	pop	r16
     33e:	08 95       	ret

00000340 <LCD_String_xy>:
     340:	cf 93       	push	r28
     342:	df 93       	push	r29
     344:	ea 01       	movw	r28, r20
     346:	81 30       	cpi	r24, 0x01	; 1
     348:	31 f4       	brne	.+12     	; 0x356 <LCD_String_xy+0x16>
     34a:	86 2f       	mov	r24, r22
     34c:	8f 70       	andi	r24, 0x0F	; 15
     34e:	80 68       	ori	r24, 0x80	; 128
     350:	0e 94 45 01 	call	0x28a	; 0x28a <LCD_Command>
     354:	07 c0       	rjmp	.+14     	; 0x364 <LCD_String_xy+0x24>
     356:	82 30       	cpi	r24, 0x02	; 2
     358:	29 f4       	brne	.+10     	; 0x364 <LCD_String_xy+0x24>
     35a:	86 2f       	mov	r24, r22
     35c:	8f 70       	andi	r24, 0x0F	; 15
     35e:	80 6c       	ori	r24, 0xC0	; 192
     360:	0e 94 45 01 	call	0x28a	; 0x28a <LCD_Command>
     364:	ce 01       	movw	r24, r28
     366:	0e 94 8a 01 	call	0x314	; 0x314 <LCD_String>
     36a:	df 91       	pop	r29
     36c:	cf 91       	pop	r28
     36e:	08 95       	ret

00000370 <LCD_Clear>:
     370:	81 e0       	ldi	r24, 0x01	; 1
     372:	0e 94 45 01 	call	0x28a	; 0x28a <LCD_Command>
     376:	08 95       	ret

00000378 <ADC_Init>:
     378:	8f ef       	ldi	r24, 0xFF	; 255
     37a:	87 bb       	out	0x17, r24	; 23
     37c:	1a ba       	out	0x1a, r1	; 26
     37e:	87 e8       	ldi	r24, 0x87	; 135
     380:	86 b9       	out	0x06, r24	; 6
     382:	80 ec       	ldi	r24, 0xC0	; 192
     384:	87 b9       	out	0x07, r24	; 7
     386:	08 95       	ret

00000388 <ADC_Read>:
     388:	86 b1       	in	r24, 0x06	; 6
     38a:	80 64       	ori	r24, 0x40	; 64
     38c:	86 b9       	out	0x06, r24	; 6
     38e:	34 9b       	sbis	0x06, 4	; 6
     390:	fe cf       	rjmp	.-4      	; 0x38e <ADC_Read+0x6>
     392:	8a e1       	ldi	r24, 0x1A	; 26
     394:	8a 95       	dec	r24
     396:	f1 f7       	brne	.-4      	; 0x394 <ADC_Read+0xc>
     398:	00 c0       	rjmp	.+0      	; 0x39a <ADC_Read+0x12>
     39a:	24 b1       	in	r18, 0x04	; 4
     39c:	85 b1       	in	r24, 0x05	; 5
     39e:	90 e0       	ldi	r25, 0x00	; 0
     3a0:	98 2f       	mov	r25, r24
     3a2:	88 27       	eor	r24, r24
     3a4:	82 0f       	add	r24, r18
     3a6:	91 1d       	adc	r25, r1
     3a8:	08 95       	ret

000003aa <get_altitude>:
     3aa:	f8 94       	cli
     3ac:	8f 5f       	subi	r24, 0xFF	; 255
     3ae:	90 e0       	ldi	r25, 0x00	; 0
     3b0:	07 c0       	rjmp	.+14     	; 0x3c0 <get_altitude+0x16>
     3b2:	e9 2f       	mov	r30, r25
     3b4:	f0 e0       	ldi	r31, 0x00	; 0
     3b6:	ec 52       	subi	r30, 0x2C	; 44
     3b8:	fe 4f       	sbci	r31, 0xFE	; 254
     3ba:	20 83       	st	Z, r18
     3bc:	9f 5f       	subi	r25, 0xFF	; 255
     3be:	8f 5f       	subi	r24, 0xFF	; 255
     3c0:	48 2f       	mov	r20, r24
     3c2:	50 e0       	ldi	r21, 0x00	; 0
     3c4:	fa 01       	movw	r30, r20
     3c6:	e7 52       	subi	r30, 0x27	; 39
     3c8:	ff 4f       	sbci	r31, 0xFF	; 255
     3ca:	20 81       	ld	r18, Z
     3cc:	2c 32       	cpi	r18, 0x2C	; 44
     3ce:	89 f7       	brne	.-30     	; 0x3b2 <get_altitude+0x8>
     3d0:	e9 2f       	mov	r30, r25
     3d2:	f0 e0       	ldi	r31, 0x00	; 0
     3d4:	da 01       	movw	r26, r20
     3d6:	a6 52       	subi	r26, 0x26	; 38
     3d8:	bf 4f       	sbci	r27, 0xFF	; 255
     3da:	8c 91       	ld	r24, X
     3dc:	ec 52       	subi	r30, 0x2C	; 44
     3de:	fe 4f       	sbci	r31, 0xFE	; 254
     3e0:	80 83       	st	Z, r24
     3e2:	78 94       	sei
     3e4:	08 95       	ret

000003e6 <convert_to_degrees>:
     3e6:	8f 92       	push	r8
     3e8:	9f 92       	push	r9
     3ea:	af 92       	push	r10
     3ec:	bf 92       	push	r11
     3ee:	cf 92       	push	r12
     3f0:	df 92       	push	r13
     3f2:	ef 92       	push	r14
     3f4:	ff 92       	push	r15
     3f6:	0f 93       	push	r16
     3f8:	1f 93       	push	r17
     3fa:	0e 94 42 09 	call	0x1284	; 0x1284 <atof>
     3fe:	20 e0       	ldi	r18, 0x00	; 0
     400:	30 e0       	ldi	r19, 0x00	; 0
     402:	48 ec       	ldi	r20, 0xC8	; 200
     404:	52 e4       	ldi	r21, 0x42	; 66
     406:	0e 94 56 07 	call	0xeac	; 0xeac <__divsf3>
     40a:	6b 01       	movw	r12, r22
     40c:	7c 01       	movw	r14, r24
     40e:	0e 94 c8 07 	call	0xf90	; 0xf90 <__fixsfsi>
     412:	07 2e       	mov	r0, r23
     414:	00 0c       	add	r0, r0
     416:	88 0b       	sbc	r24, r24
     418:	99 0b       	sbc	r25, r25
     41a:	0e 94 00 08 	call	0x1000	; 0x1000 <__floatsisf>
     41e:	4b 01       	movw	r8, r22
     420:	5c 01       	movw	r10, r24
     422:	9b 01       	movw	r18, r22
     424:	ac 01       	movw	r20, r24
     426:	c7 01       	movw	r24, r14
     428:	b6 01       	movw	r22, r12
     42a:	0e 94 e4 06 	call	0xdc8	; 0xdc8 <__subsf3>
     42e:	2a e9       	ldi	r18, 0x9A	; 154
     430:	39 e9       	ldi	r19, 0x99	; 153
     432:	49 e1       	ldi	r20, 0x19	; 25
     434:	5f e3       	ldi	r21, 0x3F	; 63
     436:	0e 94 56 07 	call	0xeac	; 0xeac <__divsf3>
     43a:	9b 01       	movw	r18, r22
     43c:	ac 01       	movw	r20, r24
     43e:	c5 01       	movw	r24, r10
     440:	b4 01       	movw	r22, r8
     442:	0e 94 e5 06 	call	0xdca	; 0xdca <__addsf3>
     446:	0b e7       	ldi	r16, 0x7B	; 123
     448:	11 e0       	ldi	r17, 0x01	; 1
     44a:	24 e0       	ldi	r18, 0x04	; 4
     44c:	46 e0       	ldi	r20, 0x06	; 6
     44e:	0e 94 22 09 	call	0x1244	; 0x1244 <dtostrf>
     452:	1f 91       	pop	r17
     454:	0f 91       	pop	r16
     456:	ff 90       	pop	r15
     458:	ef 90       	pop	r14
     45a:	df 90       	pop	r13
     45c:	cf 90       	pop	r12
     45e:	bf 90       	pop	r11
     460:	af 90       	pop	r10
     462:	9f 90       	pop	r9
     464:	8f 90       	pop	r8
     466:	08 95       	ret

00000468 <get_latitude>:
     468:	f8 94       	cli
     46a:	8f 5f       	subi	r24, 0xFF	; 255
     46c:	90 e0       	ldi	r25, 0x00	; 0
     46e:	07 c0       	rjmp	.+14     	; 0x47e <get_latitude+0x16>
     470:	e9 2f       	mov	r30, r25
     472:	f0 e0       	ldi	r31, 0x00	; 0
     474:	e3 55       	subi	r30, 0x53	; 83
     476:	fe 4f       	sbci	r31, 0xFE	; 254
     478:	20 83       	st	Z, r18
     47a:	9f 5f       	subi	r25, 0xFF	; 255
     47c:	8f 5f       	subi	r24, 0xFF	; 255
     47e:	e8 2f       	mov	r30, r24
     480:	f0 e0       	ldi	r31, 0x00	; 0
     482:	e7 52       	subi	r30, 0x27	; 39
     484:	ff 4f       	sbci	r31, 0xFF	; 255
     486:	20 81       	ld	r18, Z
     488:	2c 32       	cpi	r18, 0x2C	; 44
     48a:	91 f7       	brne	.-28     	; 0x470 <get_latitude+0x8>
     48c:	31 e0       	ldi	r19, 0x01	; 1
     48e:	39 0f       	add	r19, r25
     490:	e9 2f       	mov	r30, r25
     492:	f0 e0       	ldi	r31, 0x00	; 0
     494:	8f 5f       	subi	r24, 0xFF	; 255
     496:	e3 55       	subi	r30, 0x53	; 83
     498:	fe 4f       	sbci	r31, 0xFE	; 254
     49a:	20 83       	st	Z, r18
     49c:	23 2f       	mov	r18, r19
     49e:	30 e0       	ldi	r19, 0x00	; 0
     4a0:	e8 2f       	mov	r30, r24
     4a2:	f0 e0       	ldi	r31, 0x00	; 0
     4a4:	e7 52       	subi	r30, 0x27	; 39
     4a6:	ff 4f       	sbci	r31, 0xFF	; 255
     4a8:	80 81       	ld	r24, Z
     4aa:	f9 01       	movw	r30, r18
     4ac:	e3 55       	subi	r30, 0x53	; 83
     4ae:	fe 4f       	sbci	r31, 0xFE	; 254
     4b0:	80 83       	st	Z, r24
     4b2:	8d ea       	ldi	r24, 0xAD	; 173
     4b4:	91 e0       	ldi	r25, 0x01	; 1
     4b6:	0e 94 f3 01 	call	0x3e6	; 0x3e6 <convert_to_degrees>
     4ba:	78 94       	sei
     4bc:	08 95       	ret

000004be <get_longitude>:
     4be:	f8 94       	cli
     4c0:	8f 5f       	subi	r24, 0xFF	; 255
     4c2:	90 e0       	ldi	r25, 0x00	; 0
     4c4:	07 c0       	rjmp	.+14     	; 0x4d4 <get_longitude+0x16>
     4c6:	e9 2f       	mov	r30, r25
     4c8:	f0 e0       	ldi	r31, 0x00	; 0
     4ca:	e1 57       	subi	r30, 0x71	; 113
     4cc:	fe 4f       	sbci	r31, 0xFE	; 254
     4ce:	20 83       	st	Z, r18
     4d0:	9f 5f       	subi	r25, 0xFF	; 255
     4d2:	8f 5f       	subi	r24, 0xFF	; 255
     4d4:	e8 2f       	mov	r30, r24
     4d6:	f0 e0       	ldi	r31, 0x00	; 0
     4d8:	e7 52       	subi	r30, 0x27	; 39
     4da:	ff 4f       	sbci	r31, 0xFF	; 255
     4dc:	20 81       	ld	r18, Z
     4de:	2c 32       	cpi	r18, 0x2C	; 44
     4e0:	91 f7       	brne	.-28     	; 0x4c6 <get_longitude+0x8>
     4e2:	31 e0       	ldi	r19, 0x01	; 1
     4e4:	39 0f       	add	r19, r25
     4e6:	e9 2f       	mov	r30, r25
     4e8:	f0 e0       	ldi	r31, 0x00	; 0
     4ea:	8f 5f       	subi	r24, 0xFF	; 255
     4ec:	e1 57       	subi	r30, 0x71	; 113
     4ee:	fe 4f       	sbci	r31, 0xFE	; 254
     4f0:	20 83       	st	Z, r18
     4f2:	23 2f       	mov	r18, r19
     4f4:	30 e0       	ldi	r19, 0x00	; 0
     4f6:	e8 2f       	mov	r30, r24
     4f8:	f0 e0       	ldi	r31, 0x00	; 0
     4fa:	e7 52       	subi	r30, 0x27	; 39
     4fc:	ff 4f       	sbci	r31, 0xFF	; 255
     4fe:	80 81       	ld	r24, Z
     500:	f9 01       	movw	r30, r18
     502:	e1 57       	subi	r30, 0x71	; 113
     504:	fe 4f       	sbci	r31, 0xFE	; 254
     506:	80 83       	st	Z, r24
     508:	8f e8       	ldi	r24, 0x8F	; 143
     50a:	91 e0       	ldi	r25, 0x01	; 1
     50c:	0e 94 f3 01 	call	0x3e6	; 0x3e6 <convert_to_degrees>
     510:	78 94       	sei
     512:	08 95       	ret

00000514 <getAllValuesGps>:
     514:	cf 93       	push	r28
     516:	df 93       	push	r29
     518:	c0 ec       	ldi	r28, 0xC0	; 192
     51a:	d1 e0       	ldi	r29, 0x01	; 1
     51c:	8f 81       	ldd	r24, Y+7	; 0x07
     51e:	90 e0       	ldi	r25, 0x00	; 0
     520:	0e 94 d5 01 	call	0x3aa	; 0x3aa <get_altitude>
     524:	8a 81       	ldd	r24, Y+2	; 0x02
     526:	90 e0       	ldi	r25, 0x00	; 0
     528:	0e 94 5f 02 	call	0x4be	; 0x4be <get_longitude>
     52c:	88 81       	ld	r24, Y
     52e:	90 e0       	ldi	r25, 0x00	; 0
     530:	0e 94 34 02 	call	0x468	; 0x468 <get_latitude>
     534:	df 91       	pop	r29
     536:	cf 91       	pop	r28
     538:	08 95       	ret

0000053a <__vector_13>:
     53a:	1f 92       	push	r1
     53c:	0f 92       	push	r0
     53e:	0f b6       	in	r0, 0x3f	; 63
     540:	0f 92       	push	r0
     542:	11 24       	eor	r1, r1
     544:	2f 93       	push	r18
     546:	3f 93       	push	r19
     548:	4f 93       	push	r20
     54a:	5f 93       	push	r21
     54c:	8f 93       	push	r24
     54e:	9f 93       	push	r25
     550:	ef 93       	push	r30
     552:	ff 93       	push	r31
     554:	9f b7       	in	r25, 0x3f	; 63
     556:	f8 94       	cli
     558:	8c b1       	in	r24, 0x0c	; 12
     55a:	84 32       	cpi	r24, 0x24	; 36
     55c:	59 f4       	brne	.+22     	; 0x574 <__vector_13+0x3a>
     55e:	10 92 a9 01 	sts	0x01A9, r1	; 0x8001a9 <GGA_Index+0x1>
     562:	10 92 a8 01 	sts	0x01A8, r1	; 0x8001a8 <GGA_Index>
     566:	10 92 a7 01 	sts	0x01A7, r1	; 0x8001a7 <CommaCounter+0x1>
     56a:	10 92 a6 01 	sts	0x01A6, r1	; 0x8001a6 <CommaCounter>
     56e:	10 92 d4 00 	sts	0x00D4, r1	; 0x8000d4 <__data_end>
     572:	45 c0       	rjmp	.+138    	; 0x5fe <__vector_13+0xc4>
     574:	20 91 d4 00 	lds	r18, 0x00D4	; 0x8000d4 <__data_end>
     578:	22 23       	and	r18, r18
     57a:	29 f1       	breq	.+74     	; 0x5c6 <__vector_13+0x8c>
     57c:	8c 32       	cpi	r24, 0x2C	; 44
     57e:	99 f4       	brne	.+38     	; 0x5a6 <__vector_13+0x6c>
     580:	20 91 a6 01 	lds	r18, 0x01A6	; 0x8001a6 <CommaCounter>
     584:	30 91 a7 01 	lds	r19, 0x01A7	; 0x8001a7 <CommaCounter+0x1>
     588:	a9 01       	movw	r20, r18
     58a:	4f 5f       	subi	r20, 0xFF	; 255
     58c:	5f 4f       	sbci	r21, 0xFF	; 255
     58e:	50 93 a7 01 	sts	0x01A7, r21	; 0x8001a7 <CommaCounter+0x1>
     592:	40 93 a6 01 	sts	0x01A6, r20	; 0x8001a6 <CommaCounter>
     596:	40 91 a8 01 	lds	r20, 0x01A8	; 0x8001a8 <GGA_Index>
     59a:	50 91 a9 01 	lds	r21, 0x01A9	; 0x8001a9 <GGA_Index+0x1>
     59e:	f9 01       	movw	r30, r18
     5a0:	e0 54       	subi	r30, 0x40	; 64
     5a2:	fe 4f       	sbci	r31, 0xFE	; 254
     5a4:	40 83       	st	Z, r20
     5a6:	20 91 a8 01 	lds	r18, 0x01A8	; 0x8001a8 <GGA_Index>
     5aa:	30 91 a9 01 	lds	r19, 0x01A9	; 0x8001a9 <GGA_Index+0x1>
     5ae:	a9 01       	movw	r20, r18
     5b0:	4f 5f       	subi	r20, 0xFF	; 255
     5b2:	5f 4f       	sbci	r21, 0xFF	; 255
     5b4:	50 93 a9 01 	sts	0x01A9, r21	; 0x8001a9 <GGA_Index+0x1>
     5b8:	40 93 a8 01 	sts	0x01A8, r20	; 0x8001a8 <GGA_Index>
     5bc:	f9 01       	movw	r30, r18
     5be:	e7 52       	subi	r30, 0x27	; 39
     5c0:	ff 4f       	sbci	r31, 0xFF	; 255
     5c2:	80 83       	st	Z, r24
     5c4:	1c c0       	rjmp	.+56     	; 0x5fe <__vector_13+0xc4>
     5c6:	20 91 aa 01 	lds	r18, 0x01AA	; 0x8001aa <GGA_CODE>
     5ca:	27 34       	cpi	r18, 0x47	; 71
     5cc:	89 f4       	brne	.+34     	; 0x5f0 <__vector_13+0xb6>
     5ce:	20 91 ab 01 	lds	r18, 0x01AB	; 0x8001ab <GGA_CODE+0x1>
     5d2:	27 34       	cpi	r18, 0x47	; 71
     5d4:	69 f4       	brne	.+26     	; 0x5f0 <__vector_13+0xb6>
     5d6:	20 91 ac 01 	lds	r18, 0x01AC	; 0x8001ac <GGA_CODE+0x2>
     5da:	21 34       	cpi	r18, 0x41	; 65
     5dc:	49 f4       	brne	.+18     	; 0x5f0 <__vector_13+0xb6>
     5de:	81 e0       	ldi	r24, 0x01	; 1
     5e0:	80 93 d4 00 	sts	0x00D4, r24	; 0x8000d4 <__data_end>
     5e4:	ea ea       	ldi	r30, 0xAA	; 170
     5e6:	f1 e0       	ldi	r31, 0x01	; 1
     5e8:	10 82       	st	Z, r1
     5ea:	11 82       	std	Z+1, r1	; 0x01
     5ec:	12 82       	std	Z+2, r1	; 0x02
     5ee:	07 c0       	rjmp	.+14     	; 0x5fe <__vector_13+0xc4>
     5f0:	ea ea       	ldi	r30, 0xAA	; 170
     5f2:	f1 e0       	ldi	r31, 0x01	; 1
     5f4:	21 81       	ldd	r18, Z+1	; 0x01
     5f6:	20 83       	st	Z, r18
     5f8:	22 81       	ldd	r18, Z+2	; 0x02
     5fa:	21 83       	std	Z+1, r18	; 0x01
     5fc:	82 83       	std	Z+2, r24	; 0x02
     5fe:	9f bf       	out	0x3f, r25	; 63
     600:	ff 91       	pop	r31
     602:	ef 91       	pop	r30
     604:	9f 91       	pop	r25
     606:	8f 91       	pop	r24
     608:	5f 91       	pop	r21
     60a:	4f 91       	pop	r20
     60c:	3f 91       	pop	r19
     60e:	2f 91       	pop	r18
     610:	0f 90       	pop	r0
     612:	0f be       	out	0x3f, r0	; 63
     614:	0f 90       	pop	r0
     616:	1f 90       	pop	r1
     618:	18 95       	reti

0000061a <MPU6050_Init>:
     61a:	2f e7       	ldi	r18, 0x7F	; 127
     61c:	89 ea       	ldi	r24, 0xA9	; 169
     61e:	93 e0       	ldi	r25, 0x03	; 3
     620:	21 50       	subi	r18, 0x01	; 1
     622:	80 40       	sbci	r24, 0x00	; 0
     624:	90 40       	sbci	r25, 0x00	; 0
     626:	e1 f7       	brne	.-8      	; 0x620 <MPU6050_Init+0x6>
     628:	00 c0       	rjmp	.+0      	; 0x62a <MPU6050_Init+0x10>
     62a:	00 00       	nop
     62c:	80 ed       	ldi	r24, 0xD0	; 208
     62e:	0e 94 0b 01 	call	0x216	; 0x216 <I2C_Start_Wait>
     632:	89 e1       	ldi	r24, 0x19	; 25
     634:	0e 94 25 01 	call	0x24a	; 0x24a <I2C_Write>
     638:	87 e0       	ldi	r24, 0x07	; 7
     63a:	0e 94 25 01 	call	0x24a	; 0x24a <I2C_Write>
     63e:	0e 94 05 01 	call	0x20a	; 0x20a <I2C_Stop>
     642:	80 ed       	ldi	r24, 0xD0	; 208
     644:	0e 94 0b 01 	call	0x216	; 0x216 <I2C_Start_Wait>
     648:	8b e6       	ldi	r24, 0x6B	; 107
     64a:	0e 94 25 01 	call	0x24a	; 0x24a <I2C_Write>
     64e:	81 e0       	ldi	r24, 0x01	; 1
     650:	0e 94 25 01 	call	0x24a	; 0x24a <I2C_Write>
     654:	0e 94 05 01 	call	0x20a	; 0x20a <I2C_Stop>
     658:	80 ed       	ldi	r24, 0xD0	; 208
     65a:	0e 94 0b 01 	call	0x216	; 0x216 <I2C_Start_Wait>
     65e:	8a e1       	ldi	r24, 0x1A	; 26
     660:	0e 94 25 01 	call	0x24a	; 0x24a <I2C_Write>
     664:	80 e0       	ldi	r24, 0x00	; 0
     666:	0e 94 25 01 	call	0x24a	; 0x24a <I2C_Write>
     66a:	0e 94 05 01 	call	0x20a	; 0x20a <I2C_Stop>
     66e:	80 ed       	ldi	r24, 0xD0	; 208
     670:	0e 94 0b 01 	call	0x216	; 0x216 <I2C_Start_Wait>
     674:	8b e1       	ldi	r24, 0x1B	; 27
     676:	0e 94 25 01 	call	0x24a	; 0x24a <I2C_Write>
     67a:	88 e1       	ldi	r24, 0x18	; 24
     67c:	0e 94 25 01 	call	0x24a	; 0x24a <I2C_Write>
     680:	0e 94 05 01 	call	0x20a	; 0x20a <I2C_Stop>
     684:	80 ed       	ldi	r24, 0xD0	; 208
     686:	0e 94 0b 01 	call	0x216	; 0x216 <I2C_Start_Wait>
     68a:	88 e3       	ldi	r24, 0x38	; 56
     68c:	0e 94 25 01 	call	0x24a	; 0x24a <I2C_Write>
     690:	81 e0       	ldi	r24, 0x01	; 1
     692:	0e 94 25 01 	call	0x24a	; 0x24a <I2C_Write>
     696:	0e 94 05 01 	call	0x20a	; 0x20a <I2C_Stop>
     69a:	08 95       	ret

0000069c <MPU_Start_Loc>:
     69c:	80 ed       	ldi	r24, 0xD0	; 208
     69e:	0e 94 0b 01 	call	0x216	; 0x216 <I2C_Start_Wait>
     6a2:	8b e3       	ldi	r24, 0x3B	; 59
     6a4:	0e 94 25 01 	call	0x24a	; 0x24a <I2C_Write>
     6a8:	81 ed       	ldi	r24, 0xD1	; 209
     6aa:	0e 94 e8 00 	call	0x1d0	; 0x1d0 <I2C_Repeated_Start>
     6ae:	08 95       	ret

000006b0 <Read_RawValue>:
     6b0:	cf 93       	push	r28
     6b2:	df 93       	push	r29
     6b4:	0e 94 4e 03 	call	0x69c	; 0x69c <MPU_Start_Loc>
     6b8:	0e 94 37 01 	call	0x26e	; 0x26e <I2C_Read_Ack>
     6bc:	c8 2f       	mov	r28, r24
     6be:	d0 e0       	ldi	r29, 0x00	; 0
     6c0:	dc 2f       	mov	r29, r28
     6c2:	cc 27       	eor	r28, r28
     6c4:	0e 94 37 01 	call	0x26e	; 0x26e <I2C_Read_Ack>
     6c8:	be 01       	movw	r22, r28
     6ca:	68 2b       	or	r22, r24
     6cc:	07 2e       	mov	r0, r23
     6ce:	00 0c       	add	r0, r0
     6d0:	88 0b       	sbc	r24, r24
     6d2:	99 0b       	sbc	r25, r25
     6d4:	0e 94 00 08 	call	0x1000	; 0x1000 <__floatsisf>
     6d8:	60 93 a2 01 	sts	0x01A2, r22	; 0x8001a2 <Acc_x>
     6dc:	70 93 a3 01 	sts	0x01A3, r23	; 0x8001a3 <Acc_x+0x1>
     6e0:	80 93 a4 01 	sts	0x01A4, r24	; 0x8001a4 <Acc_x+0x2>
     6e4:	90 93 a5 01 	sts	0x01A5, r25	; 0x8001a5 <Acc_x+0x3>
     6e8:	0e 94 37 01 	call	0x26e	; 0x26e <I2C_Read_Ack>
     6ec:	c8 2f       	mov	r28, r24
     6ee:	d0 e0       	ldi	r29, 0x00	; 0
     6f0:	dc 2f       	mov	r29, r28
     6f2:	cc 27       	eor	r28, r28
     6f4:	0e 94 37 01 	call	0x26e	; 0x26e <I2C_Read_Ack>
     6f8:	be 01       	movw	r22, r28
     6fa:	68 2b       	or	r22, r24
     6fc:	07 2e       	mov	r0, r23
     6fe:	00 0c       	add	r0, r0
     700:	88 0b       	sbc	r24, r24
     702:	99 0b       	sbc	r25, r25
     704:	0e 94 00 08 	call	0x1000	; 0x1000 <__floatsisf>
     708:	60 93 77 01 	sts	0x0177, r22	; 0x800177 <Acc_y>
     70c:	70 93 78 01 	sts	0x0178, r23	; 0x800178 <Acc_y+0x1>
     710:	80 93 79 01 	sts	0x0179, r24	; 0x800179 <Acc_y+0x2>
     714:	90 93 7a 01 	sts	0x017A, r25	; 0x80017a <Acc_y+0x3>
     718:	0e 94 37 01 	call	0x26e	; 0x26e <I2C_Read_Ack>
     71c:	c8 2f       	mov	r28, r24
     71e:	d0 e0       	ldi	r29, 0x00	; 0
     720:	dc 2f       	mov	r29, r28
     722:	cc 27       	eor	r28, r28
     724:	0e 94 37 01 	call	0x26e	; 0x26e <I2C_Read_Ack>
     728:	be 01       	movw	r22, r28
     72a:	68 2b       	or	r22, r24
     72c:	07 2e       	mov	r0, r23
     72e:	00 0c       	add	r0, r0
     730:	88 0b       	sbc	r24, r24
     732:	99 0b       	sbc	r25, r25
     734:	0e 94 00 08 	call	0x1000	; 0x1000 <__floatsisf>
     738:	60 93 d5 00 	sts	0x00D5, r22	; 0x8000d5 <Acc_z>
     73c:	70 93 d6 00 	sts	0x00D6, r23	; 0x8000d6 <Acc_z+0x1>
     740:	80 93 d7 00 	sts	0x00D7, r24	; 0x8000d7 <Acc_z+0x2>
     744:	90 93 d8 00 	sts	0x00D8, r25	; 0x8000d8 <Acc_z+0x3>
     748:	0e 94 37 01 	call	0x26e	; 0x26e <I2C_Read_Ack>
     74c:	c8 2f       	mov	r28, r24
     74e:	d0 e0       	ldi	r29, 0x00	; 0
     750:	dc 2f       	mov	r29, r28
     752:	cc 27       	eor	r28, r28
     754:	0e 94 37 01 	call	0x26e	; 0x26e <I2C_Read_Ack>
     758:	be 01       	movw	r22, r28
     75a:	68 2b       	or	r22, r24
     75c:	07 2e       	mov	r0, r23
     75e:	00 0c       	add	r0, r0
     760:	88 0b       	sbc	r24, r24
     762:	99 0b       	sbc	r25, r25
     764:	0e 94 00 08 	call	0x1000	; 0x1000 <__floatsisf>
     768:	60 93 73 01 	sts	0x0173, r22	; 0x800173 <Temperature>
     76c:	70 93 74 01 	sts	0x0174, r23	; 0x800174 <Temperature+0x1>
     770:	80 93 75 01 	sts	0x0175, r24	; 0x800175 <Temperature+0x2>
     774:	90 93 76 01 	sts	0x0176, r25	; 0x800176 <Temperature+0x3>
     778:	0e 94 37 01 	call	0x26e	; 0x26e <I2C_Read_Ack>
     77c:	c8 2f       	mov	r28, r24
     77e:	d0 e0       	ldi	r29, 0x00	; 0
     780:	dc 2f       	mov	r29, r28
     782:	cc 27       	eor	r28, r28
     784:	0e 94 37 01 	call	0x26e	; 0x26e <I2C_Read_Ack>
     788:	be 01       	movw	r22, r28
     78a:	68 2b       	or	r22, r24
     78c:	07 2e       	mov	r0, r23
     78e:	00 0c       	add	r0, r0
     790:	88 0b       	sbc	r24, r24
     792:	99 0b       	sbc	r25, r25
     794:	0e 94 00 08 	call	0x1000	; 0x1000 <__floatsisf>
     798:	60 93 6f 01 	sts	0x016F, r22	; 0x80016f <Gyro_x>
     79c:	70 93 70 01 	sts	0x0170, r23	; 0x800170 <Gyro_x+0x1>
     7a0:	80 93 71 01 	sts	0x0171, r24	; 0x800171 <Gyro_x+0x2>
     7a4:	90 93 72 01 	sts	0x0172, r25	; 0x800172 <Gyro_x+0x3>
     7a8:	0e 94 37 01 	call	0x26e	; 0x26e <I2C_Read_Ack>
     7ac:	c8 2f       	mov	r28, r24
     7ae:	d0 e0       	ldi	r29, 0x00	; 0
     7b0:	dc 2f       	mov	r29, r28
     7b2:	cc 27       	eor	r28, r28
     7b4:	0e 94 37 01 	call	0x26e	; 0x26e <I2C_Read_Ack>
     7b8:	be 01       	movw	r22, r28
     7ba:	68 2b       	or	r22, r24
     7bc:	07 2e       	mov	r0, r23
     7be:	00 0c       	add	r0, r0
     7c0:	88 0b       	sbc	r24, r24
     7c2:	99 0b       	sbc	r25, r25
     7c4:	0e 94 00 08 	call	0x1000	; 0x1000 <__floatsisf>
     7c8:	60 93 bc 01 	sts	0x01BC, r22	; 0x8001bc <Gyro_y>
     7cc:	70 93 bd 01 	sts	0x01BD, r23	; 0x8001bd <Gyro_y+0x1>
     7d0:	80 93 be 01 	sts	0x01BE, r24	; 0x8001be <Gyro_y+0x2>
     7d4:	90 93 bf 01 	sts	0x01BF, r25	; 0x8001bf <Gyro_y+0x3>
     7d8:	0e 94 37 01 	call	0x26e	; 0x26e <I2C_Read_Ack>
     7dc:	c8 2f       	mov	r28, r24
     7de:	d0 e0       	ldi	r29, 0x00	; 0
     7e0:	dc 2f       	mov	r29, r28
     7e2:	cc 27       	eor	r28, r28
     7e4:	0e 94 3e 01 	call	0x27c	; 0x27c <I2C_Read_Nack>
     7e8:	be 01       	movw	r22, r28
     7ea:	68 2b       	or	r22, r24
     7ec:	07 2e       	mov	r0, r23
     7ee:	00 0c       	add	r0, r0
     7f0:	88 0b       	sbc	r24, r24
     7f2:	99 0b       	sbc	r25, r25
     7f4:	0e 94 00 08 	call	0x1000	; 0x1000 <__floatsisf>
     7f8:	60 93 9e 01 	sts	0x019E, r22	; 0x80019e <Gyro_z>
     7fc:	70 93 9f 01 	sts	0x019F, r23	; 0x80019f <Gyro_z+0x1>
     800:	80 93 a0 01 	sts	0x01A0, r24	; 0x8001a0 <Gyro_z+0x2>
     804:	90 93 a1 01 	sts	0x01A1, r25	; 0x8001a1 <Gyro_z+0x3>
     808:	0e 94 05 01 	call	0x20a	; 0x20a <I2C_Stop>
     80c:	df 91       	pop	r29
     80e:	cf 91       	pop	r28
     810:	08 95       	ret

00000812 <isDriverSleepingGyro>:
     812:	4f 92       	push	r4
     814:	5f 92       	push	r5
     816:	6f 92       	push	r6
     818:	7f 92       	push	r7
     81a:	8f 92       	push	r8
     81c:	9f 92       	push	r9
     81e:	af 92       	push	r10
     820:	bf 92       	push	r11
     822:	cf 92       	push	r12
     824:	df 92       	push	r13
     826:	ef 92       	push	r14
     828:	ff 92       	push	r15
     82a:	0f 93       	push	r16
     82c:	1f 93       	push	r17
     82e:	4b 01       	movw	r8, r22
     830:	5c 01       	movw	r10, r24
     832:	29 01       	movw	r4, r18
     834:	3a 01       	movw	r6, r20
     836:	67 01       	movw	r12, r14
     838:	78 01       	movw	r14, r16
     83a:	20 e0       	ldi	r18, 0x00	; 0
     83c:	30 e0       	ldi	r19, 0x00	; 0
     83e:	40 e0       	ldi	r20, 0x00	; 0
     840:	50 ec       	ldi	r21, 0xC0	; 192
     842:	c7 01       	movw	r24, r14
     844:	b6 01       	movw	r22, r12
     846:	0e 94 b0 08 	call	0x1160	; 0x1160 <__gesf2>
     84a:	18 16       	cp	r1, r24
     84c:	ac f5       	brge	.+106    	; 0x8b8 <__stack+0x59>
     84e:	20 e0       	ldi	r18, 0x00	; 0
     850:	30 e0       	ldi	r19, 0x00	; 0
     852:	40 e0       	ldi	r20, 0x00	; 0
     854:	50 e4       	ldi	r21, 0x40	; 64
     856:	c7 01       	movw	r24, r14
     858:	b6 01       	movw	r22, r12
     85a:	0e 94 51 07 	call	0xea2	; 0xea2 <__cmpsf2>
     85e:	88 23       	and	r24, r24
     860:	74 f5       	brge	.+92     	; 0x8be <__stack+0x5f>
     862:	20 e0       	ldi	r18, 0x00	; 0
     864:	30 e0       	ldi	r19, 0x00	; 0
     866:	40 e4       	ldi	r20, 0x40	; 64
     868:	50 ec       	ldi	r21, 0xC0	; 192
     86a:	c5 01       	movw	r24, r10
     86c:	b4 01       	movw	r22, r8
     86e:	0e 94 b0 08 	call	0x1160	; 0x1160 <__gesf2>
     872:	18 16       	cp	r1, r24
     874:	3c f5       	brge	.+78     	; 0x8c4 <__stack+0x65>
     876:	20 e0       	ldi	r18, 0x00	; 0
     878:	30 e0       	ldi	r19, 0x00	; 0
     87a:	40 e4       	ldi	r20, 0x40	; 64
     87c:	50 e4       	ldi	r21, 0x40	; 64
     87e:	c5 01       	movw	r24, r10
     880:	b4 01       	movw	r22, r8
     882:	0e 94 51 07 	call	0xea2	; 0xea2 <__cmpsf2>
     886:	88 23       	and	r24, r24
     888:	04 f5       	brge	.+64     	; 0x8ca <__stack+0x6b>
     88a:	20 e0       	ldi	r18, 0x00	; 0
     88c:	30 e0       	ldi	r19, 0x00	; 0
     88e:	40 e0       	ldi	r20, 0x00	; 0
     890:	51 e4       	ldi	r21, 0x41	; 65
     892:	c3 01       	movw	r24, r6
     894:	b2 01       	movw	r22, r4
     896:	0e 94 b0 08 	call	0x1160	; 0x1160 <__gesf2>
     89a:	88 23       	and	r24, r24
     89c:	cc f0       	brlt	.+50     	; 0x8d0 <__stack+0x71>
     89e:	20 e0       	ldi	r18, 0x00	; 0
     8a0:	30 e0       	ldi	r19, 0x00	; 0
     8a2:	40 e1       	ldi	r20, 0x10	; 16
     8a4:	51 e4       	ldi	r21, 0x41	; 65
     8a6:	c3 01       	movw	r24, r6
     8a8:	b2 01       	movw	r22, r4
     8aa:	0e 94 51 07 	call	0xea2	; 0xea2 <__cmpsf2>
     8ae:	18 16       	cp	r1, r24
     8b0:	94 f4       	brge	.+36     	; 0x8d6 <__stack+0x77>
     8b2:	81 e0       	ldi	r24, 0x01	; 1
     8b4:	90 e0       	ldi	r25, 0x00	; 0
     8b6:	11 c0       	rjmp	.+34     	; 0x8da <__stack+0x7b>
     8b8:	81 e0       	ldi	r24, 0x01	; 1
     8ba:	90 e0       	ldi	r25, 0x00	; 0
     8bc:	0e c0       	rjmp	.+28     	; 0x8da <__stack+0x7b>
     8be:	81 e0       	ldi	r24, 0x01	; 1
     8c0:	90 e0       	ldi	r25, 0x00	; 0
     8c2:	0b c0       	rjmp	.+22     	; 0x8da <__stack+0x7b>
     8c4:	81 e0       	ldi	r24, 0x01	; 1
     8c6:	90 e0       	ldi	r25, 0x00	; 0
     8c8:	08 c0       	rjmp	.+16     	; 0x8da <__stack+0x7b>
     8ca:	81 e0       	ldi	r24, 0x01	; 1
     8cc:	90 e0       	ldi	r25, 0x00	; 0
     8ce:	05 c0       	rjmp	.+10     	; 0x8da <__stack+0x7b>
     8d0:	81 e0       	ldi	r24, 0x01	; 1
     8d2:	90 e0       	ldi	r25, 0x00	; 0
     8d4:	02 c0       	rjmp	.+4      	; 0x8da <__stack+0x7b>
     8d6:	80 e0       	ldi	r24, 0x00	; 0
     8d8:	90 e0       	ldi	r25, 0x00	; 0
     8da:	1f 91       	pop	r17
     8dc:	0f 91       	pop	r16
     8de:	ff 90       	pop	r15
     8e0:	ef 90       	pop	r14
     8e2:	df 90       	pop	r13
     8e4:	cf 90       	pop	r12
     8e6:	bf 90       	pop	r11
     8e8:	af 90       	pop	r10
     8ea:	9f 90       	pop	r9
     8ec:	8f 90       	pop	r8
     8ee:	7f 90       	pop	r7
     8f0:	6f 90       	pop	r6
     8f2:	5f 90       	pop	r5
     8f4:	4f 90       	pop	r4
     8f6:	08 95       	ret

000008f8 <USART_initialize>:
     8f8:	8a b1       	in	r24, 0x0a	; 10
     8fa:	88 61       	ori	r24, 0x18	; 24
     8fc:	8a b9       	out	0x0a, r24	; 10
     8fe:	80 b5       	in	r24, 0x20	; 32
     900:	86 68       	ori	r24, 0x86	; 134
     902:	80 bd       	out	0x20, r24	; 32
     904:	83 e3       	ldi	r24, 0x33	; 51
     906:	89 b9       	out	0x09, r24	; 9
     908:	10 bc       	out	0x20, r1	; 32
     90a:	08 95       	ret

0000090c <USART_transmit>:
     90c:	5d 9b       	sbis	0x0b, 5	; 11
     90e:	fe cf       	rjmp	.-4      	; 0x90c <USART_transmit>
     910:	8c b9       	out	0x0c, r24	; 12
     912:	08 95       	ret

00000914 <sendMessage>:
     914:	ef 92       	push	r14
     916:	ff 92       	push	r15
     918:	0f 93       	push	r16
     91a:	1f 93       	push	r17
     91c:	cf 93       	push	r28
     91e:	df 93       	push	r29
     920:	cd b7       	in	r28, 0x3d	; 61
     922:	de b7       	in	r29, 0x3e	; 62
     924:	a3 97       	sbiw	r28, 0x23	; 35
     926:	0f b6       	in	r0, 0x3f	; 63
     928:	f8 94       	cli
     92a:	de bf       	out	0x3e, r29	; 62
     92c:	0f be       	out	0x3f, r0	; 63
     92e:	cd bf       	out	0x3d, r28	; 61
     930:	7c 01       	movw	r14, r24
     932:	81 e4       	ldi	r24, 0x41	; 65
     934:	94 e5       	ldi	r25, 0x54	; 84
     936:	9a 83       	std	Y+2, r25	; 0x02
     938:	89 83       	std	Y+1, r24	; 0x01
     93a:	1c 82       	std	Y+4, r1	; 0x04
     93c:	1b 82       	std	Y+3, r1	; 0x03
     93e:	8a e0       	ldi	r24, 0x0A	; 10
     940:	eb e8       	ldi	r30, 0x8B	; 139
     942:	f0 e0       	ldi	r31, 0x00	; 0
     944:	de 01       	movw	r26, r28
     946:	15 96       	adiw	r26, 0x05	; 5
     948:	01 90       	ld	r0, Z+
     94a:	0d 92       	st	X+, r0
     94c:	8a 95       	dec	r24
     94e:	e1 f7       	brne	.-8      	; 0x948 <sendMessage+0x34>
     950:	89 e0       	ldi	r24, 0x09	; 9
     952:	e0 e6       	ldi	r30, 0x60	; 96
     954:	f0 e0       	ldi	r31, 0x00	; 0
     956:	de 01       	movw	r26, r28
     958:	1f 96       	adiw	r26, 0x0f	; 15
     95a:	01 90       	ld	r0, Z+
     95c:	0d 92       	st	X+, r0
     95e:	8a 95       	dec	r24
     960:	e1 f7       	brne	.-8      	; 0x95a <sendMessage+0x46>
     962:	18 8e       	std	Y+24, r1	; 0x18
     964:	8b e0       	ldi	r24, 0x0B	; 11
     966:	e5 e9       	ldi	r30, 0x95	; 149
     968:	f0 e0       	ldi	r31, 0x00	; 0
     96a:	de 01       	movw	r26, r28
     96c:	59 96       	adiw	r26, 0x19	; 25
     96e:	01 90       	ld	r0, Z+
     970:	0d 92       	st	X+, r0
     972:	8a 95       	dec	r24
     974:	e1 f7       	brne	.-8      	; 0x96e <sendMessage+0x5a>
     976:	0e 94 b8 01 	call	0x370	; 0x370 <LCD_Clear>
     97a:	4a e6       	ldi	r20, 0x6A	; 106
     97c:	50 e0       	ldi	r21, 0x00	; 0
     97e:	60 e0       	ldi	r22, 0x00	; 0
     980:	81 e0       	ldi	r24, 0x01	; 1
     982:	0e 94 a0 01 	call	0x340	; 0x340 <LCD_String_xy>
     986:	43 e7       	ldi	r20, 0x73	; 115
     988:	50 e0       	ldi	r21, 0x00	; 0
     98a:	63 e0       	ldi	r22, 0x03	; 3
     98c:	82 e0       	ldi	r24, 0x02	; 2
     98e:	0e 94 a0 01 	call	0x340	; 0x340 <LCD_String_xy>
     992:	2f ef       	ldi	r18, 0xFF	; 255
     994:	80 e7       	ldi	r24, 0x70	; 112
     996:	92 e0       	ldi	r25, 0x02	; 2
     998:	21 50       	subi	r18, 0x01	; 1
     99a:	80 40       	sbci	r24, 0x00	; 0
     99c:	90 40       	sbci	r25, 0x00	; 0
     99e:	e1 f7       	brne	.-8      	; 0x998 <sendMessage+0x84>
     9a0:	00 c0       	rjmp	.+0      	; 0x9a2 <sendMessage+0x8e>
     9a2:	00 00       	nop
     9a4:	00 e0       	ldi	r16, 0x00	; 0
     9a6:	10 e0       	ldi	r17, 0x00	; 0
     9a8:	0d c0       	rjmp	.+26     	; 0x9c4 <sendMessage+0xb0>
     9aa:	0e 94 86 04 	call	0x90c	; 0x90c <USART_transmit>
     9ae:	2f ef       	ldi	r18, 0xFF	; 255
     9b0:	80 e7       	ldi	r24, 0x70	; 112
     9b2:	92 e0       	ldi	r25, 0x02	; 2
     9b4:	21 50       	subi	r18, 0x01	; 1
     9b6:	80 40       	sbci	r24, 0x00	; 0
     9b8:	90 40       	sbci	r25, 0x00	; 0
     9ba:	e1 f7       	brne	.-8      	; 0x9b4 <sendMessage+0xa0>
     9bc:	00 c0       	rjmp	.+0      	; 0x9be <sendMessage+0xaa>
     9be:	00 00       	nop
     9c0:	0f 5f       	subi	r16, 0xFF	; 255
     9c2:	1f 4f       	sbci	r17, 0xFF	; 255
     9c4:	e1 e0       	ldi	r30, 0x01	; 1
     9c6:	f0 e0       	ldi	r31, 0x00	; 0
     9c8:	ec 0f       	add	r30, r28
     9ca:	fd 1f       	adc	r31, r29
     9cc:	e0 0f       	add	r30, r16
     9ce:	f1 1f       	adc	r31, r17
     9d0:	80 81       	ld	r24, Z
     9d2:	81 11       	cpse	r24, r1
     9d4:	ea cf       	rjmp	.-44     	; 0x9aa <sendMessage+0x96>
     9d6:	8d e0       	ldi	r24, 0x0D	; 13
     9d8:	0e 94 86 04 	call	0x90c	; 0x90c <USART_transmit>
     9dc:	2f ef       	ldi	r18, 0xFF	; 255
     9de:	81 ee       	ldi	r24, 0xE1	; 225
     9e0:	94 e0       	ldi	r25, 0x04	; 4
     9e2:	21 50       	subi	r18, 0x01	; 1
     9e4:	80 40       	sbci	r24, 0x00	; 0
     9e6:	90 40       	sbci	r25, 0x00	; 0
     9e8:	e1 f7       	brne	.-8      	; 0x9e2 <sendMessage+0xce>
     9ea:	00 c0       	rjmp	.+0      	; 0x9ec <sendMessage+0xd8>
     9ec:	00 00       	nop
     9ee:	00 e0       	ldi	r16, 0x00	; 0
     9f0:	10 e0       	ldi	r17, 0x00	; 0
     9f2:	0d c0       	rjmp	.+26     	; 0xa0e <sendMessage+0xfa>
     9f4:	0e 94 86 04 	call	0x90c	; 0x90c <USART_transmit>
     9f8:	2f ef       	ldi	r18, 0xFF	; 255
     9fa:	80 e7       	ldi	r24, 0x70	; 112
     9fc:	92 e0       	ldi	r25, 0x02	; 2
     9fe:	21 50       	subi	r18, 0x01	; 1
     a00:	80 40       	sbci	r24, 0x00	; 0
     a02:	90 40       	sbci	r25, 0x00	; 0
     a04:	e1 f7       	brne	.-8      	; 0x9fe <sendMessage+0xea>
     a06:	00 c0       	rjmp	.+0      	; 0xa08 <sendMessage+0xf4>
     a08:	00 00       	nop
     a0a:	0f 5f       	subi	r16, 0xFF	; 255
     a0c:	1f 4f       	sbci	r17, 0xFF	; 255
     a0e:	e5 e0       	ldi	r30, 0x05	; 5
     a10:	f0 e0       	ldi	r31, 0x00	; 0
     a12:	ec 0f       	add	r30, r28
     a14:	fd 1f       	adc	r31, r29
     a16:	e0 0f       	add	r30, r16
     a18:	f1 1f       	adc	r31, r17
     a1a:	80 81       	ld	r24, Z
     a1c:	81 11       	cpse	r24, r1
     a1e:	ea cf       	rjmp	.-44     	; 0x9f4 <sendMessage+0xe0>
     a20:	8d e0       	ldi	r24, 0x0D	; 13
     a22:	0e 94 86 04 	call	0x90c	; 0x90c <USART_transmit>
     a26:	2f ef       	ldi	r18, 0xFF	; 255
     a28:	81 ee       	ldi	r24, 0xE1	; 225
     a2a:	94 e0       	ldi	r25, 0x04	; 4
     a2c:	21 50       	subi	r18, 0x01	; 1
     a2e:	80 40       	sbci	r24, 0x00	; 0
     a30:	90 40       	sbci	r25, 0x00	; 0
     a32:	e1 f7       	brne	.-8      	; 0xa2c <sendMessage+0x118>
     a34:	00 c0       	rjmp	.+0      	; 0xa36 <sendMessage+0x122>
     a36:	00 00       	nop
     a38:	00 e0       	ldi	r16, 0x00	; 0
     a3a:	10 e0       	ldi	r17, 0x00	; 0
     a3c:	0d c0       	rjmp	.+26     	; 0xa58 <sendMessage+0x144>
     a3e:	0e 94 86 04 	call	0x90c	; 0x90c <USART_transmit>
     a42:	2f ef       	ldi	r18, 0xFF	; 255
     a44:	80 e7       	ldi	r24, 0x70	; 112
     a46:	92 e0       	ldi	r25, 0x02	; 2
     a48:	21 50       	subi	r18, 0x01	; 1
     a4a:	80 40       	sbci	r24, 0x00	; 0
     a4c:	90 40       	sbci	r25, 0x00	; 0
     a4e:	e1 f7       	brne	.-8      	; 0xa48 <sendMessage+0x134>
     a50:	00 c0       	rjmp	.+0      	; 0xa52 <sendMessage+0x13e>
     a52:	00 00       	nop
     a54:	0f 5f       	subi	r16, 0xFF	; 255
     a56:	1f 4f       	sbci	r17, 0xFF	; 255
     a58:	ef e0       	ldi	r30, 0x0F	; 15
     a5a:	f0 e0       	ldi	r31, 0x00	; 0
     a5c:	ec 0f       	add	r30, r28
     a5e:	fd 1f       	adc	r31, r29
     a60:	e0 0f       	add	r30, r16
     a62:	f1 1f       	adc	r31, r17
     a64:	80 81       	ld	r24, Z
     a66:	81 11       	cpse	r24, r1
     a68:	ea cf       	rjmp	.-44     	; 0xa3e <sendMessage+0x12a>
     a6a:	82 e2       	ldi	r24, 0x22	; 34
     a6c:	8c b9       	out	0x0c, r24	; 12
     a6e:	2f ef       	ldi	r18, 0xFF	; 255
     a70:	80 e7       	ldi	r24, 0x70	; 112
     a72:	92 e0       	ldi	r25, 0x02	; 2
     a74:	21 50       	subi	r18, 0x01	; 1
     a76:	80 40       	sbci	r24, 0x00	; 0
     a78:	90 40       	sbci	r25, 0x00	; 0
     a7a:	e1 f7       	brne	.-8      	; 0xa74 <sendMessage+0x160>
     a7c:	00 c0       	rjmp	.+0      	; 0xa7e <sendMessage+0x16a>
     a7e:	00 00       	nop
     a80:	00 e0       	ldi	r16, 0x00	; 0
     a82:	10 e0       	ldi	r17, 0x00	; 0
     a84:	0d c0       	rjmp	.+26     	; 0xaa0 <sendMessage+0x18c>
     a86:	0e 94 86 04 	call	0x90c	; 0x90c <USART_transmit>
     a8a:	2f ef       	ldi	r18, 0xFF	; 255
     a8c:	80 e7       	ldi	r24, 0x70	; 112
     a8e:	92 e0       	ldi	r25, 0x02	; 2
     a90:	21 50       	subi	r18, 0x01	; 1
     a92:	80 40       	sbci	r24, 0x00	; 0
     a94:	90 40       	sbci	r25, 0x00	; 0
     a96:	e1 f7       	brne	.-8      	; 0xa90 <sendMessage+0x17c>
     a98:	00 c0       	rjmp	.+0      	; 0xa9a <sendMessage+0x186>
     a9a:	00 00       	nop
     a9c:	0f 5f       	subi	r16, 0xFF	; 255
     a9e:	1f 4f       	sbci	r17, 0xFF	; 255
     aa0:	e9 e1       	ldi	r30, 0x19	; 25
     aa2:	f0 e0       	ldi	r31, 0x00	; 0
     aa4:	ec 0f       	add	r30, r28
     aa6:	fd 1f       	adc	r31, r29
     aa8:	e0 0f       	add	r30, r16
     aaa:	f1 1f       	adc	r31, r17
     aac:	80 81       	ld	r24, Z
     aae:	81 11       	cpse	r24, r1
     ab0:	ea cf       	rjmp	.-44     	; 0xa86 <sendMessage+0x172>
     ab2:	82 e2       	ldi	r24, 0x22	; 34
     ab4:	8c b9       	out	0x0c, r24	; 12
     ab6:	2f ef       	ldi	r18, 0xFF	; 255
     ab8:	80 e7       	ldi	r24, 0x70	; 112
     aba:	92 e0       	ldi	r25, 0x02	; 2
     abc:	21 50       	subi	r18, 0x01	; 1
     abe:	80 40       	sbci	r24, 0x00	; 0
     ac0:	90 40       	sbci	r25, 0x00	; 0
     ac2:	e1 f7       	brne	.-8      	; 0xabc <sendMessage+0x1a8>
     ac4:	00 c0       	rjmp	.+0      	; 0xac6 <sendMessage+0x1b2>
     ac6:	00 00       	nop
     ac8:	8d e0       	ldi	r24, 0x0D	; 13
     aca:	8c b9       	out	0x0c, r24	; 12
     acc:	2f ef       	ldi	r18, 0xFF	; 255
     ace:	81 ee       	ldi	r24, 0xE1	; 225
     ad0:	94 e0       	ldi	r25, 0x04	; 4
     ad2:	21 50       	subi	r18, 0x01	; 1
     ad4:	80 40       	sbci	r24, 0x00	; 0
     ad6:	90 40       	sbci	r25, 0x00	; 0
     ad8:	e1 f7       	brne	.-8      	; 0xad2 <sendMessage+0x1be>
     ada:	00 c0       	rjmp	.+0      	; 0xadc <sendMessage+0x1c8>
     adc:	00 00       	nop
     ade:	00 e0       	ldi	r16, 0x00	; 0
     ae0:	10 e0       	ldi	r17, 0x00	; 0
     ae2:	0d c0       	rjmp	.+26     	; 0xafe <sendMessage+0x1ea>
     ae4:	0e 94 86 04 	call	0x90c	; 0x90c <USART_transmit>
     ae8:	2f ef       	ldi	r18, 0xFF	; 255
     aea:	80 e7       	ldi	r24, 0x70	; 112
     aec:	92 e0       	ldi	r25, 0x02	; 2
     aee:	21 50       	subi	r18, 0x01	; 1
     af0:	80 40       	sbci	r24, 0x00	; 0
     af2:	90 40       	sbci	r25, 0x00	; 0
     af4:	e1 f7       	brne	.-8      	; 0xaee <sendMessage+0x1da>
     af6:	00 c0       	rjmp	.+0      	; 0xaf8 <sendMessage+0x1e4>
     af8:	00 00       	nop
     afa:	0f 5f       	subi	r16, 0xFF	; 255
     afc:	1f 4f       	sbci	r17, 0xFF	; 255
     afe:	f7 01       	movw	r30, r14
     b00:	e0 0f       	add	r30, r16
     b02:	f1 1f       	adc	r31, r17
     b04:	80 81       	ld	r24, Z
     b06:	81 11       	cpse	r24, r1
     b08:	ed cf       	rjmp	.-38     	; 0xae4 <sendMessage+0x1d0>
     b0a:	2f ef       	ldi	r18, 0xFF	; 255
     b0c:	81 ee       	ldi	r24, 0xE1	; 225
     b0e:	94 e0       	ldi	r25, 0x04	; 4
     b10:	21 50       	subi	r18, 0x01	; 1
     b12:	80 40       	sbci	r24, 0x00	; 0
     b14:	90 40       	sbci	r25, 0x00	; 0
     b16:	e1 f7       	brne	.-8      	; 0xb10 <sendMessage+0x1fc>
     b18:	00 c0       	rjmp	.+0      	; 0xb1a <sendMessage+0x206>
     b1a:	00 00       	nop
     b1c:	0e 94 b8 01 	call	0x370	; 0x370 <LCD_Clear>
     b20:	4e e7       	ldi	r20, 0x7E	; 126
     b22:	50 e0       	ldi	r21, 0x00	; 0
     b24:	60 e0       	ldi	r22, 0x00	; 0
     b26:	81 e0       	ldi	r24, 0x01	; 1
     b28:	0e 94 a0 01 	call	0x340	; 0x340 <LCD_String_xy>
     b2c:	2f ef       	ldi	r18, 0xFF	; 255
     b2e:	8d e3       	ldi	r24, 0x3D	; 61
     b30:	99 e4       	ldi	r25, 0x49	; 73
     b32:	21 50       	subi	r18, 0x01	; 1
     b34:	80 40       	sbci	r24, 0x00	; 0
     b36:	90 40       	sbci	r25, 0x00	; 0
     b38:	e1 f7       	brne	.-8      	; 0xb32 <sendMessage+0x21e>
     b3a:	00 c0       	rjmp	.+0      	; 0xb3c <sendMessage+0x228>
     b3c:	00 00       	nop
     b3e:	0e 94 b8 01 	call	0x370	; 0x370 <LCD_Clear>
     b42:	a3 96       	adiw	r28, 0x23	; 35
     b44:	0f b6       	in	r0, 0x3f	; 63
     b46:	f8 94       	cli
     b48:	de bf       	out	0x3e, r29	; 62
     b4a:	0f be       	out	0x3f, r0	; 63
     b4c:	cd bf       	out	0x3d, r28	; 61
     b4e:	df 91       	pop	r29
     b50:	cf 91       	pop	r28
     b52:	1f 91       	pop	r17
     b54:	0f 91       	pop	r16
     b56:	ff 90       	pop	r15
     b58:	ef 90       	pop	r14
     b5a:	08 95       	ret

00000b5c <ringAlarm>:
     b5c:	82 b3       	in	r24, 0x12	; 18
     b5e:	80 68       	ori	r24, 0x80	; 128
     b60:	82 bb       	out	0x12, r24	; 18
     b62:	08 95       	ret

00000b64 <stopAlarm>:
     b64:	82 b3       	in	r24, 0x12	; 18
     b66:	8f 77       	andi	r24, 0x7F	; 127
     b68:	82 bb       	out	0x12, r24	; 18
     b6a:	08 95       	ret

00000b6c <onHazardLight>:
     b6c:	85 b3       	in	r24, 0x15	; 21
     b6e:	81 60       	ori	r24, 0x01	; 1
     b70:	85 bb       	out	0x15, r24	; 21
     b72:	08 95       	ret

00000b74 <offHazardLight>:
     b74:	85 b3       	in	r24, 0x15	; 21
     b76:	8e 7f       	andi	r24, 0xFE	; 254
     b78:	85 bb       	out	0x15, r24	; 21
     b7a:	08 95       	ret

00000b7c <PWM_init>:
	//function to play radio
}
void PWM_init(){
	/*set fast PWM mode with non-inverted output*/
	TCCR0 = (1<<WGM00) | (1<<WGM01) | (1<<COM01) | (1<<CS00);
     b7c:	89 e6       	ldi	r24, 0x69	; 105
     b7e:	83 bf       	out	0x33, r24	; 51
	DDRB|=(1<<PB3);  /*set OC0 pin as output*/
     b80:	87 b3       	in	r24, 0x17	; 23
     b82:	88 60       	ori	r24, 0x08	; 8
     b84:	87 bb       	out	0x17, r24	; 23
     b86:	08 95       	ret

00000b88 <main>:
void stopAlarm();
void onHazardLight();
void playRadio();
void PWM_init();
void offHazardLight();
int main(void){
     b88:	cf 93       	push	r28
     b8a:	df 93       	push	r29
     b8c:	00 d0       	rcall	.+0      	; 0xb8e <main+0x6>
     b8e:	00 d0       	rcall	.+0      	; 0xb90 <main+0x8>
     b90:	1f 92       	push	r1
     b92:	cd b7       	in	r28, 0x3d	; 61
     b94:	de b7       	in	r29, 0x3e	; 62
	start:
	GGA_Index=0;
     b96:	10 92 a9 01 	sts	0x01A9, r1	; 0x8001a9 <GGA_Index+0x1>
     b9a:	10 92 a8 01 	sts	0x01A8, r1	; 0x8001a8 <GGA_Index>
	setOutput(PORTC,led);
     b9e:	85 b3       	in	r24, 0x15	; 21
     ba0:	81 60       	ori	r24, 0x01	; 1
     ba2:	85 bb       	out	0x15, r24	; 21
	setOutput(PORTD,buzzer);
     ba4:	82 b3       	in	r24, 0x12	; 18
     ba6:	80 68       	ori	r24, 0x80	; 128
     ba8:	82 bb       	out	0x12, r24	; 18
	LCD_Init();
     baa:	0e 94 6f 01 	call	0x2de	; 0x2de <LCD_Init>
	#else
		//round up by default
		__ticks_dc = (uint32_t)(ceil(fabs(__tmp)));
	#endif

	__builtin_avr_delay_cycles(__ticks_dc);
     bae:	2f ef       	ldi	r18, 0xFF	; 255
     bb0:	3d e3       	ldi	r19, 0x3D	; 61
     bb2:	49 e4       	ldi	r20, 0x49	; 73
     bb4:	21 50       	subi	r18, 0x01	; 1
     bb6:	30 40       	sbci	r19, 0x00	; 0
     bb8:	40 40       	sbci	r20, 0x00	; 0
     bba:	e1 f7       	brne	.-8      	; 0xbb4 <main+0x2c>
     bbc:	00 c0       	rjmp	.+0      	; 0xbbe <main+0x36>
     bbe:	00 00       	nop
	_delay_ms(3000);/* wait for GPS receiver to initialize */
	USART_initialize(9600); /* GSM */
     bc0:	60 e8       	ldi	r22, 0x80	; 128
     bc2:	75 e2       	ldi	r23, 0x25	; 37
     bc4:	80 e0       	ldi	r24, 0x00	; 0
     bc6:	90 e0       	ldi	r25, 0x00	; 0
     bc8:	0e 94 7c 04 	call	0x8f8	; 0x8f8 <USART_initialize>
	USART_Init(9600);/* GPS */
     bcc:	60 e8       	ldi	r22, 0x80	; 128
     bce:	75 e2       	ldi	r23, 0x25	; 37
     bd0:	80 e0       	ldi	r24, 0x00	; 0
     bd2:	90 e0       	ldi	r25, 0x00	; 0
     bd4:	0e 94 da 06 	call	0xdb4	; 0xdb4 <USART_Init>
	ADC_Init();
     bd8:	0e 94 bc 01 	call	0x378	; 0x378 <ADC_Init>
	sei();
     bdc:	78 94       	sei
	I2C_Init();
     bde:	0e 94 e4 00 	call	0x1c8	; 0x1c8 <I2C_Init>
	PWM_init();
     be2:	0e 94 be 05 	call	0xb7c	; 0xb7c <PWM_init>
	MPU6050_Init();
     be6:	0e 94 0d 03 	call	0x61a	; 0x61a <MPU6050_Init>
	LCD_Clear();
     bea:	0e 94 b8 01 	call	0x370	; 0x370 <LCD_Clear>
	float Xa,Ya,Za;
	while (1){
		//flame detection
		if(pinRead(PINC,flame)==0x10){
     bee:	9c 9b       	sbis	0x13, 4	; 19
     bf0:	24 c0       	rjmp	.+72     	; 0xc3a <main+0xb2>
			ringAlarm();onHazardLight();
     bf2:	0e 94 ae 05 	call	0xb5c	; 0xb5c <ringAlarm>
     bf6:	0e 94 b6 05 	call	0xb6c	; 0xb6c <onHazardLight>
     bfa:	8f ef       	ldi	r24, 0xFF	; 255
     bfc:	99 e6       	ldi	r25, 0x69	; 105
     bfe:	28 e1       	ldi	r18, 0x18	; 24
     c00:	81 50       	subi	r24, 0x01	; 1
     c02:	90 40       	sbci	r25, 0x00	; 0
     c04:	20 40       	sbci	r18, 0x00	; 0
     c06:	e1 f7       	brne	.-8      	; 0xc00 <main+0x78>
     c08:	00 c0       	rjmp	.+0      	; 0xc0a <main+0x82>
     c0a:	00 00       	nop
			_delay_ms(1000);
			stopAlarm();offHazardLight();
     c0c:	0e 94 b2 05 	call	0xb64	; 0xb64 <stopAlarm>
     c10:	0e 94 ba 05 	call	0xb74	; 0xb74 <offHazardLight>
			LCD_String("Flame Detected !");
     c14:	80 ea       	ldi	r24, 0xA0	; 160
     c16:	90 e0       	ldi	r25, 0x00	; 0
     c18:	0e 94 8a 01 	call	0x314	; 0x314 <LCD_String>
			getAllValuesGps();
     c1c:	0e 94 8a 02 	call	0x514	; 0x514 <getAllValuesGps>
			LCD_String(Altitude_Buffer);
     c20:	84 ed       	ldi	r24, 0xD4	; 212
     c22:	91 e0       	ldi	r25, 0x01	; 1
     c24:	0e 94 8a 01 	call	0x314	; 0x314 <LCD_String>
			LCD_String(degrees_buffer);
     c28:	8b e7       	ldi	r24, 0x7B	; 123
     c2a:	91 e0       	ldi	r25, 0x01	; 1
     c2c:	0e 94 8a 01 	call	0x314	; 0x314 <LCD_String>
			sendMessage("Flame Detected");
     c30:	81 eb       	ldi	r24, 0xB1	; 177
     c32:	90 e0       	ldi	r25, 0x00	; 0
     c34:	0e 94 8a 04 	call	0x914	; 0x914 <sendMessage>
     c38:	da cf       	rjmp	.-76     	; 0xbee <main+0x66>
		}//if end
		else{
			//set wheel speed vehicle
			int val=ADC_Read(0);
     c3a:	80 e0       	ldi	r24, 0x00	; 0
     c3c:	0e 94 c4 01 	call	0x388	; 0x388 <ADC_Read>
			float speed=(val/1024.0)*255.0;
     c40:	bc 01       	movw	r22, r24
     c42:	99 0f       	add	r25, r25
     c44:	88 0b       	sbc	r24, r24
     c46:	99 0b       	sbc	r25, r25
     c48:	0e 94 00 08 	call	0x1000	; 0x1000 <__floatsisf>
     c4c:	20 e0       	ldi	r18, 0x00	; 0
     c4e:	30 e0       	ldi	r19, 0x00	; 0
     c50:	40 e8       	ldi	r20, 0x80	; 128
     c52:	5a e3       	ldi	r21, 0x3A	; 58
     c54:	0e 94 b5 08 	call	0x116a	; 0x116a <__mulsf3>
     c58:	20 e0       	ldi	r18, 0x00	; 0
     c5a:	30 e0       	ldi	r19, 0x00	; 0
     c5c:	4f e7       	ldi	r20, 0x7F	; 127
     c5e:	53 e4       	ldi	r21, 0x43	; 67
     c60:	0e 94 b5 08 	call	0x116a	; 0x116a <__mulsf3>
			OCR0=(int)speed;
     c64:	0e 94 c8 07 	call	0xf90	; 0xf90 <__fixsfsi>
     c68:	86 2f       	mov	r24, r22
     c6a:	97 2f       	mov	r25, r23
     c6c:	6c 01       	movw	r12, r24
     c6e:	6c bf       	out	0x3c, r22	; 60
			//get pressure
			int value = ADC_Read(1);
     c70:	81 e0       	ldi	r24, 0x01	; 1
     c72:	0e 94 c4 01 	call	0x388	; 0x388 <ADC_Read>
			if (value > 107){// if value gt 107 vehicle is moving
     c76:	8c 36       	cpi	r24, 0x6C	; 108
     c78:	91 05       	cpc	r25, r1
     c7a:	0c f4       	brge	.+2      	; 0xc7e <main+0xf6>
     c7c:	b8 cf       	rjmp	.-144    	; 0xbee <main+0x66>
				//get gyroscope values;
				Read_RawValue();
     c7e:	0e 94 58 03 	call	0x6b0	; 0x6b0 <Read_RawValue>
				Xa = (Acc_x/16384.0)*9.8066;
     c82:	20 e0       	ldi	r18, 0x00	; 0
     c84:	30 e0       	ldi	r19, 0x00	; 0
     c86:	40 e8       	ldi	r20, 0x80	; 128
     c88:	58 e3       	ldi	r21, 0x38	; 56
     c8a:	60 91 a2 01 	lds	r22, 0x01A2	; 0x8001a2 <Acc_x>
     c8e:	70 91 a3 01 	lds	r23, 0x01A3	; 0x8001a3 <Acc_x+0x1>
     c92:	80 91 a4 01 	lds	r24, 0x01A4	; 0x8001a4 <Acc_x+0x2>
     c96:	90 91 a5 01 	lds	r25, 0x01A5	; 0x8001a5 <Acc_x+0x3>
     c9a:	0e 94 b5 08 	call	0x116a	; 0x116a <__mulsf3>
     c9e:	25 ed       	ldi	r18, 0xD5	; 213
     ca0:	37 ee       	ldi	r19, 0xE7	; 231
     ca2:	4c e1       	ldi	r20, 0x1C	; 28
     ca4:	51 e4       	ldi	r21, 0x41	; 65
     ca6:	0e 94 b5 08 	call	0x116a	; 0x116a <__mulsf3>
     caa:	4b 01       	movw	r8, r22
     cac:	5c 01       	movw	r10, r24
				Ya = (Acc_y/16384.0)*9.8066;
     cae:	20 e0       	ldi	r18, 0x00	; 0
     cb0:	30 e0       	ldi	r19, 0x00	; 0
     cb2:	40 e8       	ldi	r20, 0x80	; 128
     cb4:	58 e3       	ldi	r21, 0x38	; 56
     cb6:	60 91 77 01 	lds	r22, 0x0177	; 0x800177 <Acc_y>
     cba:	70 91 78 01 	lds	r23, 0x0178	; 0x800178 <Acc_y+0x1>
     cbe:	80 91 79 01 	lds	r24, 0x0179	; 0x800179 <Acc_y+0x2>
     cc2:	90 91 7a 01 	lds	r25, 0x017A	; 0x80017a <Acc_y+0x3>
     cc6:	0e 94 b5 08 	call	0x116a	; 0x116a <__mulsf3>
     cca:	25 ed       	ldi	r18, 0xD5	; 213
     ccc:	37 ee       	ldi	r19, 0xE7	; 231
     cce:	4c e1       	ldi	r20, 0x1C	; 28
     cd0:	51 e4       	ldi	r21, 0x41	; 65
     cd2:	0e 94 b5 08 	call	0x116a	; 0x116a <__mulsf3>
     cd6:	2b 01       	movw	r4, r22
     cd8:	3c 01       	movw	r6, r24
				Za = (Acc_z/16384.0)*9.8066;
     cda:	20 e0       	ldi	r18, 0x00	; 0
     cdc:	30 e0       	ldi	r19, 0x00	; 0
     cde:	40 e8       	ldi	r20, 0x80	; 128
     ce0:	58 e3       	ldi	r21, 0x38	; 56
     ce2:	60 91 d5 00 	lds	r22, 0x00D5	; 0x8000d5 <Acc_z>
     ce6:	70 91 d6 00 	lds	r23, 0x00D6	; 0x8000d6 <Acc_z+0x1>
     cea:	80 91 d7 00 	lds	r24, 0x00D7	; 0x8000d7 <Acc_z+0x2>
     cee:	90 91 d8 00 	lds	r25, 0x00D8	; 0x8000d8 <Acc_z+0x3>
     cf2:	0e 94 b5 08 	call	0x116a	; 0x116a <__mulsf3>
     cf6:	25 ed       	ldi	r18, 0xD5	; 213
     cf8:	37 ee       	ldi	r19, 0xE7	; 231
     cfa:	4c e1       	ldi	r20, 0x1C	; 28
     cfc:	51 e4       	ldi	r21, 0x41	; 65
     cfe:	0e 94 b5 08 	call	0x116a	; 0x116a <__mulsf3>
				if(pinRead(PINC,alcohol)==0x20){//alcohol detection
     d02:	23 b3       	in	r18, 0x13	; 19
					getAllValuesGps();
					LCD_String(Altitude_Buffer);
					LCD_String(degrees_buffer);
					sendMessage("Alcohol Detected");
				}//if end
				else if(1 && isDriverSleepingGyro(Xa,Ya,Za)){//alcohol not detected  //1 ==> IR Detection                     
     d04:	7b 01       	movw	r14, r22
     d06:	8c 01       	movw	r16, r24
     d08:	a3 01       	movw	r20, r6
     d0a:	92 01       	movw	r18, r4
     d0c:	c5 01       	movw	r24, r10
     d0e:	b4 01       	movw	r22, r8
     d10:	0e 94 09 04 	call	0x812	; 0x812 <isDriverSleepingGyro>
     d14:	89 2b       	or	r24, r25
     d16:	09 f4       	brne	.+2      	; 0xd1a <main+0x192>
     d18:	6a cf       	rjmp	.-300    	; 0xbee <main+0x66>
						ringAlarm();onHazardLight();
     d1a:	0e 94 ae 05 	call	0xb5c	; 0xb5c <ringAlarm>
     d1e:	0e 94 b6 05 	call	0xb6c	; 0xb6c <onHazardLight>
						for(int i=1;i<=5;i++){
     d22:	81 e0       	ldi	r24, 0x01	; 1
     d24:	90 e0       	ldi	r25, 0x00	; 0
     d26:	11 c0       	rjmp	.+34     	; 0xd4a <main+0x1c2>
							if(pinRead(PINC,3)==0x08){//if button not pressed
     d28:	9b 9b       	sbis	0x13, 3	; 19
     d2a:	05 c0       	rjmp	.+10     	; 0xd36 <main+0x1ae>
								stopAlarm();offHazardLight();
     d2c:	0e 94 b2 05 	call	0xb64	; 0xb64 <stopAlarm>
     d30:	0e 94 ba 05 	call	0xb74	; 0xb74 <offHazardLight>
								goto start;
     d34:	30 cf       	rjmp	.-416    	; 0xb96 <main+0xe>
     d36:	3f ef       	ldi	r19, 0xFF	; 255
     d38:	49 e6       	ldi	r20, 0x69	; 105
     d3a:	28 e1       	ldi	r18, 0x18	; 24
     d3c:	31 50       	subi	r19, 0x01	; 1
     d3e:	40 40       	sbci	r20, 0x00	; 0
     d40:	20 40       	sbci	r18, 0x00	; 0
     d42:	e1 f7       	brne	.-8      	; 0xd3c <main+0x1b4>
     d44:	00 c0       	rjmp	.+0      	; 0xd46 <main+0x1be>
     d46:	00 00       	nop
					LCD_String(degrees_buffer);
					sendMessage("Alcohol Detected");
				}//if end
				else if(1 && isDriverSleepingGyro(Xa,Ya,Za)){//alcohol not detected  //1 ==> IR Detection                     
						ringAlarm();onHazardLight();
						for(int i=1;i<=5;i++){
     d48:	01 96       	adiw	r24, 0x01	; 1
     d4a:	86 30       	cpi	r24, 0x06	; 6
     d4c:	91 05       	cpc	r25, r1
     d4e:	64 f3       	brlt	.-40     	; 0xd28 <main+0x1a0>
								stopAlarm();offHazardLight();
								goto start;
							}//button if end
							_delay_ms(1000);
						}//for loop end
						LCD_String("Sleeping");
     d50:	8a ec       	ldi	r24, 0xCA	; 202
     d52:	90 e0       	ldi	r25, 0x00	; 0
     d54:	0e 94 8a 01 	call	0x314	; 0x314 <LCD_String>
						getAllValuesGps();
     d58:	0e 94 8a 02 	call	0x514	; 0x514 <getAllValuesGps>
						LCD_String(Altitude_Buffer);
     d5c:	84 ed       	ldi	r24, 0xD4	; 212
     d5e:	91 e0       	ldi	r25, 0x01	; 1
     d60:	0e 94 8a 01 	call	0x314	; 0x314 <LCD_String>
						LCD_String(degrees_buffer);
     d64:	8b e7       	ldi	r24, 0x7B	; 123
     d66:	91 e0       	ldi	r25, 0x01	; 1
     d68:	0e 94 8a 01 	call	0x314	; 0x314 <LCD_String>
						sendMessage("Driver is Sleeping");
     d6c:	80 ec       	ldi	r24, 0xC0	; 192
     d6e:	90 e0       	ldi	r25, 0x00	; 0
     d70:	0e 94 8a 04 	call	0x914	; 0x914 <sendMessage>
						playRadio();
						//reduce speed of the vehicle
						for(int i=(int)speed;i>=20;i--){
     d74:	1a c0       	rjmp	.+52     	; 0xdaa <main+0x222>
    } else if (__radix < 2 || __radix > 36) {
	*__s = 0;
	return __s;
    } else {
	extern char *__itoa_ncheck (int, char *, unsigned char);
	return __itoa_ncheck (__val, __s, __radix);
     d76:	4a e0       	ldi	r20, 0x0A	; 10
     d78:	be 01       	movw	r22, r28
     d7a:	6f 5f       	subi	r22, 0xFF	; 255
     d7c:	7f 4f       	sbci	r23, 0xFF	; 255
     d7e:	c6 01       	movw	r24, r12
     d80:	0e 94 46 09 	call	0x128c	; 0x128c <__itoa_ncheck>
							char c[5];
							itoa(i,c,10);
							LCD_String(c);
     d84:	ce 01       	movw	r24, r28
     d86:	01 96       	adiw	r24, 0x01	; 1
     d88:	0e 94 8a 01 	call	0x314	; 0x314 <LCD_String>
							OCR0=i;
     d8c:	cc be       	out	0x3c, r12	; 60
     d8e:	3f ef       	ldi	r19, 0xFF	; 255
     d90:	40 e7       	ldi	r20, 0x70	; 112
     d92:	82 e0       	ldi	r24, 0x02	; 2
     d94:	31 50       	subi	r19, 0x01	; 1
     d96:	40 40       	sbci	r20, 0x00	; 0
     d98:	80 40       	sbci	r24, 0x00	; 0
     d9a:	e1 f7       	brne	.-8      	; 0xd94 <main+0x20c>
     d9c:	00 c0       	rjmp	.+0      	; 0xd9e <main+0x216>
     d9e:	00 00       	nop
							_delay_ms(100);
							LCD_Clear();
     da0:	0e 94 b8 01 	call	0x370	; 0x370 <LCD_Clear>
						LCD_String(Altitude_Buffer);
						LCD_String(degrees_buffer);
						sendMessage("Driver is Sleeping");
						playRadio();
						//reduce speed of the vehicle
						for(int i=(int)speed;i>=20;i--){
     da4:	91 e0       	ldi	r25, 0x01	; 1
     da6:	c9 1a       	sub	r12, r25
     da8:	d1 08       	sbc	r13, r1
     daa:	24 e1       	ldi	r18, 0x14	; 20
     dac:	c2 16       	cp	r12, r18
     dae:	d1 04       	cpc	r13, r1
     db0:	14 f7       	brge	.-60     	; 0xd76 <main+0x1ee>
     db2:	ff cf       	rjmp	.-2      	; 0xdb2 <main+0x22a>

00000db4 <USART_Init>:

#include "USART_Interrupt.h"

void USART_Init(unsigned long BAUDRATE)				/* USART initialize function */
{
	UCSRB |= (1 << RXEN) | (1 << TXEN) | (1 << RXCIE);				/* Enable USART transmitter and receiver */
     db4:	8a b1       	in	r24, 0x0a	; 10
     db6:	88 69       	ori	r24, 0x98	; 152
     db8:	8a b9       	out	0x0a, r24	; 10
	UCSRC |= (1 << URSEL)| (1 << UCSZ0) | (1 << UCSZ1);	/* Write USCRC for 8 bit data and 1 stop bit */
     dba:	80 b5       	in	r24, 0x20	; 32
     dbc:	86 68       	ori	r24, 0x86	; 134
     dbe:	80 bd       	out	0x20, r24	; 32
	UBRRL = BAUD_PRESCALE;							/* Load UBRRL with lower 8 bit of prescale value */
     dc0:	83 e3       	ldi	r24, 0x33	; 51
     dc2:	89 b9       	out	0x09, r24	; 9
	UBRRH = (BAUD_PRESCALE >> 8);					/* Load UBRRH with upper 8 bit of prescale value */
     dc4:	10 bc       	out	0x20, r1	; 32
     dc6:	08 95       	ret

00000dc8 <__subsf3>:
     dc8:	50 58       	subi	r21, 0x80	; 128

00000dca <__addsf3>:
     dca:	bb 27       	eor	r27, r27
     dcc:	aa 27       	eor	r26, r26
     dce:	0e 94 fc 06 	call	0xdf8	; 0xdf8 <__addsf3x>
     dd2:	0c 94 76 08 	jmp	0x10ec	; 0x10ec <__fp_round>
     dd6:	0e 94 68 08 	call	0x10d0	; 0x10d0 <__fp_pscA>
     dda:	38 f0       	brcs	.+14     	; 0xdea <__addsf3+0x20>
     ddc:	0e 94 6f 08 	call	0x10de	; 0x10de <__fp_pscB>
     de0:	20 f0       	brcs	.+8      	; 0xdea <__addsf3+0x20>
     de2:	39 f4       	brne	.+14     	; 0xdf2 <__addsf3+0x28>
     de4:	9f 3f       	cpi	r25, 0xFF	; 255
     de6:	19 f4       	brne	.+6      	; 0xdee <__addsf3+0x24>
     de8:	26 f4       	brtc	.+8      	; 0xdf2 <__addsf3+0x28>
     dea:	0c 94 65 08 	jmp	0x10ca	; 0x10ca <__fp_nan>
     dee:	0e f4       	brtc	.+2      	; 0xdf2 <__addsf3+0x28>
     df0:	e0 95       	com	r30
     df2:	e7 fb       	bst	r30, 7
     df4:	0c 94 5f 08 	jmp	0x10be	; 0x10be <__fp_inf>

00000df8 <__addsf3x>:
     df8:	e9 2f       	mov	r30, r25
     dfa:	0e 94 87 08 	call	0x110e	; 0x110e <__fp_split3>
     dfe:	58 f3       	brcs	.-42     	; 0xdd6 <__addsf3+0xc>
     e00:	ba 17       	cp	r27, r26
     e02:	62 07       	cpc	r22, r18
     e04:	73 07       	cpc	r23, r19
     e06:	84 07       	cpc	r24, r20
     e08:	95 07       	cpc	r25, r21
     e0a:	20 f0       	brcs	.+8      	; 0xe14 <__addsf3x+0x1c>
     e0c:	79 f4       	brne	.+30     	; 0xe2c <__addsf3x+0x34>
     e0e:	a6 f5       	brtc	.+104    	; 0xe78 <__addsf3x+0x80>
     e10:	0c 94 a9 08 	jmp	0x1152	; 0x1152 <__fp_zero>
     e14:	0e f4       	brtc	.+2      	; 0xe18 <__addsf3x+0x20>
     e16:	e0 95       	com	r30
     e18:	0b 2e       	mov	r0, r27
     e1a:	ba 2f       	mov	r27, r26
     e1c:	a0 2d       	mov	r26, r0
     e1e:	0b 01       	movw	r0, r22
     e20:	b9 01       	movw	r22, r18
     e22:	90 01       	movw	r18, r0
     e24:	0c 01       	movw	r0, r24
     e26:	ca 01       	movw	r24, r20
     e28:	a0 01       	movw	r20, r0
     e2a:	11 24       	eor	r1, r1
     e2c:	ff 27       	eor	r31, r31
     e2e:	59 1b       	sub	r21, r25
     e30:	99 f0       	breq	.+38     	; 0xe58 <__addsf3x+0x60>
     e32:	59 3f       	cpi	r21, 0xF9	; 249
     e34:	50 f4       	brcc	.+20     	; 0xe4a <__addsf3x+0x52>
     e36:	50 3e       	cpi	r21, 0xE0	; 224
     e38:	68 f1       	brcs	.+90     	; 0xe94 <__addsf3x+0x9c>
     e3a:	1a 16       	cp	r1, r26
     e3c:	f0 40       	sbci	r31, 0x00	; 0
     e3e:	a2 2f       	mov	r26, r18
     e40:	23 2f       	mov	r18, r19
     e42:	34 2f       	mov	r19, r20
     e44:	44 27       	eor	r20, r20
     e46:	58 5f       	subi	r21, 0xF8	; 248
     e48:	f3 cf       	rjmp	.-26     	; 0xe30 <__addsf3x+0x38>
     e4a:	46 95       	lsr	r20
     e4c:	37 95       	ror	r19
     e4e:	27 95       	ror	r18
     e50:	a7 95       	ror	r26
     e52:	f0 40       	sbci	r31, 0x00	; 0
     e54:	53 95       	inc	r21
     e56:	c9 f7       	brne	.-14     	; 0xe4a <__addsf3x+0x52>
     e58:	7e f4       	brtc	.+30     	; 0xe78 <__addsf3x+0x80>
     e5a:	1f 16       	cp	r1, r31
     e5c:	ba 0b       	sbc	r27, r26
     e5e:	62 0b       	sbc	r22, r18
     e60:	73 0b       	sbc	r23, r19
     e62:	84 0b       	sbc	r24, r20
     e64:	ba f0       	brmi	.+46     	; 0xe94 <__addsf3x+0x9c>
     e66:	91 50       	subi	r25, 0x01	; 1
     e68:	a1 f0       	breq	.+40     	; 0xe92 <__addsf3x+0x9a>
     e6a:	ff 0f       	add	r31, r31
     e6c:	bb 1f       	adc	r27, r27
     e6e:	66 1f       	adc	r22, r22
     e70:	77 1f       	adc	r23, r23
     e72:	88 1f       	adc	r24, r24
     e74:	c2 f7       	brpl	.-16     	; 0xe66 <__addsf3x+0x6e>
     e76:	0e c0       	rjmp	.+28     	; 0xe94 <__addsf3x+0x9c>
     e78:	ba 0f       	add	r27, r26
     e7a:	62 1f       	adc	r22, r18
     e7c:	73 1f       	adc	r23, r19
     e7e:	84 1f       	adc	r24, r20
     e80:	48 f4       	brcc	.+18     	; 0xe94 <__addsf3x+0x9c>
     e82:	87 95       	ror	r24
     e84:	77 95       	ror	r23
     e86:	67 95       	ror	r22
     e88:	b7 95       	ror	r27
     e8a:	f7 95       	ror	r31
     e8c:	9e 3f       	cpi	r25, 0xFE	; 254
     e8e:	08 f0       	brcs	.+2      	; 0xe92 <__addsf3x+0x9a>
     e90:	b0 cf       	rjmp	.-160    	; 0xdf2 <__addsf3+0x28>
     e92:	93 95       	inc	r25
     e94:	88 0f       	add	r24, r24
     e96:	08 f0       	brcs	.+2      	; 0xe9a <__addsf3x+0xa2>
     e98:	99 27       	eor	r25, r25
     e9a:	ee 0f       	add	r30, r30
     e9c:	97 95       	ror	r25
     e9e:	87 95       	ror	r24
     ea0:	08 95       	ret

00000ea2 <__cmpsf2>:
     ea2:	0e 94 3b 08 	call	0x1076	; 0x1076 <__fp_cmp>
     ea6:	08 f4       	brcc	.+2      	; 0xeaa <__cmpsf2+0x8>
     ea8:	81 e0       	ldi	r24, 0x01	; 1
     eaa:	08 95       	ret

00000eac <__divsf3>:
     eac:	0e 94 6a 07 	call	0xed4	; 0xed4 <__divsf3x>
     eb0:	0c 94 76 08 	jmp	0x10ec	; 0x10ec <__fp_round>
     eb4:	0e 94 6f 08 	call	0x10de	; 0x10de <__fp_pscB>
     eb8:	58 f0       	brcs	.+22     	; 0xed0 <__divsf3+0x24>
     eba:	0e 94 68 08 	call	0x10d0	; 0x10d0 <__fp_pscA>
     ebe:	40 f0       	brcs	.+16     	; 0xed0 <__divsf3+0x24>
     ec0:	29 f4       	brne	.+10     	; 0xecc <__divsf3+0x20>
     ec2:	5f 3f       	cpi	r21, 0xFF	; 255
     ec4:	29 f0       	breq	.+10     	; 0xed0 <__divsf3+0x24>
     ec6:	0c 94 5f 08 	jmp	0x10be	; 0x10be <__fp_inf>
     eca:	51 11       	cpse	r21, r1
     ecc:	0c 94 aa 08 	jmp	0x1154	; 0x1154 <__fp_szero>
     ed0:	0c 94 65 08 	jmp	0x10ca	; 0x10ca <__fp_nan>

00000ed4 <__divsf3x>:
     ed4:	0e 94 87 08 	call	0x110e	; 0x110e <__fp_split3>
     ed8:	68 f3       	brcs	.-38     	; 0xeb4 <__divsf3+0x8>

00000eda <__divsf3_pse>:
     eda:	99 23       	and	r25, r25
     edc:	b1 f3       	breq	.-20     	; 0xeca <__divsf3+0x1e>
     ede:	55 23       	and	r21, r21
     ee0:	91 f3       	breq	.-28     	; 0xec6 <__divsf3+0x1a>
     ee2:	95 1b       	sub	r25, r21
     ee4:	55 0b       	sbc	r21, r21
     ee6:	bb 27       	eor	r27, r27
     ee8:	aa 27       	eor	r26, r26
     eea:	62 17       	cp	r22, r18
     eec:	73 07       	cpc	r23, r19
     eee:	84 07       	cpc	r24, r20
     ef0:	38 f0       	brcs	.+14     	; 0xf00 <__divsf3_pse+0x26>
     ef2:	9f 5f       	subi	r25, 0xFF	; 255
     ef4:	5f 4f       	sbci	r21, 0xFF	; 255
     ef6:	22 0f       	add	r18, r18
     ef8:	33 1f       	adc	r19, r19
     efa:	44 1f       	adc	r20, r20
     efc:	aa 1f       	adc	r26, r26
     efe:	a9 f3       	breq	.-22     	; 0xeea <__divsf3_pse+0x10>
     f00:	35 d0       	rcall	.+106    	; 0xf6c <__divsf3_pse+0x92>
     f02:	0e 2e       	mov	r0, r30
     f04:	3a f0       	brmi	.+14     	; 0xf14 <__divsf3_pse+0x3a>
     f06:	e0 e8       	ldi	r30, 0x80	; 128
     f08:	32 d0       	rcall	.+100    	; 0xf6e <__divsf3_pse+0x94>
     f0a:	91 50       	subi	r25, 0x01	; 1
     f0c:	50 40       	sbci	r21, 0x00	; 0
     f0e:	e6 95       	lsr	r30
     f10:	00 1c       	adc	r0, r0
     f12:	ca f7       	brpl	.-14     	; 0xf06 <__divsf3_pse+0x2c>
     f14:	2b d0       	rcall	.+86     	; 0xf6c <__divsf3_pse+0x92>
     f16:	fe 2f       	mov	r31, r30
     f18:	29 d0       	rcall	.+82     	; 0xf6c <__divsf3_pse+0x92>
     f1a:	66 0f       	add	r22, r22
     f1c:	77 1f       	adc	r23, r23
     f1e:	88 1f       	adc	r24, r24
     f20:	bb 1f       	adc	r27, r27
     f22:	26 17       	cp	r18, r22
     f24:	37 07       	cpc	r19, r23
     f26:	48 07       	cpc	r20, r24
     f28:	ab 07       	cpc	r26, r27
     f2a:	b0 e8       	ldi	r27, 0x80	; 128
     f2c:	09 f0       	breq	.+2      	; 0xf30 <__divsf3_pse+0x56>
     f2e:	bb 0b       	sbc	r27, r27
     f30:	80 2d       	mov	r24, r0
     f32:	bf 01       	movw	r22, r30
     f34:	ff 27       	eor	r31, r31
     f36:	93 58       	subi	r25, 0x83	; 131
     f38:	5f 4f       	sbci	r21, 0xFF	; 255
     f3a:	3a f0       	brmi	.+14     	; 0xf4a <__divsf3_pse+0x70>
     f3c:	9e 3f       	cpi	r25, 0xFE	; 254
     f3e:	51 05       	cpc	r21, r1
     f40:	78 f0       	brcs	.+30     	; 0xf60 <__divsf3_pse+0x86>
     f42:	0c 94 5f 08 	jmp	0x10be	; 0x10be <__fp_inf>
     f46:	0c 94 aa 08 	jmp	0x1154	; 0x1154 <__fp_szero>
     f4a:	5f 3f       	cpi	r21, 0xFF	; 255
     f4c:	e4 f3       	brlt	.-8      	; 0xf46 <__divsf3_pse+0x6c>
     f4e:	98 3e       	cpi	r25, 0xE8	; 232
     f50:	d4 f3       	brlt	.-12     	; 0xf46 <__divsf3_pse+0x6c>
     f52:	86 95       	lsr	r24
     f54:	77 95       	ror	r23
     f56:	67 95       	ror	r22
     f58:	b7 95       	ror	r27
     f5a:	f7 95       	ror	r31
     f5c:	9f 5f       	subi	r25, 0xFF	; 255
     f5e:	c9 f7       	brne	.-14     	; 0xf52 <__divsf3_pse+0x78>
     f60:	88 0f       	add	r24, r24
     f62:	91 1d       	adc	r25, r1
     f64:	96 95       	lsr	r25
     f66:	87 95       	ror	r24
     f68:	97 f9       	bld	r25, 7
     f6a:	08 95       	ret
     f6c:	e1 e0       	ldi	r30, 0x01	; 1
     f6e:	66 0f       	add	r22, r22
     f70:	77 1f       	adc	r23, r23
     f72:	88 1f       	adc	r24, r24
     f74:	bb 1f       	adc	r27, r27
     f76:	62 17       	cp	r22, r18
     f78:	73 07       	cpc	r23, r19
     f7a:	84 07       	cpc	r24, r20
     f7c:	ba 07       	cpc	r27, r26
     f7e:	20 f0       	brcs	.+8      	; 0xf88 <__divsf3_pse+0xae>
     f80:	62 1b       	sub	r22, r18
     f82:	73 0b       	sbc	r23, r19
     f84:	84 0b       	sbc	r24, r20
     f86:	ba 0b       	sbc	r27, r26
     f88:	ee 1f       	adc	r30, r30
     f8a:	88 f7       	brcc	.-30     	; 0xf6e <__divsf3_pse+0x94>
     f8c:	e0 95       	com	r30
     f8e:	08 95       	ret

00000f90 <__fixsfsi>:
     f90:	0e 94 cf 07 	call	0xf9e	; 0xf9e <__fixunssfsi>
     f94:	68 94       	set
     f96:	b1 11       	cpse	r27, r1
     f98:	0c 94 aa 08 	jmp	0x1154	; 0x1154 <__fp_szero>
     f9c:	08 95       	ret

00000f9e <__fixunssfsi>:
     f9e:	0e 94 8f 08 	call	0x111e	; 0x111e <__fp_splitA>
     fa2:	88 f0       	brcs	.+34     	; 0xfc6 <__fixunssfsi+0x28>
     fa4:	9f 57       	subi	r25, 0x7F	; 127
     fa6:	98 f0       	brcs	.+38     	; 0xfce <__fixunssfsi+0x30>
     fa8:	b9 2f       	mov	r27, r25
     faa:	99 27       	eor	r25, r25
     fac:	b7 51       	subi	r27, 0x17	; 23
     fae:	b0 f0       	brcs	.+44     	; 0xfdc <__fixunssfsi+0x3e>
     fb0:	e1 f0       	breq	.+56     	; 0xfea <__fixunssfsi+0x4c>
     fb2:	66 0f       	add	r22, r22
     fb4:	77 1f       	adc	r23, r23
     fb6:	88 1f       	adc	r24, r24
     fb8:	99 1f       	adc	r25, r25
     fba:	1a f0       	brmi	.+6      	; 0xfc2 <__fixunssfsi+0x24>
     fbc:	ba 95       	dec	r27
     fbe:	c9 f7       	brne	.-14     	; 0xfb2 <__fixunssfsi+0x14>
     fc0:	14 c0       	rjmp	.+40     	; 0xfea <__fixunssfsi+0x4c>
     fc2:	b1 30       	cpi	r27, 0x01	; 1
     fc4:	91 f0       	breq	.+36     	; 0xfea <__fixunssfsi+0x4c>
     fc6:	0e 94 a9 08 	call	0x1152	; 0x1152 <__fp_zero>
     fca:	b1 e0       	ldi	r27, 0x01	; 1
     fcc:	08 95       	ret
     fce:	0c 94 a9 08 	jmp	0x1152	; 0x1152 <__fp_zero>
     fd2:	67 2f       	mov	r22, r23
     fd4:	78 2f       	mov	r23, r24
     fd6:	88 27       	eor	r24, r24
     fd8:	b8 5f       	subi	r27, 0xF8	; 248
     fda:	39 f0       	breq	.+14     	; 0xfea <__fixunssfsi+0x4c>
     fdc:	b9 3f       	cpi	r27, 0xF9	; 249
     fde:	cc f3       	brlt	.-14     	; 0xfd2 <__fixunssfsi+0x34>
     fe0:	86 95       	lsr	r24
     fe2:	77 95       	ror	r23
     fe4:	67 95       	ror	r22
     fe6:	b3 95       	inc	r27
     fe8:	d9 f7       	brne	.-10     	; 0xfe0 <__fixunssfsi+0x42>
     fea:	3e f4       	brtc	.+14     	; 0xffa <__fixunssfsi+0x5c>
     fec:	90 95       	com	r25
     fee:	80 95       	com	r24
     ff0:	70 95       	com	r23
     ff2:	61 95       	neg	r22
     ff4:	7f 4f       	sbci	r23, 0xFF	; 255
     ff6:	8f 4f       	sbci	r24, 0xFF	; 255
     ff8:	9f 4f       	sbci	r25, 0xFF	; 255
     ffa:	08 95       	ret

00000ffc <__floatunsisf>:
     ffc:	e8 94       	clt
     ffe:	09 c0       	rjmp	.+18     	; 0x1012 <__floatsisf+0x12>

00001000 <__floatsisf>:
    1000:	97 fb       	bst	r25, 7
    1002:	3e f4       	brtc	.+14     	; 0x1012 <__floatsisf+0x12>
    1004:	90 95       	com	r25
    1006:	80 95       	com	r24
    1008:	70 95       	com	r23
    100a:	61 95       	neg	r22
    100c:	7f 4f       	sbci	r23, 0xFF	; 255
    100e:	8f 4f       	sbci	r24, 0xFF	; 255
    1010:	9f 4f       	sbci	r25, 0xFF	; 255
    1012:	99 23       	and	r25, r25
    1014:	a9 f0       	breq	.+42     	; 0x1040 <__floatsisf+0x40>
    1016:	f9 2f       	mov	r31, r25
    1018:	96 e9       	ldi	r25, 0x96	; 150
    101a:	bb 27       	eor	r27, r27
    101c:	93 95       	inc	r25
    101e:	f6 95       	lsr	r31
    1020:	87 95       	ror	r24
    1022:	77 95       	ror	r23
    1024:	67 95       	ror	r22
    1026:	b7 95       	ror	r27
    1028:	f1 11       	cpse	r31, r1
    102a:	f8 cf       	rjmp	.-16     	; 0x101c <__floatsisf+0x1c>
    102c:	fa f4       	brpl	.+62     	; 0x106c <__floatsisf+0x6c>
    102e:	bb 0f       	add	r27, r27
    1030:	11 f4       	brne	.+4      	; 0x1036 <__floatsisf+0x36>
    1032:	60 ff       	sbrs	r22, 0
    1034:	1b c0       	rjmp	.+54     	; 0x106c <__floatsisf+0x6c>
    1036:	6f 5f       	subi	r22, 0xFF	; 255
    1038:	7f 4f       	sbci	r23, 0xFF	; 255
    103a:	8f 4f       	sbci	r24, 0xFF	; 255
    103c:	9f 4f       	sbci	r25, 0xFF	; 255
    103e:	16 c0       	rjmp	.+44     	; 0x106c <__floatsisf+0x6c>
    1040:	88 23       	and	r24, r24
    1042:	11 f0       	breq	.+4      	; 0x1048 <__floatsisf+0x48>
    1044:	96 e9       	ldi	r25, 0x96	; 150
    1046:	11 c0       	rjmp	.+34     	; 0x106a <__floatsisf+0x6a>
    1048:	77 23       	and	r23, r23
    104a:	21 f0       	breq	.+8      	; 0x1054 <__floatsisf+0x54>
    104c:	9e e8       	ldi	r25, 0x8E	; 142
    104e:	87 2f       	mov	r24, r23
    1050:	76 2f       	mov	r23, r22
    1052:	05 c0       	rjmp	.+10     	; 0x105e <__floatsisf+0x5e>
    1054:	66 23       	and	r22, r22
    1056:	71 f0       	breq	.+28     	; 0x1074 <__floatsisf+0x74>
    1058:	96 e8       	ldi	r25, 0x86	; 134
    105a:	86 2f       	mov	r24, r22
    105c:	70 e0       	ldi	r23, 0x00	; 0
    105e:	60 e0       	ldi	r22, 0x00	; 0
    1060:	2a f0       	brmi	.+10     	; 0x106c <__floatsisf+0x6c>
    1062:	9a 95       	dec	r25
    1064:	66 0f       	add	r22, r22
    1066:	77 1f       	adc	r23, r23
    1068:	88 1f       	adc	r24, r24
    106a:	da f7       	brpl	.-10     	; 0x1062 <__floatsisf+0x62>
    106c:	88 0f       	add	r24, r24
    106e:	96 95       	lsr	r25
    1070:	87 95       	ror	r24
    1072:	97 f9       	bld	r25, 7
    1074:	08 95       	ret

00001076 <__fp_cmp>:
    1076:	99 0f       	add	r25, r25
    1078:	00 08       	sbc	r0, r0
    107a:	55 0f       	add	r21, r21
    107c:	aa 0b       	sbc	r26, r26
    107e:	e0 e8       	ldi	r30, 0x80	; 128
    1080:	fe ef       	ldi	r31, 0xFE	; 254
    1082:	16 16       	cp	r1, r22
    1084:	17 06       	cpc	r1, r23
    1086:	e8 07       	cpc	r30, r24
    1088:	f9 07       	cpc	r31, r25
    108a:	c0 f0       	brcs	.+48     	; 0x10bc <__fp_cmp+0x46>
    108c:	12 16       	cp	r1, r18
    108e:	13 06       	cpc	r1, r19
    1090:	e4 07       	cpc	r30, r20
    1092:	f5 07       	cpc	r31, r21
    1094:	98 f0       	brcs	.+38     	; 0x10bc <__fp_cmp+0x46>
    1096:	62 1b       	sub	r22, r18
    1098:	73 0b       	sbc	r23, r19
    109a:	84 0b       	sbc	r24, r20
    109c:	95 0b       	sbc	r25, r21
    109e:	39 f4       	brne	.+14     	; 0x10ae <__fp_cmp+0x38>
    10a0:	0a 26       	eor	r0, r26
    10a2:	61 f0       	breq	.+24     	; 0x10bc <__fp_cmp+0x46>
    10a4:	23 2b       	or	r18, r19
    10a6:	24 2b       	or	r18, r20
    10a8:	25 2b       	or	r18, r21
    10aa:	21 f4       	brne	.+8      	; 0x10b4 <__fp_cmp+0x3e>
    10ac:	08 95       	ret
    10ae:	0a 26       	eor	r0, r26
    10b0:	09 f4       	brne	.+2      	; 0x10b4 <__fp_cmp+0x3e>
    10b2:	a1 40       	sbci	r26, 0x01	; 1
    10b4:	a6 95       	lsr	r26
    10b6:	8f ef       	ldi	r24, 0xFF	; 255
    10b8:	81 1d       	adc	r24, r1
    10ba:	81 1d       	adc	r24, r1
    10bc:	08 95       	ret

000010be <__fp_inf>:
    10be:	97 f9       	bld	r25, 7
    10c0:	9f 67       	ori	r25, 0x7F	; 127
    10c2:	80 e8       	ldi	r24, 0x80	; 128
    10c4:	70 e0       	ldi	r23, 0x00	; 0
    10c6:	60 e0       	ldi	r22, 0x00	; 0
    10c8:	08 95       	ret

000010ca <__fp_nan>:
    10ca:	9f ef       	ldi	r25, 0xFF	; 255
    10cc:	80 ec       	ldi	r24, 0xC0	; 192
    10ce:	08 95       	ret

000010d0 <__fp_pscA>:
    10d0:	00 24       	eor	r0, r0
    10d2:	0a 94       	dec	r0
    10d4:	16 16       	cp	r1, r22
    10d6:	17 06       	cpc	r1, r23
    10d8:	18 06       	cpc	r1, r24
    10da:	09 06       	cpc	r0, r25
    10dc:	08 95       	ret

000010de <__fp_pscB>:
    10de:	00 24       	eor	r0, r0
    10e0:	0a 94       	dec	r0
    10e2:	12 16       	cp	r1, r18
    10e4:	13 06       	cpc	r1, r19
    10e6:	14 06       	cpc	r1, r20
    10e8:	05 06       	cpc	r0, r21
    10ea:	08 95       	ret

000010ec <__fp_round>:
    10ec:	09 2e       	mov	r0, r25
    10ee:	03 94       	inc	r0
    10f0:	00 0c       	add	r0, r0
    10f2:	11 f4       	brne	.+4      	; 0x10f8 <__fp_round+0xc>
    10f4:	88 23       	and	r24, r24
    10f6:	52 f0       	brmi	.+20     	; 0x110c <__fp_round+0x20>
    10f8:	bb 0f       	add	r27, r27
    10fa:	40 f4       	brcc	.+16     	; 0x110c <__fp_round+0x20>
    10fc:	bf 2b       	or	r27, r31
    10fe:	11 f4       	brne	.+4      	; 0x1104 <__fp_round+0x18>
    1100:	60 ff       	sbrs	r22, 0
    1102:	04 c0       	rjmp	.+8      	; 0x110c <__fp_round+0x20>
    1104:	6f 5f       	subi	r22, 0xFF	; 255
    1106:	7f 4f       	sbci	r23, 0xFF	; 255
    1108:	8f 4f       	sbci	r24, 0xFF	; 255
    110a:	9f 4f       	sbci	r25, 0xFF	; 255
    110c:	08 95       	ret

0000110e <__fp_split3>:
    110e:	57 fd       	sbrc	r21, 7
    1110:	90 58       	subi	r25, 0x80	; 128
    1112:	44 0f       	add	r20, r20
    1114:	55 1f       	adc	r21, r21
    1116:	59 f0       	breq	.+22     	; 0x112e <__fp_splitA+0x10>
    1118:	5f 3f       	cpi	r21, 0xFF	; 255
    111a:	71 f0       	breq	.+28     	; 0x1138 <__fp_splitA+0x1a>
    111c:	47 95       	ror	r20

0000111e <__fp_splitA>:
    111e:	88 0f       	add	r24, r24
    1120:	97 fb       	bst	r25, 7
    1122:	99 1f       	adc	r25, r25
    1124:	61 f0       	breq	.+24     	; 0x113e <__fp_splitA+0x20>
    1126:	9f 3f       	cpi	r25, 0xFF	; 255
    1128:	79 f0       	breq	.+30     	; 0x1148 <__fp_splitA+0x2a>
    112a:	87 95       	ror	r24
    112c:	08 95       	ret
    112e:	12 16       	cp	r1, r18
    1130:	13 06       	cpc	r1, r19
    1132:	14 06       	cpc	r1, r20
    1134:	55 1f       	adc	r21, r21
    1136:	f2 cf       	rjmp	.-28     	; 0x111c <__fp_split3+0xe>
    1138:	46 95       	lsr	r20
    113a:	f1 df       	rcall	.-30     	; 0x111e <__fp_splitA>
    113c:	08 c0       	rjmp	.+16     	; 0x114e <__fp_splitA+0x30>
    113e:	16 16       	cp	r1, r22
    1140:	17 06       	cpc	r1, r23
    1142:	18 06       	cpc	r1, r24
    1144:	99 1f       	adc	r25, r25
    1146:	f1 cf       	rjmp	.-30     	; 0x112a <__fp_splitA+0xc>
    1148:	86 95       	lsr	r24
    114a:	71 05       	cpc	r23, r1
    114c:	61 05       	cpc	r22, r1
    114e:	08 94       	sec
    1150:	08 95       	ret

00001152 <__fp_zero>:
    1152:	e8 94       	clt

00001154 <__fp_szero>:
    1154:	bb 27       	eor	r27, r27
    1156:	66 27       	eor	r22, r22
    1158:	77 27       	eor	r23, r23
    115a:	cb 01       	movw	r24, r22
    115c:	97 f9       	bld	r25, 7
    115e:	08 95       	ret

00001160 <__gesf2>:
    1160:	0e 94 3b 08 	call	0x1076	; 0x1076 <__fp_cmp>
    1164:	08 f4       	brcc	.+2      	; 0x1168 <__gesf2+0x8>
    1166:	8f ef       	ldi	r24, 0xFF	; 255
    1168:	08 95       	ret

0000116a <__mulsf3>:
    116a:	0e 94 c8 08 	call	0x1190	; 0x1190 <__mulsf3x>
    116e:	0c 94 76 08 	jmp	0x10ec	; 0x10ec <__fp_round>
    1172:	0e 94 68 08 	call	0x10d0	; 0x10d0 <__fp_pscA>
    1176:	38 f0       	brcs	.+14     	; 0x1186 <__mulsf3+0x1c>
    1178:	0e 94 6f 08 	call	0x10de	; 0x10de <__fp_pscB>
    117c:	20 f0       	brcs	.+8      	; 0x1186 <__mulsf3+0x1c>
    117e:	95 23       	and	r25, r21
    1180:	11 f0       	breq	.+4      	; 0x1186 <__mulsf3+0x1c>
    1182:	0c 94 5f 08 	jmp	0x10be	; 0x10be <__fp_inf>
    1186:	0c 94 65 08 	jmp	0x10ca	; 0x10ca <__fp_nan>
    118a:	11 24       	eor	r1, r1
    118c:	0c 94 aa 08 	jmp	0x1154	; 0x1154 <__fp_szero>

00001190 <__mulsf3x>:
    1190:	0e 94 87 08 	call	0x110e	; 0x110e <__fp_split3>
    1194:	70 f3       	brcs	.-36     	; 0x1172 <__mulsf3+0x8>

00001196 <__mulsf3_pse>:
    1196:	95 9f       	mul	r25, r21
    1198:	c1 f3       	breq	.-16     	; 0x118a <__mulsf3+0x20>
    119a:	95 0f       	add	r25, r21
    119c:	50 e0       	ldi	r21, 0x00	; 0
    119e:	55 1f       	adc	r21, r21
    11a0:	62 9f       	mul	r22, r18
    11a2:	f0 01       	movw	r30, r0
    11a4:	72 9f       	mul	r23, r18
    11a6:	bb 27       	eor	r27, r27
    11a8:	f0 0d       	add	r31, r0
    11aa:	b1 1d       	adc	r27, r1
    11ac:	63 9f       	mul	r22, r19
    11ae:	aa 27       	eor	r26, r26
    11b0:	f0 0d       	add	r31, r0
    11b2:	b1 1d       	adc	r27, r1
    11b4:	aa 1f       	adc	r26, r26
    11b6:	64 9f       	mul	r22, r20
    11b8:	66 27       	eor	r22, r22
    11ba:	b0 0d       	add	r27, r0
    11bc:	a1 1d       	adc	r26, r1
    11be:	66 1f       	adc	r22, r22
    11c0:	82 9f       	mul	r24, r18
    11c2:	22 27       	eor	r18, r18
    11c4:	b0 0d       	add	r27, r0
    11c6:	a1 1d       	adc	r26, r1
    11c8:	62 1f       	adc	r22, r18
    11ca:	73 9f       	mul	r23, r19
    11cc:	b0 0d       	add	r27, r0
    11ce:	a1 1d       	adc	r26, r1
    11d0:	62 1f       	adc	r22, r18
    11d2:	83 9f       	mul	r24, r19
    11d4:	a0 0d       	add	r26, r0
    11d6:	61 1d       	adc	r22, r1
    11d8:	22 1f       	adc	r18, r18
    11da:	74 9f       	mul	r23, r20
    11dc:	33 27       	eor	r19, r19
    11de:	a0 0d       	add	r26, r0
    11e0:	61 1d       	adc	r22, r1
    11e2:	23 1f       	adc	r18, r19
    11e4:	84 9f       	mul	r24, r20
    11e6:	60 0d       	add	r22, r0
    11e8:	21 1d       	adc	r18, r1
    11ea:	82 2f       	mov	r24, r18
    11ec:	76 2f       	mov	r23, r22
    11ee:	6a 2f       	mov	r22, r26
    11f0:	11 24       	eor	r1, r1
    11f2:	9f 57       	subi	r25, 0x7F	; 127
    11f4:	50 40       	sbci	r21, 0x00	; 0
    11f6:	9a f0       	brmi	.+38     	; 0x121e <__mulsf3_pse+0x88>
    11f8:	f1 f0       	breq	.+60     	; 0x1236 <__mulsf3_pse+0xa0>
    11fa:	88 23       	and	r24, r24
    11fc:	4a f0       	brmi	.+18     	; 0x1210 <__mulsf3_pse+0x7a>
    11fe:	ee 0f       	add	r30, r30
    1200:	ff 1f       	adc	r31, r31
    1202:	bb 1f       	adc	r27, r27
    1204:	66 1f       	adc	r22, r22
    1206:	77 1f       	adc	r23, r23
    1208:	88 1f       	adc	r24, r24
    120a:	91 50       	subi	r25, 0x01	; 1
    120c:	50 40       	sbci	r21, 0x00	; 0
    120e:	a9 f7       	brne	.-22     	; 0x11fa <__mulsf3_pse+0x64>
    1210:	9e 3f       	cpi	r25, 0xFE	; 254
    1212:	51 05       	cpc	r21, r1
    1214:	80 f0       	brcs	.+32     	; 0x1236 <__mulsf3_pse+0xa0>
    1216:	0c 94 5f 08 	jmp	0x10be	; 0x10be <__fp_inf>
    121a:	0c 94 aa 08 	jmp	0x1154	; 0x1154 <__fp_szero>
    121e:	5f 3f       	cpi	r21, 0xFF	; 255
    1220:	e4 f3       	brlt	.-8      	; 0x121a <__mulsf3_pse+0x84>
    1222:	98 3e       	cpi	r25, 0xE8	; 232
    1224:	d4 f3       	brlt	.-12     	; 0x121a <__mulsf3_pse+0x84>
    1226:	86 95       	lsr	r24
    1228:	77 95       	ror	r23
    122a:	67 95       	ror	r22
    122c:	b7 95       	ror	r27
    122e:	f7 95       	ror	r31
    1230:	e7 95       	ror	r30
    1232:	9f 5f       	subi	r25, 0xFF	; 255
    1234:	c1 f7       	brne	.-16     	; 0x1226 <__mulsf3_pse+0x90>
    1236:	fe 2b       	or	r31, r30
    1238:	88 0f       	add	r24, r24
    123a:	91 1d       	adc	r25, r1
    123c:	96 95       	lsr	r25
    123e:	87 95       	ror	r24
    1240:	97 f9       	bld	r25, 7
    1242:	08 95       	ret

00001244 <dtostrf>:
    1244:	ef 92       	push	r14
    1246:	0f 93       	push	r16
    1248:	1f 93       	push	r17
    124a:	cf 93       	push	r28
    124c:	df 93       	push	r29
    124e:	e8 01       	movw	r28, r16
    1250:	47 fd       	sbrc	r20, 7
    1252:	02 c0       	rjmp	.+4      	; 0x1258 <dtostrf+0x14>
    1254:	34 e0       	ldi	r19, 0x04	; 4
    1256:	01 c0       	rjmp	.+2      	; 0x125a <dtostrf+0x16>
    1258:	34 e1       	ldi	r19, 0x14	; 20
    125a:	04 2e       	mov	r0, r20
    125c:	00 0c       	add	r0, r0
    125e:	55 0b       	sbc	r21, r21
    1260:	57 ff       	sbrs	r21, 7
    1262:	03 c0       	rjmp	.+6      	; 0x126a <dtostrf+0x26>
    1264:	51 95       	neg	r21
    1266:	41 95       	neg	r20
    1268:	51 09       	sbc	r21, r1
    126a:	e3 2e       	mov	r14, r19
    126c:	02 2f       	mov	r16, r18
    126e:	24 2f       	mov	r18, r20
    1270:	ae 01       	movw	r20, r28
    1272:	0e 94 6b 09 	call	0x12d6	; 0x12d6 <dtoa_prf>
    1276:	ce 01       	movw	r24, r28
    1278:	df 91       	pop	r29
    127a:	cf 91       	pop	r28
    127c:	1f 91       	pop	r17
    127e:	0f 91       	pop	r16
    1280:	ef 90       	pop	r14
    1282:	08 95       	ret

00001284 <atof>:
    1284:	66 27       	eor	r22, r22
    1286:	77 27       	eor	r23, r23
    1288:	0c 94 c5 0a 	jmp	0x158a	; 0x158a <strtod>

0000128c <__itoa_ncheck>:
    128c:	bb 27       	eor	r27, r27
    128e:	4a 30       	cpi	r20, 0x0A	; 10
    1290:	31 f4       	brne	.+12     	; 0x129e <__itoa_ncheck+0x12>
    1292:	99 23       	and	r25, r25
    1294:	22 f4       	brpl	.+8      	; 0x129e <__itoa_ncheck+0x12>
    1296:	bd e2       	ldi	r27, 0x2D	; 45
    1298:	90 95       	com	r25
    129a:	81 95       	neg	r24
    129c:	9f 4f       	sbci	r25, 0xFF	; 255
    129e:	0c 94 52 09 	jmp	0x12a4	; 0x12a4 <__utoa_common>

000012a2 <__utoa_ncheck>:
    12a2:	bb 27       	eor	r27, r27

000012a4 <__utoa_common>:
    12a4:	fb 01       	movw	r30, r22
    12a6:	55 27       	eor	r21, r21
    12a8:	aa 27       	eor	r26, r26
    12aa:	88 0f       	add	r24, r24
    12ac:	99 1f       	adc	r25, r25
    12ae:	aa 1f       	adc	r26, r26
    12b0:	a4 17       	cp	r26, r20
    12b2:	10 f0       	brcs	.+4      	; 0x12b8 <__utoa_common+0x14>
    12b4:	a4 1b       	sub	r26, r20
    12b6:	83 95       	inc	r24
    12b8:	50 51       	subi	r21, 0x10	; 16
    12ba:	b9 f7       	brne	.-18     	; 0x12aa <__utoa_common+0x6>
    12bc:	a0 5d       	subi	r26, 0xD0	; 208
    12be:	aa 33       	cpi	r26, 0x3A	; 58
    12c0:	08 f0       	brcs	.+2      	; 0x12c4 <__utoa_common+0x20>
    12c2:	a9 5d       	subi	r26, 0xD9	; 217
    12c4:	a1 93       	st	Z+, r26
    12c6:	00 97       	sbiw	r24, 0x00	; 0
    12c8:	79 f7       	brne	.-34     	; 0x12a8 <__utoa_common+0x4>
    12ca:	b1 11       	cpse	r27, r1
    12cc:	b1 93       	st	Z+, r27
    12ce:	11 92       	st	Z+, r1
    12d0:	cb 01       	movw	r24, r22
    12d2:	0c 94 0c 0d 	jmp	0x1a18	; 0x1a18 <strrev>

000012d6 <dtoa_prf>:
    12d6:	a9 e0       	ldi	r26, 0x09	; 9
    12d8:	b0 e0       	ldi	r27, 0x00	; 0
    12da:	e1 e7       	ldi	r30, 0x71	; 113
    12dc:	f9 e0       	ldi	r31, 0x09	; 9
    12de:	0c 94 30 0d 	jmp	0x1a60	; 0x1a60 <__prologue_saves__+0xc>
    12e2:	6a 01       	movw	r12, r20
    12e4:	12 2f       	mov	r17, r18
    12e6:	b0 2e       	mov	r11, r16
    12e8:	2b e3       	ldi	r18, 0x3B	; 59
    12ea:	20 17       	cp	r18, r16
    12ec:	20 f0       	brcs	.+8      	; 0x12f6 <dtoa_prf+0x20>
    12ee:	ff 24       	eor	r15, r15
    12f0:	f3 94       	inc	r15
    12f2:	f0 0e       	add	r15, r16
    12f4:	02 c0       	rjmp	.+4      	; 0x12fa <dtoa_prf+0x24>
    12f6:	2c e3       	ldi	r18, 0x3C	; 60
    12f8:	f2 2e       	mov	r15, r18
    12fa:	0f 2d       	mov	r16, r15
    12fc:	27 e0       	ldi	r18, 0x07	; 7
    12fe:	ae 01       	movw	r20, r28
    1300:	4f 5f       	subi	r20, 0xFF	; 255
    1302:	5f 4f       	sbci	r21, 0xFF	; 255
    1304:	0e 94 13 0c 	call	0x1826	; 0x1826 <__ftoa_engine>
    1308:	bc 01       	movw	r22, r24
    130a:	49 81       	ldd	r20, Y+1	; 0x01
    130c:	84 2f       	mov	r24, r20
    130e:	89 70       	andi	r24, 0x09	; 9
    1310:	81 30       	cpi	r24, 0x01	; 1
    1312:	31 f0       	breq	.+12     	; 0x1320 <dtoa_prf+0x4a>
    1314:	e1 fc       	sbrc	r14, 1
    1316:	06 c0       	rjmp	.+12     	; 0x1324 <dtoa_prf+0x4e>
    1318:	e0 fe       	sbrs	r14, 0
    131a:	06 c0       	rjmp	.+12     	; 0x1328 <dtoa_prf+0x52>
    131c:	90 e2       	ldi	r25, 0x20	; 32
    131e:	05 c0       	rjmp	.+10     	; 0x132a <dtoa_prf+0x54>
    1320:	9d e2       	ldi	r25, 0x2D	; 45
    1322:	03 c0       	rjmp	.+6      	; 0x132a <dtoa_prf+0x54>
    1324:	9b e2       	ldi	r25, 0x2B	; 43
    1326:	01 c0       	rjmp	.+2      	; 0x132a <dtoa_prf+0x54>
    1328:	90 e0       	ldi	r25, 0x00	; 0
    132a:	5e 2d       	mov	r21, r14
    132c:	50 71       	andi	r21, 0x10	; 16
    132e:	43 ff       	sbrs	r20, 3
    1330:	3c c0       	rjmp	.+120    	; 0x13aa <dtoa_prf+0xd4>
    1332:	91 11       	cpse	r25, r1
    1334:	02 c0       	rjmp	.+4      	; 0x133a <dtoa_prf+0x64>
    1336:	83 e0       	ldi	r24, 0x03	; 3
    1338:	01 c0       	rjmp	.+2      	; 0x133c <dtoa_prf+0x66>
    133a:	84 e0       	ldi	r24, 0x04	; 4
    133c:	81 17       	cp	r24, r17
    133e:	18 f4       	brcc	.+6      	; 0x1346 <dtoa_prf+0x70>
    1340:	21 2f       	mov	r18, r17
    1342:	28 1b       	sub	r18, r24
    1344:	01 c0       	rjmp	.+2      	; 0x1348 <dtoa_prf+0x72>
    1346:	20 e0       	ldi	r18, 0x00	; 0
    1348:	51 11       	cpse	r21, r1
    134a:	0b c0       	rjmp	.+22     	; 0x1362 <dtoa_prf+0x8c>
    134c:	f6 01       	movw	r30, r12
    134e:	82 2f       	mov	r24, r18
    1350:	30 e2       	ldi	r19, 0x20	; 32
    1352:	88 23       	and	r24, r24
    1354:	19 f0       	breq	.+6      	; 0x135c <dtoa_prf+0x86>
    1356:	31 93       	st	Z+, r19
    1358:	81 50       	subi	r24, 0x01	; 1
    135a:	fb cf       	rjmp	.-10     	; 0x1352 <dtoa_prf+0x7c>
    135c:	c2 0e       	add	r12, r18
    135e:	d1 1c       	adc	r13, r1
    1360:	20 e0       	ldi	r18, 0x00	; 0
    1362:	99 23       	and	r25, r25
    1364:	29 f0       	breq	.+10     	; 0x1370 <dtoa_prf+0x9a>
    1366:	d6 01       	movw	r26, r12
    1368:	9c 93       	st	X, r25
    136a:	f6 01       	movw	r30, r12
    136c:	31 96       	adiw	r30, 0x01	; 1
    136e:	6f 01       	movw	r12, r30
    1370:	c6 01       	movw	r24, r12
    1372:	03 96       	adiw	r24, 0x03	; 3
    1374:	e2 fe       	sbrs	r14, 2
    1376:	0a c0       	rjmp	.+20     	; 0x138c <dtoa_prf+0xb6>
    1378:	3e e4       	ldi	r19, 0x4E	; 78
    137a:	d6 01       	movw	r26, r12
    137c:	3c 93       	st	X, r19
    137e:	41 e4       	ldi	r20, 0x41	; 65
    1380:	11 96       	adiw	r26, 0x01	; 1
    1382:	4c 93       	st	X, r20
    1384:	11 97       	sbiw	r26, 0x01	; 1
    1386:	12 96       	adiw	r26, 0x02	; 2
    1388:	3c 93       	st	X, r19
    138a:	06 c0       	rjmp	.+12     	; 0x1398 <dtoa_prf+0xc2>
    138c:	3e e6       	ldi	r19, 0x6E	; 110
    138e:	f6 01       	movw	r30, r12
    1390:	30 83       	st	Z, r19
    1392:	41 e6       	ldi	r20, 0x61	; 97
    1394:	41 83       	std	Z+1, r20	; 0x01
    1396:	32 83       	std	Z+2, r19	; 0x02
    1398:	fc 01       	movw	r30, r24
    139a:	32 2f       	mov	r19, r18
    139c:	40 e2       	ldi	r20, 0x20	; 32
    139e:	33 23       	and	r19, r19
    13a0:	09 f4       	brne	.+2      	; 0x13a4 <dtoa_prf+0xce>
    13a2:	42 c0       	rjmp	.+132    	; 0x1428 <dtoa_prf+0x152>
    13a4:	41 93       	st	Z+, r20
    13a6:	31 50       	subi	r19, 0x01	; 1
    13a8:	fa cf       	rjmp	.-12     	; 0x139e <dtoa_prf+0xc8>
    13aa:	42 ff       	sbrs	r20, 2
    13ac:	44 c0       	rjmp	.+136    	; 0x1436 <dtoa_prf+0x160>
    13ae:	91 11       	cpse	r25, r1
    13b0:	02 c0       	rjmp	.+4      	; 0x13b6 <dtoa_prf+0xe0>
    13b2:	83 e0       	ldi	r24, 0x03	; 3
    13b4:	01 c0       	rjmp	.+2      	; 0x13b8 <dtoa_prf+0xe2>
    13b6:	84 e0       	ldi	r24, 0x04	; 4
    13b8:	81 17       	cp	r24, r17
    13ba:	18 f4       	brcc	.+6      	; 0x13c2 <dtoa_prf+0xec>
    13bc:	21 2f       	mov	r18, r17
    13be:	28 1b       	sub	r18, r24
    13c0:	01 c0       	rjmp	.+2      	; 0x13c4 <dtoa_prf+0xee>
    13c2:	20 e0       	ldi	r18, 0x00	; 0
    13c4:	51 11       	cpse	r21, r1
    13c6:	0b c0       	rjmp	.+22     	; 0x13de <dtoa_prf+0x108>
    13c8:	f6 01       	movw	r30, r12
    13ca:	82 2f       	mov	r24, r18
    13cc:	30 e2       	ldi	r19, 0x20	; 32
    13ce:	88 23       	and	r24, r24
    13d0:	19 f0       	breq	.+6      	; 0x13d8 <dtoa_prf+0x102>
    13d2:	31 93       	st	Z+, r19
    13d4:	81 50       	subi	r24, 0x01	; 1
    13d6:	fb cf       	rjmp	.-10     	; 0x13ce <dtoa_prf+0xf8>
    13d8:	c2 0e       	add	r12, r18
    13da:	d1 1c       	adc	r13, r1
    13dc:	20 e0       	ldi	r18, 0x00	; 0
    13de:	99 23       	and	r25, r25
    13e0:	29 f0       	breq	.+10     	; 0x13ec <dtoa_prf+0x116>
    13e2:	d6 01       	movw	r26, r12
    13e4:	9c 93       	st	X, r25
    13e6:	f6 01       	movw	r30, r12
    13e8:	31 96       	adiw	r30, 0x01	; 1
    13ea:	6f 01       	movw	r12, r30
    13ec:	c6 01       	movw	r24, r12
    13ee:	03 96       	adiw	r24, 0x03	; 3
    13f0:	e2 fe       	sbrs	r14, 2
    13f2:	0b c0       	rjmp	.+22     	; 0x140a <dtoa_prf+0x134>
    13f4:	39 e4       	ldi	r19, 0x49	; 73
    13f6:	d6 01       	movw	r26, r12
    13f8:	3c 93       	st	X, r19
    13fa:	3e e4       	ldi	r19, 0x4E	; 78
    13fc:	11 96       	adiw	r26, 0x01	; 1
    13fe:	3c 93       	st	X, r19
    1400:	11 97       	sbiw	r26, 0x01	; 1
    1402:	36 e4       	ldi	r19, 0x46	; 70
    1404:	12 96       	adiw	r26, 0x02	; 2
    1406:	3c 93       	st	X, r19
    1408:	07 c0       	rjmp	.+14     	; 0x1418 <dtoa_prf+0x142>
    140a:	39 e6       	ldi	r19, 0x69	; 105
    140c:	f6 01       	movw	r30, r12
    140e:	30 83       	st	Z, r19
    1410:	3e e6       	ldi	r19, 0x6E	; 110
    1412:	31 83       	std	Z+1, r19	; 0x01
    1414:	36 e6       	ldi	r19, 0x66	; 102
    1416:	32 83       	std	Z+2, r19	; 0x02
    1418:	fc 01       	movw	r30, r24
    141a:	32 2f       	mov	r19, r18
    141c:	40 e2       	ldi	r20, 0x20	; 32
    141e:	33 23       	and	r19, r19
    1420:	19 f0       	breq	.+6      	; 0x1428 <dtoa_prf+0x152>
    1422:	41 93       	st	Z+, r20
    1424:	31 50       	subi	r19, 0x01	; 1
    1426:	fb cf       	rjmp	.-10     	; 0x141e <dtoa_prf+0x148>
    1428:	fc 01       	movw	r30, r24
    142a:	e2 0f       	add	r30, r18
    142c:	f1 1d       	adc	r31, r1
    142e:	10 82       	st	Z, r1
    1430:	8e ef       	ldi	r24, 0xFE	; 254
    1432:	9f ef       	ldi	r25, 0xFF	; 255
    1434:	a6 c0       	rjmp	.+332    	; 0x1582 <dtoa_prf+0x2ac>
    1436:	21 e0       	ldi	r18, 0x01	; 1
    1438:	30 e0       	ldi	r19, 0x00	; 0
    143a:	91 11       	cpse	r25, r1
    143c:	02 c0       	rjmp	.+4      	; 0x1442 <dtoa_prf+0x16c>
    143e:	20 e0       	ldi	r18, 0x00	; 0
    1440:	30 e0       	ldi	r19, 0x00	; 0
    1442:	16 16       	cp	r1, r22
    1444:	17 06       	cpc	r1, r23
    1446:	1c f4       	brge	.+6      	; 0x144e <dtoa_prf+0x178>
    1448:	fb 01       	movw	r30, r22
    144a:	31 96       	adiw	r30, 0x01	; 1
    144c:	02 c0       	rjmp	.+4      	; 0x1452 <dtoa_prf+0x17c>
    144e:	e1 e0       	ldi	r30, 0x01	; 1
    1450:	f0 e0       	ldi	r31, 0x00	; 0
    1452:	2e 0f       	add	r18, r30
    1454:	3f 1f       	adc	r19, r31
    1456:	bb 20       	and	r11, r11
    1458:	21 f0       	breq	.+8      	; 0x1462 <dtoa_prf+0x18c>
    145a:	eb 2d       	mov	r30, r11
    145c:	f0 e0       	ldi	r31, 0x00	; 0
    145e:	31 96       	adiw	r30, 0x01	; 1
    1460:	02 c0       	rjmp	.+4      	; 0x1466 <dtoa_prf+0x190>
    1462:	e0 e0       	ldi	r30, 0x00	; 0
    1464:	f0 e0       	ldi	r31, 0x00	; 0
    1466:	2e 0f       	add	r18, r30
    1468:	3f 1f       	adc	r19, r31
    146a:	e1 2f       	mov	r30, r17
    146c:	f0 e0       	ldi	r31, 0x00	; 0
    146e:	2e 17       	cp	r18, r30
    1470:	3f 07       	cpc	r19, r31
    1472:	1c f4       	brge	.+6      	; 0x147a <dtoa_prf+0x1a4>
    1474:	12 1b       	sub	r17, r18
    1476:	21 2f       	mov	r18, r17
    1478:	01 c0       	rjmp	.+2      	; 0x147c <dtoa_prf+0x1a6>
    147a:	20 e0       	ldi	r18, 0x00	; 0
    147c:	8e 2d       	mov	r24, r14
    147e:	88 71       	andi	r24, 0x18	; 24
    1480:	59 f4       	brne	.+22     	; 0x1498 <dtoa_prf+0x1c2>
    1482:	f6 01       	movw	r30, r12
    1484:	82 2f       	mov	r24, r18
    1486:	30 e2       	ldi	r19, 0x20	; 32
    1488:	88 23       	and	r24, r24
    148a:	19 f0       	breq	.+6      	; 0x1492 <dtoa_prf+0x1bc>
    148c:	31 93       	st	Z+, r19
    148e:	81 50       	subi	r24, 0x01	; 1
    1490:	fb cf       	rjmp	.-10     	; 0x1488 <dtoa_prf+0x1b2>
    1492:	c2 0e       	add	r12, r18
    1494:	d1 1c       	adc	r13, r1
    1496:	20 e0       	ldi	r18, 0x00	; 0
    1498:	99 23       	and	r25, r25
    149a:	29 f0       	breq	.+10     	; 0x14a6 <dtoa_prf+0x1d0>
    149c:	d6 01       	movw	r26, r12
    149e:	9c 93       	st	X, r25
    14a0:	f6 01       	movw	r30, r12
    14a2:	31 96       	adiw	r30, 0x01	; 1
    14a4:	6f 01       	movw	r12, r30
    14a6:	51 11       	cpse	r21, r1
    14a8:	0b c0       	rjmp	.+22     	; 0x14c0 <dtoa_prf+0x1ea>
    14aa:	f6 01       	movw	r30, r12
    14ac:	82 2f       	mov	r24, r18
    14ae:	90 e3       	ldi	r25, 0x30	; 48
    14b0:	88 23       	and	r24, r24
    14b2:	19 f0       	breq	.+6      	; 0x14ba <dtoa_prf+0x1e4>
    14b4:	91 93       	st	Z+, r25
    14b6:	81 50       	subi	r24, 0x01	; 1
    14b8:	fb cf       	rjmp	.-10     	; 0x14b0 <dtoa_prf+0x1da>
    14ba:	c2 0e       	add	r12, r18
    14bc:	d1 1c       	adc	r13, r1
    14be:	20 e0       	ldi	r18, 0x00	; 0
    14c0:	0f 2d       	mov	r16, r15
    14c2:	06 0f       	add	r16, r22
    14c4:	9a 81       	ldd	r25, Y+2	; 0x02
    14c6:	34 2f       	mov	r19, r20
    14c8:	30 71       	andi	r19, 0x10	; 16
    14ca:	44 ff       	sbrs	r20, 4
    14cc:	03 c0       	rjmp	.+6      	; 0x14d4 <dtoa_prf+0x1fe>
    14ce:	91 33       	cpi	r25, 0x31	; 49
    14d0:	09 f4       	brne	.+2      	; 0x14d4 <dtoa_prf+0x1fe>
    14d2:	01 50       	subi	r16, 0x01	; 1
    14d4:	10 16       	cp	r1, r16
    14d6:	24 f4       	brge	.+8      	; 0x14e0 <dtoa_prf+0x20a>
    14d8:	09 30       	cpi	r16, 0x09	; 9
    14da:	18 f0       	brcs	.+6      	; 0x14e2 <dtoa_prf+0x20c>
    14dc:	08 e0       	ldi	r16, 0x08	; 8
    14de:	01 c0       	rjmp	.+2      	; 0x14e2 <dtoa_prf+0x20c>
    14e0:	01 e0       	ldi	r16, 0x01	; 1
    14e2:	ab 01       	movw	r20, r22
    14e4:	77 ff       	sbrs	r23, 7
    14e6:	02 c0       	rjmp	.+4      	; 0x14ec <dtoa_prf+0x216>
    14e8:	40 e0       	ldi	r20, 0x00	; 0
    14ea:	50 e0       	ldi	r21, 0x00	; 0
    14ec:	fb 01       	movw	r30, r22
    14ee:	e4 1b       	sub	r30, r20
    14f0:	f5 0b       	sbc	r31, r21
    14f2:	a1 e0       	ldi	r26, 0x01	; 1
    14f4:	b0 e0       	ldi	r27, 0x00	; 0
    14f6:	ac 0f       	add	r26, r28
    14f8:	bd 1f       	adc	r27, r29
    14fa:	ea 0f       	add	r30, r26
    14fc:	fb 1f       	adc	r31, r27
    14fe:	8e e2       	ldi	r24, 0x2E	; 46
    1500:	a8 2e       	mov	r10, r24
    1502:	4b 01       	movw	r8, r22
    1504:	80 1a       	sub	r8, r16
    1506:	91 08       	sbc	r9, r1
    1508:	0b 2d       	mov	r16, r11
    150a:	10 e0       	ldi	r17, 0x00	; 0
    150c:	11 95       	neg	r17
    150e:	01 95       	neg	r16
    1510:	11 09       	sbc	r17, r1
    1512:	4f 3f       	cpi	r20, 0xFF	; 255
    1514:	bf ef       	ldi	r27, 0xFF	; 255
    1516:	5b 07       	cpc	r21, r27
    1518:	21 f4       	brne	.+8      	; 0x1522 <dtoa_prf+0x24c>
    151a:	d6 01       	movw	r26, r12
    151c:	ac 92       	st	X, r10
    151e:	11 96       	adiw	r26, 0x01	; 1
    1520:	6d 01       	movw	r12, r26
    1522:	64 17       	cp	r22, r20
    1524:	75 07       	cpc	r23, r21
    1526:	2c f0       	brlt	.+10     	; 0x1532 <dtoa_prf+0x25c>
    1528:	84 16       	cp	r8, r20
    152a:	95 06       	cpc	r9, r21
    152c:	14 f4       	brge	.+4      	; 0x1532 <dtoa_prf+0x25c>
    152e:	81 81       	ldd	r24, Z+1	; 0x01
    1530:	01 c0       	rjmp	.+2      	; 0x1534 <dtoa_prf+0x25e>
    1532:	80 e3       	ldi	r24, 0x30	; 48
    1534:	41 50       	subi	r20, 0x01	; 1
    1536:	51 09       	sbc	r21, r1
    1538:	31 96       	adiw	r30, 0x01	; 1
    153a:	d6 01       	movw	r26, r12
    153c:	11 96       	adiw	r26, 0x01	; 1
    153e:	7d 01       	movw	r14, r26
    1540:	40 17       	cp	r20, r16
    1542:	51 07       	cpc	r21, r17
    1544:	24 f0       	brlt	.+8      	; 0x154e <dtoa_prf+0x278>
    1546:	d6 01       	movw	r26, r12
    1548:	8c 93       	st	X, r24
    154a:	67 01       	movw	r12, r14
    154c:	e2 cf       	rjmp	.-60     	; 0x1512 <dtoa_prf+0x23c>
    154e:	64 17       	cp	r22, r20
    1550:	75 07       	cpc	r23, r21
    1552:	39 f4       	brne	.+14     	; 0x1562 <dtoa_prf+0x28c>
    1554:	96 33       	cpi	r25, 0x36	; 54
    1556:	20 f4       	brcc	.+8      	; 0x1560 <dtoa_prf+0x28a>
    1558:	95 33       	cpi	r25, 0x35	; 53
    155a:	19 f4       	brne	.+6      	; 0x1562 <dtoa_prf+0x28c>
    155c:	31 11       	cpse	r19, r1
    155e:	01 c0       	rjmp	.+2      	; 0x1562 <dtoa_prf+0x28c>
    1560:	81 e3       	ldi	r24, 0x31	; 49
    1562:	f6 01       	movw	r30, r12
    1564:	80 83       	st	Z, r24
    1566:	f7 01       	movw	r30, r14
    1568:	82 2f       	mov	r24, r18
    156a:	90 e2       	ldi	r25, 0x20	; 32
    156c:	88 23       	and	r24, r24
    156e:	19 f0       	breq	.+6      	; 0x1576 <dtoa_prf+0x2a0>
    1570:	91 93       	st	Z+, r25
    1572:	81 50       	subi	r24, 0x01	; 1
    1574:	fb cf       	rjmp	.-10     	; 0x156c <dtoa_prf+0x296>
    1576:	f7 01       	movw	r30, r14
    1578:	e2 0f       	add	r30, r18
    157a:	f1 1d       	adc	r31, r1
    157c:	10 82       	st	Z, r1
    157e:	80 e0       	ldi	r24, 0x00	; 0
    1580:	90 e0       	ldi	r25, 0x00	; 0
    1582:	29 96       	adiw	r28, 0x09	; 9
    1584:	ec e0       	ldi	r30, 0x0C	; 12
    1586:	0c 94 4c 0d 	jmp	0x1a98	; 0x1a98 <__epilogue_restores__+0xc>

0000158a <strtod>:
    158a:	a0 e0       	ldi	r26, 0x00	; 0
    158c:	b0 e0       	ldi	r27, 0x00	; 0
    158e:	eb ec       	ldi	r30, 0xCB	; 203
    1590:	fa e0       	ldi	r31, 0x0A	; 10
    1592:	0c 94 30 0d 	jmp	0x1a60	; 0x1a60 <__prologue_saves__+0xc>
    1596:	ec 01       	movw	r28, r24
    1598:	6b 01       	movw	r12, r22
    159a:	61 15       	cp	r22, r1
    159c:	71 05       	cpc	r23, r1
    159e:	19 f0       	breq	.+6      	; 0x15a6 <strtod+0x1c>
    15a0:	fb 01       	movw	r30, r22
    15a2:	91 83       	std	Z+1, r25	; 0x01
    15a4:	80 83       	st	Z, r24
    15a6:	7e 01       	movw	r14, r28
    15a8:	ff ef       	ldi	r31, 0xFF	; 255
    15aa:	ef 1a       	sub	r14, r31
    15ac:	ff 0a       	sbc	r15, r31
    15ae:	08 81       	ld	r16, Y
    15b0:	80 2f       	mov	r24, r16
    15b2:	90 e0       	ldi	r25, 0x00	; 0
    15b4:	0e 94 eb 0c 	call	0x19d6	; 0x19d6 <isspace>
    15b8:	89 2b       	or	r24, r25
    15ba:	11 f0       	breq	.+4      	; 0x15c0 <strtod+0x36>
    15bc:	e7 01       	movw	r28, r14
    15be:	f3 cf       	rjmp	.-26     	; 0x15a6 <strtod+0x1c>
    15c0:	0d 32       	cpi	r16, 0x2D	; 45
    15c2:	39 f4       	brne	.+14     	; 0x15d2 <strtod+0x48>
    15c4:	7e 01       	movw	r14, r28
    15c6:	82 e0       	ldi	r24, 0x02	; 2
    15c8:	e8 0e       	add	r14, r24
    15ca:	f1 1c       	adc	r15, r1
    15cc:	09 81       	ldd	r16, Y+1	; 0x01
    15ce:	11 e0       	ldi	r17, 0x01	; 1
    15d0:	08 c0       	rjmp	.+16     	; 0x15e2 <strtod+0x58>
    15d2:	0b 32       	cpi	r16, 0x2B	; 43
    15d4:	29 f4       	brne	.+10     	; 0x15e0 <strtod+0x56>
    15d6:	7e 01       	movw	r14, r28
    15d8:	92 e0       	ldi	r25, 0x02	; 2
    15da:	e9 0e       	add	r14, r25
    15dc:	f1 1c       	adc	r15, r1
    15de:	09 81       	ldd	r16, Y+1	; 0x01
    15e0:	10 e0       	ldi	r17, 0x00	; 0
    15e2:	e7 01       	movw	r28, r14
    15e4:	21 97       	sbiw	r28, 0x01	; 1
    15e6:	43 e0       	ldi	r20, 0x03	; 3
    15e8:	50 e0       	ldi	r21, 0x00	; 0
    15ea:	6c e5       	ldi	r22, 0x5C	; 92
    15ec:	70 e0       	ldi	r23, 0x00	; 0
    15ee:	ce 01       	movw	r24, r28
    15f0:	0e 94 f4 0c 	call	0x19e8	; 0x19e8 <strncasecmp_P>
    15f4:	89 2b       	or	r24, r25
    15f6:	c1 f4       	brne	.+48     	; 0x1628 <strtod+0x9e>
    15f8:	23 96       	adiw	r28, 0x03	; 3
    15fa:	45 e0       	ldi	r20, 0x05	; 5
    15fc:	50 e0       	ldi	r21, 0x00	; 0
    15fe:	67 e5       	ldi	r22, 0x57	; 87
    1600:	70 e0       	ldi	r23, 0x00	; 0
    1602:	ce 01       	movw	r24, r28
    1604:	0e 94 f4 0c 	call	0x19e8	; 0x19e8 <strncasecmp_P>
    1608:	89 2b       	or	r24, r25
    160a:	09 f4       	brne	.+2      	; 0x160e <strtod+0x84>
    160c:	25 96       	adiw	r28, 0x05	; 5
    160e:	c1 14       	cp	r12, r1
    1610:	d1 04       	cpc	r13, r1
    1612:	19 f0       	breq	.+6      	; 0x161a <strtod+0x90>
    1614:	f6 01       	movw	r30, r12
    1616:	d1 83       	std	Z+1, r29	; 0x01
    1618:	c0 83       	st	Z, r28
    161a:	11 11       	cpse	r17, r1
    161c:	f6 c0       	rjmp	.+492    	; 0x180a <strtod+0x280>
    161e:	60 e0       	ldi	r22, 0x00	; 0
    1620:	70 e0       	ldi	r23, 0x00	; 0
    1622:	80 e8       	ldi	r24, 0x80	; 128
    1624:	9f e7       	ldi	r25, 0x7F	; 127
    1626:	fa c0       	rjmp	.+500    	; 0x181c <strtod+0x292>
    1628:	43 e0       	ldi	r20, 0x03	; 3
    162a:	50 e0       	ldi	r21, 0x00	; 0
    162c:	64 e5       	ldi	r22, 0x54	; 84
    162e:	70 e0       	ldi	r23, 0x00	; 0
    1630:	ce 01       	movw	r24, r28
    1632:	0e 94 f4 0c 	call	0x19e8	; 0x19e8 <strncasecmp_P>
    1636:	89 2b       	or	r24, r25
    1638:	59 f4       	brne	.+22     	; 0x1650 <strtod+0xc6>
    163a:	c1 14       	cp	r12, r1
    163c:	d1 04       	cpc	r13, r1
    163e:	09 f4       	brne	.+2      	; 0x1642 <strtod+0xb8>
    1640:	e9 c0       	rjmp	.+466    	; 0x1814 <strtod+0x28a>
    1642:	f2 e0       	ldi	r31, 0x02	; 2
    1644:	ef 0e       	add	r14, r31
    1646:	f1 1c       	adc	r15, r1
    1648:	f6 01       	movw	r30, r12
    164a:	f1 82       	std	Z+1, r15	; 0x01
    164c:	e0 82       	st	Z, r14
    164e:	e2 c0       	rjmp	.+452    	; 0x1814 <strtod+0x28a>
    1650:	20 e0       	ldi	r18, 0x00	; 0
    1652:	30 e0       	ldi	r19, 0x00	; 0
    1654:	a9 01       	movw	r20, r18
    1656:	c0 e0       	ldi	r28, 0x00	; 0
    1658:	d0 e0       	ldi	r29, 0x00	; 0
    165a:	f7 01       	movw	r30, r14
    165c:	80 ed       	ldi	r24, 0xD0	; 208
    165e:	a8 2e       	mov	r10, r24
    1660:	a0 0e       	add	r10, r16
    1662:	89 e0       	ldi	r24, 0x09	; 9
    1664:	8a 15       	cp	r24, r10
    1666:	30 f1       	brcs	.+76     	; 0x16b4 <strtod+0x12a>
    1668:	91 2f       	mov	r25, r17
    166a:	92 60       	ori	r25, 0x02	; 2
    166c:	b9 2e       	mov	r11, r25
    166e:	81 2f       	mov	r24, r17
    1670:	88 70       	andi	r24, 0x08	; 8
    1672:	12 ff       	sbrs	r17, 2
    1674:	04 c0       	rjmp	.+8      	; 0x167e <strtod+0xf4>
    1676:	81 11       	cpse	r24, r1
    1678:	24 c0       	rjmp	.+72     	; 0x16c2 <strtod+0x138>
    167a:	21 96       	adiw	r28, 0x01	; 1
    167c:	22 c0       	rjmp	.+68     	; 0x16c2 <strtod+0x138>
    167e:	81 11       	cpse	r24, r1
    1680:	21 97       	sbiw	r28, 0x01	; 1
    1682:	a5 e0       	ldi	r26, 0x05	; 5
    1684:	b0 e0       	ldi	r27, 0x00	; 0
    1686:	0e 94 1f 0d 	call	0x1a3e	; 0x1a3e <__muluhisi3>
    168a:	dc 01       	movw	r26, r24
    168c:	cb 01       	movw	r24, r22
    168e:	88 0f       	add	r24, r24
    1690:	99 1f       	adc	r25, r25
    1692:	aa 1f       	adc	r26, r26
    1694:	bb 1f       	adc	r27, r27
    1696:	9c 01       	movw	r18, r24
    1698:	ad 01       	movw	r20, r26
    169a:	2a 0d       	add	r18, r10
    169c:	31 1d       	adc	r19, r1
    169e:	41 1d       	adc	r20, r1
    16a0:	51 1d       	adc	r21, r1
    16a2:	28 39       	cpi	r18, 0x98	; 152
    16a4:	89 e9       	ldi	r24, 0x99	; 153
    16a6:	38 07       	cpc	r19, r24
    16a8:	48 07       	cpc	r20, r24
    16aa:	89 e1       	ldi	r24, 0x19	; 25
    16ac:	58 07       	cpc	r21, r24
    16ae:	48 f0       	brcs	.+18     	; 0x16c2 <strtod+0x138>
    16b0:	16 60       	ori	r17, 0x06	; 6
    16b2:	06 c0       	rjmp	.+12     	; 0x16c0 <strtod+0x136>
    16b4:	9e ef       	ldi	r25, 0xFE	; 254
    16b6:	a9 12       	cpse	r10, r25
    16b8:	0a c0       	rjmp	.+20     	; 0x16ce <strtod+0x144>
    16ba:	13 fd       	sbrc	r17, 3
    16bc:	40 c0       	rjmp	.+128    	; 0x173e <strtod+0x1b4>
    16be:	18 60       	ori	r17, 0x08	; 8
    16c0:	b1 2e       	mov	r11, r17
    16c2:	8f ef       	ldi	r24, 0xFF	; 255
    16c4:	e8 1a       	sub	r14, r24
    16c6:	f8 0a       	sbc	r15, r24
    16c8:	00 81       	ld	r16, Z
    16ca:	1b 2d       	mov	r17, r11
    16cc:	c6 cf       	rjmp	.-116    	; 0x165a <strtod+0xd0>
    16ce:	80 2f       	mov	r24, r16
    16d0:	8f 7d       	andi	r24, 0xDF	; 223
    16d2:	85 34       	cpi	r24, 0x45	; 69
    16d4:	a1 f5       	brne	.+104    	; 0x173e <strtod+0x1b4>
    16d6:	80 81       	ld	r24, Z
    16d8:	8d 32       	cpi	r24, 0x2D	; 45
    16da:	11 f4       	brne	.+4      	; 0x16e0 <strtod+0x156>
    16dc:	10 61       	ori	r17, 0x10	; 16
    16de:	06 c0       	rjmp	.+12     	; 0x16ec <strtod+0x162>
    16e0:	8b 32       	cpi	r24, 0x2B	; 43
    16e2:	21 f0       	breq	.+8      	; 0x16ec <strtod+0x162>
    16e4:	31 96       	adiw	r30, 0x01	; 1
    16e6:	61 e0       	ldi	r22, 0x01	; 1
    16e8:	70 e0       	ldi	r23, 0x00	; 0
    16ea:	04 c0       	rjmp	.+8      	; 0x16f4 <strtod+0x16a>
    16ec:	81 81       	ldd	r24, Z+1	; 0x01
    16ee:	32 96       	adiw	r30, 0x02	; 2
    16f0:	62 e0       	ldi	r22, 0x02	; 2
    16f2:	70 e0       	ldi	r23, 0x00	; 0
    16f4:	80 53       	subi	r24, 0x30	; 48
    16f6:	8a 30       	cpi	r24, 0x0A	; 10
    16f8:	18 f0       	brcs	.+6      	; 0x1700 <strtod+0x176>
    16fa:	e6 1b       	sub	r30, r22
    16fc:	f7 0b       	sbc	r31, r23
    16fe:	1f c0       	rjmp	.+62     	; 0x173e <strtod+0x1b4>
    1700:	60 e0       	ldi	r22, 0x00	; 0
    1702:	70 e0       	ldi	r23, 0x00	; 0
    1704:	60 38       	cpi	r22, 0x80	; 128
    1706:	9c e0       	ldi	r25, 0x0C	; 12
    1708:	79 07       	cpc	r23, r25
    170a:	5c f4       	brge	.+22     	; 0x1722 <strtod+0x198>
    170c:	db 01       	movw	r26, r22
    170e:	aa 0f       	add	r26, r26
    1710:	bb 1f       	adc	r27, r27
    1712:	aa 0f       	add	r26, r26
    1714:	bb 1f       	adc	r27, r27
    1716:	6a 0f       	add	r22, r26
    1718:	7b 1f       	adc	r23, r27
    171a:	66 0f       	add	r22, r22
    171c:	77 1f       	adc	r23, r23
    171e:	68 0f       	add	r22, r24
    1720:	71 1d       	adc	r23, r1
    1722:	31 96       	adiw	r30, 0x01	; 1
    1724:	df 01       	movw	r26, r30
    1726:	11 97       	sbiw	r26, 0x01	; 1
    1728:	8c 91       	ld	r24, X
    172a:	80 53       	subi	r24, 0x30	; 48
    172c:	8a 30       	cpi	r24, 0x0A	; 10
    172e:	50 f3       	brcs	.-44     	; 0x1704 <strtod+0x17a>
    1730:	14 ff       	sbrs	r17, 4
    1732:	03 c0       	rjmp	.+6      	; 0x173a <strtod+0x1b0>
    1734:	71 95       	neg	r23
    1736:	61 95       	neg	r22
    1738:	71 09       	sbc	r23, r1
    173a:	c6 0f       	add	r28, r22
    173c:	d7 1f       	adc	r29, r23
    173e:	11 ff       	sbrs	r17, 1
    1740:	08 c0       	rjmp	.+16     	; 0x1752 <strtod+0x1c8>
    1742:	c1 14       	cp	r12, r1
    1744:	d1 04       	cpc	r13, r1
    1746:	29 f0       	breq	.+10     	; 0x1752 <strtod+0x1c8>
    1748:	cf 01       	movw	r24, r30
    174a:	01 97       	sbiw	r24, 0x01	; 1
    174c:	f6 01       	movw	r30, r12
    174e:	91 83       	std	Z+1, r25	; 0x01
    1750:	80 83       	st	Z, r24
    1752:	ca 01       	movw	r24, r20
    1754:	b9 01       	movw	r22, r18
    1756:	0e 94 fe 07 	call	0xffc	; 0xffc <__floatunsisf>
    175a:	21 2f       	mov	r18, r17
    175c:	23 70       	andi	r18, 0x03	; 3
    175e:	23 30       	cpi	r18, 0x03	; 3
    1760:	19 f0       	breq	.+6      	; 0x1768 <strtod+0x1de>
    1762:	4b 01       	movw	r8, r22
    1764:	5c 01       	movw	r10, r24
    1766:	06 c0       	rjmp	.+12     	; 0x1774 <strtod+0x1ea>
    1768:	4b 01       	movw	r8, r22
    176a:	5c 01       	movw	r10, r24
    176c:	b7 fa       	bst	r11, 7
    176e:	b0 94       	com	r11
    1770:	b7 f8       	bld	r11, 7
    1772:	b0 94       	com	r11
    1774:	20 e0       	ldi	r18, 0x00	; 0
    1776:	30 e0       	ldi	r19, 0x00	; 0
    1778:	a9 01       	movw	r20, r18
    177a:	c5 01       	movw	r24, r10
    177c:	b4 01       	movw	r22, r8
    177e:	0e 94 51 07 	call	0xea2	; 0xea2 <__cmpsf2>
    1782:	88 23       	and	r24, r24
    1784:	09 f4       	brne	.+2      	; 0x1788 <strtod+0x1fe>
    1786:	3e c0       	rjmp	.+124    	; 0x1804 <strtod+0x27a>
    1788:	d7 ff       	sbrs	r29, 7
    178a:	06 c0       	rjmp	.+12     	; 0x1798 <strtod+0x20e>
    178c:	d1 95       	neg	r29
    178e:	c1 95       	neg	r28
    1790:	d1 09       	sbc	r29, r1
    1792:	03 e7       	ldi	r16, 0x73	; 115
    1794:	10 e0       	ldi	r17, 0x00	; 0
    1796:	02 c0       	rjmp	.+4      	; 0x179c <strtod+0x212>
    1798:	0b e8       	ldi	r16, 0x8B	; 139
    179a:	10 e0       	ldi	r17, 0x00	; 0
    179c:	68 01       	movw	r12, r16
    179e:	f8 e1       	ldi	r31, 0x18	; 24
    17a0:	cf 1a       	sub	r12, r31
    17a2:	d1 08       	sbc	r13, r1
    17a4:	90 e2       	ldi	r25, 0x20	; 32
    17a6:	e9 2e       	mov	r14, r25
    17a8:	f1 2c       	mov	r15, r1
    17aa:	ce 15       	cp	r28, r14
    17ac:	df 05       	cpc	r29, r15
    17ae:	74 f0       	brlt	.+28     	; 0x17cc <strtod+0x242>
    17b0:	f8 01       	movw	r30, r16
    17b2:	25 91       	lpm	r18, Z+
    17b4:	35 91       	lpm	r19, Z+
    17b6:	45 91       	lpm	r20, Z+
    17b8:	54 91       	lpm	r21, Z
    17ba:	c5 01       	movw	r24, r10
    17bc:	b4 01       	movw	r22, r8
    17be:	0e 94 b5 08 	call	0x116a	; 0x116a <__mulsf3>
    17c2:	4b 01       	movw	r8, r22
    17c4:	5c 01       	movw	r10, r24
    17c6:	ce 19       	sub	r28, r14
    17c8:	df 09       	sbc	r29, r15
    17ca:	ef cf       	rjmp	.-34     	; 0x17aa <strtod+0x220>
    17cc:	04 50       	subi	r16, 0x04	; 4
    17ce:	11 09       	sbc	r17, r1
    17d0:	f5 94       	asr	r15
    17d2:	e7 94       	ror	r14
    17d4:	0c 15       	cp	r16, r12
    17d6:	1d 05       	cpc	r17, r13
    17d8:	41 f7       	brne	.-48     	; 0x17aa <strtod+0x220>
    17da:	8a 2d       	mov	r24, r10
    17dc:	88 0f       	add	r24, r24
    17de:	8b 2d       	mov	r24, r11
    17e0:	88 1f       	adc	r24, r24
    17e2:	8f 3f       	cpi	r24, 0xFF	; 255
    17e4:	49 f0       	breq	.+18     	; 0x17f8 <strtod+0x26e>
    17e6:	20 e0       	ldi	r18, 0x00	; 0
    17e8:	30 e0       	ldi	r19, 0x00	; 0
    17ea:	a9 01       	movw	r20, r18
    17ec:	c5 01       	movw	r24, r10
    17ee:	b4 01       	movw	r22, r8
    17f0:	0e 94 51 07 	call	0xea2	; 0xea2 <__cmpsf2>
    17f4:	81 11       	cpse	r24, r1
    17f6:	06 c0       	rjmp	.+12     	; 0x1804 <strtod+0x27a>
    17f8:	82 e2       	ldi	r24, 0x22	; 34
    17fa:	90 e0       	ldi	r25, 0x00	; 0
    17fc:	90 93 dd 01 	sts	0x01DD, r25	; 0x8001dd <errno+0x1>
    1800:	80 93 dc 01 	sts	0x01DC, r24	; 0x8001dc <errno>
    1804:	c5 01       	movw	r24, r10
    1806:	b4 01       	movw	r22, r8
    1808:	09 c0       	rjmp	.+18     	; 0x181c <strtod+0x292>
    180a:	60 e0       	ldi	r22, 0x00	; 0
    180c:	70 e0       	ldi	r23, 0x00	; 0
    180e:	80 e8       	ldi	r24, 0x80	; 128
    1810:	9f ef       	ldi	r25, 0xFF	; 255
    1812:	04 c0       	rjmp	.+8      	; 0x181c <strtod+0x292>
    1814:	60 e0       	ldi	r22, 0x00	; 0
    1816:	70 e0       	ldi	r23, 0x00	; 0
    1818:	80 ec       	ldi	r24, 0xC0	; 192
    181a:	9f e7       	ldi	r25, 0x7F	; 127
    181c:	cd b7       	in	r28, 0x3d	; 61
    181e:	de b7       	in	r29, 0x3e	; 62
    1820:	ec e0       	ldi	r30, 0x0C	; 12
    1822:	0c 94 4c 0d 	jmp	0x1a98	; 0x1a98 <__epilogue_restores__+0xc>

00001826 <__ftoa_engine>:
    1826:	28 30       	cpi	r18, 0x08	; 8
    1828:	08 f0       	brcs	.+2      	; 0x182c <__ftoa_engine+0x6>
    182a:	27 e0       	ldi	r18, 0x07	; 7
    182c:	33 27       	eor	r19, r19
    182e:	da 01       	movw	r26, r20
    1830:	99 0f       	add	r25, r25
    1832:	31 1d       	adc	r19, r1
    1834:	87 fd       	sbrc	r24, 7
    1836:	91 60       	ori	r25, 0x01	; 1
    1838:	00 96       	adiw	r24, 0x00	; 0
    183a:	61 05       	cpc	r22, r1
    183c:	71 05       	cpc	r23, r1
    183e:	39 f4       	brne	.+14     	; 0x184e <__ftoa_engine+0x28>
    1840:	32 60       	ori	r19, 0x02	; 2
    1842:	2e 5f       	subi	r18, 0xFE	; 254
    1844:	3d 93       	st	X+, r19
    1846:	30 e3       	ldi	r19, 0x30	; 48
    1848:	2a 95       	dec	r18
    184a:	e1 f7       	brne	.-8      	; 0x1844 <__ftoa_engine+0x1e>
    184c:	08 95       	ret
    184e:	9f 3f       	cpi	r25, 0xFF	; 255
    1850:	30 f0       	brcs	.+12     	; 0x185e <__ftoa_engine+0x38>
    1852:	80 38       	cpi	r24, 0x80	; 128
    1854:	71 05       	cpc	r23, r1
    1856:	61 05       	cpc	r22, r1
    1858:	09 f0       	breq	.+2      	; 0x185c <__ftoa_engine+0x36>
    185a:	3c 5f       	subi	r19, 0xFC	; 252
    185c:	3c 5f       	subi	r19, 0xFC	; 252
    185e:	3d 93       	st	X+, r19
    1860:	91 30       	cpi	r25, 0x01	; 1
    1862:	08 f0       	brcs	.+2      	; 0x1866 <__ftoa_engine+0x40>
    1864:	80 68       	ori	r24, 0x80	; 128
    1866:	91 1d       	adc	r25, r1
    1868:	df 93       	push	r29
    186a:	cf 93       	push	r28
    186c:	1f 93       	push	r17
    186e:	0f 93       	push	r16
    1870:	ff 92       	push	r15
    1872:	ef 92       	push	r14
    1874:	19 2f       	mov	r17, r25
    1876:	98 7f       	andi	r25, 0xF8	; 248
    1878:	96 95       	lsr	r25
    187a:	e9 2f       	mov	r30, r25
    187c:	96 95       	lsr	r25
    187e:	96 95       	lsr	r25
    1880:	e9 0f       	add	r30, r25
    1882:	ff 27       	eor	r31, r31
    1884:	e7 51       	subi	r30, 0x17	; 23
    1886:	ff 4f       	sbci	r31, 0xFF	; 255
    1888:	99 27       	eor	r25, r25
    188a:	33 27       	eor	r19, r19
    188c:	ee 24       	eor	r14, r14
    188e:	ff 24       	eor	r15, r15
    1890:	a7 01       	movw	r20, r14
    1892:	e7 01       	movw	r28, r14
    1894:	05 90       	lpm	r0, Z+
    1896:	08 94       	sec
    1898:	07 94       	ror	r0
    189a:	28 f4       	brcc	.+10     	; 0x18a6 <__ftoa_engine+0x80>
    189c:	36 0f       	add	r19, r22
    189e:	e7 1e       	adc	r14, r23
    18a0:	f8 1e       	adc	r15, r24
    18a2:	49 1f       	adc	r20, r25
    18a4:	51 1d       	adc	r21, r1
    18a6:	66 0f       	add	r22, r22
    18a8:	77 1f       	adc	r23, r23
    18aa:	88 1f       	adc	r24, r24
    18ac:	99 1f       	adc	r25, r25
    18ae:	06 94       	lsr	r0
    18b0:	a1 f7       	brne	.-24     	; 0x189a <__ftoa_engine+0x74>
    18b2:	05 90       	lpm	r0, Z+
    18b4:	07 94       	ror	r0
    18b6:	28 f4       	brcc	.+10     	; 0x18c2 <__ftoa_engine+0x9c>
    18b8:	e7 0e       	add	r14, r23
    18ba:	f8 1e       	adc	r15, r24
    18bc:	49 1f       	adc	r20, r25
    18be:	56 1f       	adc	r21, r22
    18c0:	c1 1d       	adc	r28, r1
    18c2:	77 0f       	add	r23, r23
    18c4:	88 1f       	adc	r24, r24
    18c6:	99 1f       	adc	r25, r25
    18c8:	66 1f       	adc	r22, r22
    18ca:	06 94       	lsr	r0
    18cc:	a1 f7       	brne	.-24     	; 0x18b6 <__ftoa_engine+0x90>
    18ce:	05 90       	lpm	r0, Z+
    18d0:	07 94       	ror	r0
    18d2:	28 f4       	brcc	.+10     	; 0x18de <__ftoa_engine+0xb8>
    18d4:	f8 0e       	add	r15, r24
    18d6:	49 1f       	adc	r20, r25
    18d8:	56 1f       	adc	r21, r22
    18da:	c7 1f       	adc	r28, r23
    18dc:	d1 1d       	adc	r29, r1
    18de:	88 0f       	add	r24, r24
    18e0:	99 1f       	adc	r25, r25
    18e2:	66 1f       	adc	r22, r22
    18e4:	77 1f       	adc	r23, r23
    18e6:	06 94       	lsr	r0
    18e8:	a1 f7       	brne	.-24     	; 0x18d2 <__ftoa_engine+0xac>
    18ea:	05 90       	lpm	r0, Z+
    18ec:	07 94       	ror	r0
    18ee:	20 f4       	brcc	.+8      	; 0x18f8 <__ftoa_engine+0xd2>
    18f0:	49 0f       	add	r20, r25
    18f2:	56 1f       	adc	r21, r22
    18f4:	c7 1f       	adc	r28, r23
    18f6:	d8 1f       	adc	r29, r24
    18f8:	99 0f       	add	r25, r25
    18fa:	66 1f       	adc	r22, r22
    18fc:	77 1f       	adc	r23, r23
    18fe:	88 1f       	adc	r24, r24
    1900:	06 94       	lsr	r0
    1902:	a9 f7       	brne	.-22     	; 0x18ee <__ftoa_engine+0xc8>
    1904:	84 91       	lpm	r24, Z
    1906:	10 95       	com	r17
    1908:	17 70       	andi	r17, 0x07	; 7
    190a:	41 f0       	breq	.+16     	; 0x191c <__ftoa_engine+0xf6>
    190c:	d6 95       	lsr	r29
    190e:	c7 95       	ror	r28
    1910:	57 95       	ror	r21
    1912:	47 95       	ror	r20
    1914:	f7 94       	ror	r15
    1916:	e7 94       	ror	r14
    1918:	1a 95       	dec	r17
    191a:	c1 f7       	brne	.-16     	; 0x190c <__ftoa_engine+0xe6>
    191c:	ef e8       	ldi	r30, 0x8F	; 143
    191e:	f0 e0       	ldi	r31, 0x00	; 0
    1920:	68 94       	set
    1922:	15 90       	lpm	r1, Z+
    1924:	15 91       	lpm	r17, Z+
    1926:	35 91       	lpm	r19, Z+
    1928:	65 91       	lpm	r22, Z+
    192a:	95 91       	lpm	r25, Z+
    192c:	05 90       	lpm	r0, Z+
    192e:	7f e2       	ldi	r23, 0x2F	; 47
    1930:	73 95       	inc	r23
    1932:	e1 18       	sub	r14, r1
    1934:	f1 0a       	sbc	r15, r17
    1936:	43 0b       	sbc	r20, r19
    1938:	56 0b       	sbc	r21, r22
    193a:	c9 0b       	sbc	r28, r25
    193c:	d0 09       	sbc	r29, r0
    193e:	c0 f7       	brcc	.-16     	; 0x1930 <__ftoa_engine+0x10a>
    1940:	e1 0c       	add	r14, r1
    1942:	f1 1e       	adc	r15, r17
    1944:	43 1f       	adc	r20, r19
    1946:	56 1f       	adc	r21, r22
    1948:	c9 1f       	adc	r28, r25
    194a:	d0 1d       	adc	r29, r0
    194c:	7e f4       	brtc	.+30     	; 0x196c <__ftoa_engine+0x146>
    194e:	70 33       	cpi	r23, 0x30	; 48
    1950:	11 f4       	brne	.+4      	; 0x1956 <__ftoa_engine+0x130>
    1952:	8a 95       	dec	r24
    1954:	e6 cf       	rjmp	.-52     	; 0x1922 <__ftoa_engine+0xfc>
    1956:	e8 94       	clt
    1958:	01 50       	subi	r16, 0x01	; 1
    195a:	30 f0       	brcs	.+12     	; 0x1968 <__ftoa_engine+0x142>
    195c:	08 0f       	add	r16, r24
    195e:	0a f4       	brpl	.+2      	; 0x1962 <__ftoa_engine+0x13c>
    1960:	00 27       	eor	r16, r16
    1962:	02 17       	cp	r16, r18
    1964:	08 f4       	brcc	.+2      	; 0x1968 <__ftoa_engine+0x142>
    1966:	20 2f       	mov	r18, r16
    1968:	23 95       	inc	r18
    196a:	02 2f       	mov	r16, r18
    196c:	7a 33       	cpi	r23, 0x3A	; 58
    196e:	28 f0       	brcs	.+10     	; 0x197a <__ftoa_engine+0x154>
    1970:	79 e3       	ldi	r23, 0x39	; 57
    1972:	7d 93       	st	X+, r23
    1974:	2a 95       	dec	r18
    1976:	e9 f7       	brne	.-6      	; 0x1972 <__ftoa_engine+0x14c>
    1978:	10 c0       	rjmp	.+32     	; 0x199a <__ftoa_engine+0x174>
    197a:	7d 93       	st	X+, r23
    197c:	2a 95       	dec	r18
    197e:	89 f6       	brne	.-94     	; 0x1922 <__ftoa_engine+0xfc>
    1980:	06 94       	lsr	r0
    1982:	97 95       	ror	r25
    1984:	67 95       	ror	r22
    1986:	37 95       	ror	r19
    1988:	17 95       	ror	r17
    198a:	17 94       	ror	r1
    198c:	e1 18       	sub	r14, r1
    198e:	f1 0a       	sbc	r15, r17
    1990:	43 0b       	sbc	r20, r19
    1992:	56 0b       	sbc	r21, r22
    1994:	c9 0b       	sbc	r28, r25
    1996:	d0 09       	sbc	r29, r0
    1998:	98 f0       	brcs	.+38     	; 0x19c0 <__ftoa_engine+0x19a>
    199a:	23 95       	inc	r18
    199c:	7e 91       	ld	r23, -X
    199e:	73 95       	inc	r23
    19a0:	7a 33       	cpi	r23, 0x3A	; 58
    19a2:	08 f0       	brcs	.+2      	; 0x19a6 <__ftoa_engine+0x180>
    19a4:	70 e3       	ldi	r23, 0x30	; 48
    19a6:	7c 93       	st	X, r23
    19a8:	20 13       	cpse	r18, r16
    19aa:	b8 f7       	brcc	.-18     	; 0x199a <__ftoa_engine+0x174>
    19ac:	7e 91       	ld	r23, -X
    19ae:	70 61       	ori	r23, 0x10	; 16
    19b0:	7d 93       	st	X+, r23
    19b2:	30 f0       	brcs	.+12     	; 0x19c0 <__ftoa_engine+0x19a>
    19b4:	83 95       	inc	r24
    19b6:	71 e3       	ldi	r23, 0x31	; 49
    19b8:	7d 93       	st	X+, r23
    19ba:	70 e3       	ldi	r23, 0x30	; 48
    19bc:	2a 95       	dec	r18
    19be:	e1 f7       	brne	.-8      	; 0x19b8 <__ftoa_engine+0x192>
    19c0:	11 24       	eor	r1, r1
    19c2:	ef 90       	pop	r14
    19c4:	ff 90       	pop	r15
    19c6:	0f 91       	pop	r16
    19c8:	1f 91       	pop	r17
    19ca:	cf 91       	pop	r28
    19cc:	df 91       	pop	r29
    19ce:	99 27       	eor	r25, r25
    19d0:	87 fd       	sbrc	r24, 7
    19d2:	90 95       	com	r25
    19d4:	08 95       	ret

000019d6 <isspace>:
    19d6:	91 11       	cpse	r25, r1
    19d8:	0c 94 1c 0d 	jmp	0x1a38	; 0x1a38 <__ctype_isfalse>
    19dc:	80 32       	cpi	r24, 0x20	; 32
    19de:	19 f0       	breq	.+6      	; 0x19e6 <isspace+0x10>
    19e0:	89 50       	subi	r24, 0x09	; 9
    19e2:	85 50       	subi	r24, 0x05	; 5
    19e4:	c8 f7       	brcc	.-14     	; 0x19d8 <isspace+0x2>
    19e6:	08 95       	ret

000019e8 <strncasecmp_P>:
    19e8:	fb 01       	movw	r30, r22
    19ea:	dc 01       	movw	r26, r24
    19ec:	41 50       	subi	r20, 0x01	; 1
    19ee:	50 40       	sbci	r21, 0x00	; 0
    19f0:	88 f0       	brcs	.+34     	; 0x1a14 <strncasecmp_P+0x2c>
    19f2:	8d 91       	ld	r24, X+
    19f4:	81 34       	cpi	r24, 0x41	; 65
    19f6:	1c f0       	brlt	.+6      	; 0x19fe <strncasecmp_P+0x16>
    19f8:	8b 35       	cpi	r24, 0x5B	; 91
    19fa:	0c f4       	brge	.+2      	; 0x19fe <strncasecmp_P+0x16>
    19fc:	80 5e       	subi	r24, 0xE0	; 224
    19fe:	65 91       	lpm	r22, Z+
    1a00:	61 34       	cpi	r22, 0x41	; 65
    1a02:	1c f0       	brlt	.+6      	; 0x1a0a <strncasecmp_P+0x22>
    1a04:	6b 35       	cpi	r22, 0x5B	; 91
    1a06:	0c f4       	brge	.+2      	; 0x1a0a <strncasecmp_P+0x22>
    1a08:	60 5e       	subi	r22, 0xE0	; 224
    1a0a:	86 1b       	sub	r24, r22
    1a0c:	61 11       	cpse	r22, r1
    1a0e:	71 f3       	breq	.-36     	; 0x19ec <strncasecmp_P+0x4>
    1a10:	99 0b       	sbc	r25, r25
    1a12:	08 95       	ret
    1a14:	88 1b       	sub	r24, r24
    1a16:	fc cf       	rjmp	.-8      	; 0x1a10 <strncasecmp_P+0x28>

00001a18 <strrev>:
    1a18:	dc 01       	movw	r26, r24
    1a1a:	fc 01       	movw	r30, r24
    1a1c:	67 2f       	mov	r22, r23
    1a1e:	71 91       	ld	r23, Z+
    1a20:	77 23       	and	r23, r23
    1a22:	e1 f7       	brne	.-8      	; 0x1a1c <strrev+0x4>
    1a24:	32 97       	sbiw	r30, 0x02	; 2
    1a26:	04 c0       	rjmp	.+8      	; 0x1a30 <strrev+0x18>
    1a28:	7c 91       	ld	r23, X
    1a2a:	6d 93       	st	X+, r22
    1a2c:	70 83       	st	Z, r23
    1a2e:	62 91       	ld	r22, -Z
    1a30:	ae 17       	cp	r26, r30
    1a32:	bf 07       	cpc	r27, r31
    1a34:	c8 f3       	brcs	.-14     	; 0x1a28 <strrev+0x10>
    1a36:	08 95       	ret

00001a38 <__ctype_isfalse>:
    1a38:	99 27       	eor	r25, r25
    1a3a:	88 27       	eor	r24, r24

00001a3c <__ctype_istrue>:
    1a3c:	08 95       	ret

00001a3e <__muluhisi3>:
    1a3e:	0e 94 61 0d 	call	0x1ac2	; 0x1ac2 <__umulhisi3>
    1a42:	a5 9f       	mul	r26, r21
    1a44:	90 0d       	add	r25, r0
    1a46:	b4 9f       	mul	r27, r20
    1a48:	90 0d       	add	r25, r0
    1a4a:	a4 9f       	mul	r26, r20
    1a4c:	80 0d       	add	r24, r0
    1a4e:	91 1d       	adc	r25, r1
    1a50:	11 24       	eor	r1, r1
    1a52:	08 95       	ret

00001a54 <__prologue_saves__>:
    1a54:	2f 92       	push	r2
    1a56:	3f 92       	push	r3
    1a58:	4f 92       	push	r4
    1a5a:	5f 92       	push	r5
    1a5c:	6f 92       	push	r6
    1a5e:	7f 92       	push	r7
    1a60:	8f 92       	push	r8
    1a62:	9f 92       	push	r9
    1a64:	af 92       	push	r10
    1a66:	bf 92       	push	r11
    1a68:	cf 92       	push	r12
    1a6a:	df 92       	push	r13
    1a6c:	ef 92       	push	r14
    1a6e:	ff 92       	push	r15
    1a70:	0f 93       	push	r16
    1a72:	1f 93       	push	r17
    1a74:	cf 93       	push	r28
    1a76:	df 93       	push	r29
    1a78:	cd b7       	in	r28, 0x3d	; 61
    1a7a:	de b7       	in	r29, 0x3e	; 62
    1a7c:	ca 1b       	sub	r28, r26
    1a7e:	db 0b       	sbc	r29, r27
    1a80:	0f b6       	in	r0, 0x3f	; 63
    1a82:	f8 94       	cli
    1a84:	de bf       	out	0x3e, r29	; 62
    1a86:	0f be       	out	0x3f, r0	; 63
    1a88:	cd bf       	out	0x3d, r28	; 61
    1a8a:	09 94       	ijmp

00001a8c <__epilogue_restores__>:
    1a8c:	2a 88       	ldd	r2, Y+18	; 0x12
    1a8e:	39 88       	ldd	r3, Y+17	; 0x11
    1a90:	48 88       	ldd	r4, Y+16	; 0x10
    1a92:	5f 84       	ldd	r5, Y+15	; 0x0f
    1a94:	6e 84       	ldd	r6, Y+14	; 0x0e
    1a96:	7d 84       	ldd	r7, Y+13	; 0x0d
    1a98:	8c 84       	ldd	r8, Y+12	; 0x0c
    1a9a:	9b 84       	ldd	r9, Y+11	; 0x0b
    1a9c:	aa 84       	ldd	r10, Y+10	; 0x0a
    1a9e:	b9 84       	ldd	r11, Y+9	; 0x09
    1aa0:	c8 84       	ldd	r12, Y+8	; 0x08
    1aa2:	df 80       	ldd	r13, Y+7	; 0x07
    1aa4:	ee 80       	ldd	r14, Y+6	; 0x06
    1aa6:	fd 80       	ldd	r15, Y+5	; 0x05
    1aa8:	0c 81       	ldd	r16, Y+4	; 0x04
    1aaa:	1b 81       	ldd	r17, Y+3	; 0x03
    1aac:	aa 81       	ldd	r26, Y+2	; 0x02
    1aae:	b9 81       	ldd	r27, Y+1	; 0x01
    1ab0:	ce 0f       	add	r28, r30
    1ab2:	d1 1d       	adc	r29, r1
    1ab4:	0f b6       	in	r0, 0x3f	; 63
    1ab6:	f8 94       	cli
    1ab8:	de bf       	out	0x3e, r29	; 62
    1aba:	0f be       	out	0x3f, r0	; 63
    1abc:	cd bf       	out	0x3d, r28	; 61
    1abe:	ed 01       	movw	r28, r26
    1ac0:	08 95       	ret

00001ac2 <__umulhisi3>:
    1ac2:	a2 9f       	mul	r26, r18
    1ac4:	b0 01       	movw	r22, r0
    1ac6:	b3 9f       	mul	r27, r19
    1ac8:	c0 01       	movw	r24, r0
    1aca:	a3 9f       	mul	r26, r19
    1acc:	70 0d       	add	r23, r0
    1ace:	81 1d       	adc	r24, r1
    1ad0:	11 24       	eor	r1, r1
    1ad2:	91 1d       	adc	r25, r1
    1ad4:	b2 9f       	mul	r27, r18
    1ad6:	70 0d       	add	r23, r0
    1ad8:	81 1d       	adc	r24, r1
    1ada:	11 24       	eor	r1, r1
    1adc:	91 1d       	adc	r25, r1
    1ade:	08 95       	ret

00001ae0 <_exit>:
    1ae0:	f8 94       	cli

00001ae2 <__stop_program>:
    1ae2:	ff cf       	rjmp	.-2      	; 0x1ae2 <__stop_program>
